
Build/temp.elf:     file format elf32-littlearm


Disassembly of section .flash_interrupts:

00000000 <VTABLE>:
   0:	20007000 	.word	0x20007000
   4:	00000411 	.word	0x00000411
   8:	000005a3 	.word	0x000005a3
   c:	00000ab3 	.word	0x00000ab3
  10:	00000ab5 	.word	0x00000ab5
  14:	00000ab7 	.word	0x00000ab7
  18:	00000ab9 	.word	0x00000ab9
	...
  2c:	00000abb 	.word	0x00000abb
  30:	00000abd 	.word	0x00000abd
  34:	00000000 	.word	0x00000000
  38:	00000abf 	.word	0x00000abf
  3c:	00000ac1 	.word	0x00000ac1
  40:	00000ac3 	.word	0x00000ac3
  44:	00000ac3 	.word	0x00000ac3
  48:	00000ac3 	.word	0x00000ac3
  4c:	00000ac3 	.word	0x00000ac3
  50:	00000ac3 	.word	0x00000ac3
  54:	00000ac3 	.word	0x00000ac3
  58:	00000ac3 	.word	0x00000ac3
  5c:	00000ac3 	.word	0x00000ac3
  60:	00000ac3 	.word	0x00000ac3
  64:	00000ac3 	.word	0x00000ac3
  68:	00000ac3 	.word	0x00000ac3
  6c:	00000ac3 	.word	0x00000ac3
  70:	00000ac3 	.word	0x00000ac3
  74:	00000ac3 	.word	0x00000ac3
  78:	00000ac3 	.word	0x00000ac3
  7c:	00000ac3 	.word	0x00000ac3
  80:	00000ac3 	.word	0x00000ac3
  84:	00000ac3 	.word	0x00000ac3
  88:	00000ac3 	.word	0x00000ac3
  8c:	00000ac3 	.word	0x00000ac3
  90:	00000ac3 	.word	0x00000ac3
  94:	00000ac3 	.word	0x00000ac3
  98:	00000ac3 	.word	0x00000ac3
  9c:	00000ac3 	.word	0x00000ac3
  a0:	00000ac3 	.word	0x00000ac3
  a4:	00000ac3 	.word	0x00000ac3
  a8:	00000ac3 	.word	0x00000ac3
  ac:	00000ac3 	.word	0x00000ac3
  b0:	00000ac3 	.word	0x00000ac3
  b4:	00000ac3 	.word	0x00000ac3
  b8:	00000ac3 	.word	0x00000ac3
  bc:	00000ac3 	.word	0x00000ac3
  c0:	00000ac3 	.word	0x00000ac3
  c4:	00000ac3 	.word	0x00000ac3
  c8:	00000ac3 	.word	0x00000ac3
  cc:	00000ac3 	.word	0x00000ac3
  d0:	00000ac3 	.word	0x00000ac3
  d4:	00000ac3 	.word	0x00000ac3
  d8:	00000ac3 	.word	0x00000ac3
  dc:	00000ac3 	.word	0x00000ac3
  e0:	00000ac3 	.word	0x00000ac3
  e4:	00000ac3 	.word	0x00000ac3
  e8:	00000ac3 	.word	0x00000ac3
  ec:	00000ac3 	.word	0x00000ac3
  f0:	00000ac3 	.word	0x00000ac3
  f4:	00000ac3 	.word	0x00000ac3
  f8:	00000ac3 	.word	0x00000ac3
  fc:	00000ac3 	.word	0x00000ac3
 100:	00000ac3 	.word	0x00000ac3
 104:	00000ac3 	.word	0x00000ac3
 108:	00000ac3 	.word	0x00000ac3
 10c:	00000ac3 	.word	0x00000ac3
 110:	00000ac3 	.word	0x00000ac3
 114:	00000ac3 	.word	0x00000ac3
 118:	00000ac3 	.word	0x00000ac3
 11c:	00000ac3 	.word	0x00000ac3
 120:	00000ac3 	.word	0x00000ac3
 124:	00000ac3 	.word	0x00000ac3
 128:	00000ac3 	.word	0x00000ac3
 12c:	00000ac3 	.word	0x00000ac3
 130:	00000ac3 	.word	0x00000ac3
 134:	00000ac3 	.word	0x00000ac3
 138:	00000ac3 	.word	0x00000ac3
 13c:	00000ac3 	.word	0x00000ac3
 140:	00000ac3 	.word	0x00000ac3
 144:	00000ac3 	.word	0x00000ac3
 148:	00000ac3 	.word	0x00000ac3
 14c:	00000ac3 	.word	0x00000ac3
 150:	00000ac3 	.word	0x00000ac3
 154:	00000ac3 	.word	0x00000ac3
 158:	00000ac3 	.word	0x00000ac3
 15c:	00000ac3 	.word	0x00000ac3
 160:	00000ac3 	.word	0x00000ac3
 164:	00000ac3 	.word	0x00000ac3
 168:	00000ac3 	.word	0x00000ac3
 16c:	00000ac3 	.word	0x00000ac3
 170:	00000ac3 	.word	0x00000ac3
 174:	00000ac3 	.word	0x00000ac3
 178:	00000ac3 	.word	0x00000ac3
 17c:	00000ac3 	.word	0x00000ac3
 180:	00000ac3 	.word	0x00000ac3
 184:	00000ac3 	.word	0x00000ac3
 188:	00000ac3 	.word	0x00000ac3
 18c:	00000ac3 	.word	0x00000ac3
 190:	00000ac3 	.word	0x00000ac3
 194:	00000ac3 	.word	0x00000ac3
 198:	00000ac3 	.word	0x00000ac3
 19c:	00000ac3 	.word	0x00000ac3
 1a0:	00000ac3 	.word	0x00000ac3
 1a4:	00000ac3 	.word	0x00000ac3
 1a8:	00000ac3 	.word	0x00000ac3
 1ac:	00000ac3 	.word	0x00000ac3
 1b0:	00000ac3 	.word	0x00000ac3
 1b4:	00000ac3 	.word	0x00000ac3
 1b8:	00000ac3 	.word	0x00000ac3
 1bc:	00000ac3 	.word	0x00000ac3
 1c0:	00000ac3 	.word	0x00000ac3
 1c4:	00000ac3 	.word	0x00000ac3
 1c8:	00000ac3 	.word	0x00000ac3
 1cc:	00000ac3 	.word	0x00000ac3
 1d0:	00000ac3 	.word	0x00000ac3
 1d4:	00000ac3 	.word	0x00000ac3
 1d8:	00000ac3 	.word	0x00000ac3
 1dc:	00000ac3 	.word	0x00000ac3
 1e0:	00000ac3 	.word	0x00000ac3
 1e4:	00000ac3 	.word	0x00000ac3
 1e8:	00000ac3 	.word	0x00000ac3
 1ec:	00000ac3 	.word	0x00000ac3
 1f0:	00000ac3 	.word	0x00000ac3
 1f4:	00000ac3 	.word	0x00000ac3
 1f8:	00000ac3 	.word	0x00000ac3
 1fc:	00000ac3 	.word	0x00000ac3
 200:	00000ac3 	.word	0x00000ac3
 204:	00000ac3 	.word	0x00000ac3
 208:	00000ac3 	.word	0x00000ac3
 20c:	00000ac3 	.word	0x00000ac3
 210:	00000ac3 	.word	0x00000ac3
 214:	00000ac3 	.word	0x00000ac3
 218:	00000ac3 	.word	0x00000ac3
 21c:	00000ac3 	.word	0x00000ac3
 220:	00000ac3 	.word	0x00000ac3
 224:	00000ac3 	.word	0x00000ac3
 228:	00000ac3 	.word	0x00000ac3
 22c:	00000ac3 	.word	0x00000ac3
 230:	00000ac3 	.word	0x00000ac3
 234:	00000ac3 	.word	0x00000ac3
 238:	00000ac3 	.word	0x00000ac3
 23c:	00000ac3 	.word	0x00000ac3
 240:	00000ac3 	.word	0x00000ac3
 244:	00000ac3 	.word	0x00000ac3
 248:	00000ac3 	.word	0x00000ac3
 24c:	00000ac3 	.word	0x00000ac3
 250:	00000ac3 	.word	0x00000ac3
 254:	00000ac3 	.word	0x00000ac3
 258:	00000ac3 	.word	0x00000ac3
 25c:	00000ac3 	.word	0x00000ac3
 260:	00000ac3 	.word	0x00000ac3
 264:	00000ac3 	.word	0x00000ac3
 268:	00000ac3 	.word	0x00000ac3
 26c:	00000ac3 	.word	0x00000ac3
 270:	00000ac3 	.word	0x00000ac3
 274:	00000ac3 	.word	0x00000ac3
 278:	00000ac3 	.word	0x00000ac3
 27c:	00000ac3 	.word	0x00000ac3
 280:	00000ac3 	.word	0x00000ac3
 284:	00000ac3 	.word	0x00000ac3
 288:	00000ac3 	.word	0x00000ac3
 28c:	00000ac3 	.word	0x00000ac3
 290:	00000ac3 	.word	0x00000ac3
 294:	00000ac3 	.word	0x00000ac3
 298:	00000ac3 	.word	0x00000ac3
 29c:	00000ac3 	.word	0x00000ac3
 2a0:	00000ac3 	.word	0x00000ac3
 2a4:	00000ac3 	.word	0x00000ac3
 2a8:	00000ac3 	.word	0x00000ac3
 2ac:	00000ac3 	.word	0x00000ac3
 2b0:	00000ac3 	.word	0x00000ac3
 2b4:	00000ac3 	.word	0x00000ac3
 2b8:	00000ac3 	.word	0x00000ac3
 2bc:	00000ac3 	.word	0x00000ac3
 2c0:	00000ac3 	.word	0x00000ac3
 2c4:	00000ac3 	.word	0x00000ac3
 2c8:	00000ac3 	.word	0x00000ac3
 2cc:	00000ac3 	.word	0x00000ac3
 2d0:	00000ac3 	.word	0x00000ac3
 2d4:	00000ac3 	.word	0x00000ac3
 2d8:	00000ac3 	.word	0x00000ac3
 2dc:	00000ac3 	.word	0x00000ac3
 2e0:	00000ac3 	.word	0x00000ac3
 2e4:	00000ac3 	.word	0x00000ac3
 2e8:	00000ac3 	.word	0x00000ac3
 2ec:	00000ac3 	.word	0x00000ac3
 2f0:	00000ac3 	.word	0x00000ac3
 2f4:	00000ac3 	.word	0x00000ac3
 2f8:	00000ac3 	.word	0x00000ac3
 2fc:	00000ac3 	.word	0x00000ac3
 300:	00000ac3 	.word	0x00000ac3
 304:	00000ac3 	.word	0x00000ac3
 308:	00000ac3 	.word	0x00000ac3
 30c:	00000ac3 	.word	0x00000ac3

Disassembly of section .flash:

00000410 <_start>:
     410:	b672      	cpsid	i
     412:	f04f 0000 	mov.w	r0, #0
     416:	f04f 0100 	mov.w	r1, #0
     41a:	f04f 0200 	mov.w	r2, #0
     41e:	f04f 0300 	mov.w	r3, #0
     422:	f04f 0400 	mov.w	r4, #0
     426:	f04f 0500 	mov.w	r5, #0
     42a:	f04f 0600 	mov.w	r6, #0
     42e:	f04f 0700 	mov.w	r7, #0
     432:	481b      	ldr	r0, [pc, #108]	; (4a0 <_end_of_eunit_test+0xa>)
     434:	f44f 1140 	mov.w	r1, #3145728	; 0x300000
     438:	6001      	str	r1, [r0, #0]

0000043a <SetVTOR>:
     43a:	481a      	ldr	r0, [pc, #104]	; (4a4 <_end_of_eunit_test+0xe>)
     43c:	491a      	ldr	r1, [pc, #104]	; (4a8 <_end_of_eunit_test+0x12>)
     43e:	6001      	str	r1, [r0, #0]

00000440 <SetCore0Stack>:
     440:	481a      	ldr	r0, [pc, #104]	; (4ac <_end_of_eunit_test+0x16>)
     442:	f380 8808 	msr	MSP, r0
     446:	e7ff      	b.n	448 <DisableSWT0>

00000448 <DisableSWT0>:
     448:	4819      	ldr	r0, [pc, #100]	; (4b0 <_end_of_eunit_test+0x1a>)
     44a:	f242 5120 	movw	r1, #9504	; 0x2520
     44e:	6001      	str	r1, [r0, #0]
     450:	4818      	ldr	r0, [pc, #96]	; (4b4 <_end_of_eunit_test+0x1e>)
     452:	f64f 71ff 	movw	r1, #65535	; 0xffff
     456:	6001      	str	r1, [r0, #0]
     458:	e7ff      	b.n	45a <RamInit>

0000045a <RamInit>:
     45a:	4817      	ldr	r0, [pc, #92]	; (4b8 <_end_of_eunit_test+0x22>)
     45c:	2800      	cmp	r0, #0
     45e:	d009      	beq.n	474 <DebuggerHeldCoreLoop>
     460:	4916      	ldr	r1, [pc, #88]	; (4bc <_end_of_eunit_test+0x26>)
     462:	4a17      	ldr	r2, [pc, #92]	; (4c0 <_end_of_eunit_test+0x2a>)
     464:	1a52      	subs	r2, r2, r1
     466:	3a01      	subs	r2, #1
     468:	dd04      	ble.n	474 <DebuggerHeldCoreLoop>
     46a:	2000      	movs	r0, #0
     46c:	2300      	movs	r3, #0

0000046e <SRAM_LOOP>:
     46e:	c109      	stmia	r1!, {r0, r3}
     470:	3a08      	subs	r2, #8
     472:	dafc      	bge.n	46e <SRAM_LOOP>

00000474 <DebuggerHeldCoreLoop>:
     474:	4813      	ldr	r0, [pc, #76]	; (4c4 <_end_of_eunit_test+0x2e>)
     476:	6800      	ldr	r0, [r0, #0]
     478:	f04f 315a 	mov.w	r1, #1515870810	; 0x5a5a5a5a
     47c:	4288      	cmp	r0, r1
     47e:	d0f9      	beq.n	474 <DebuggerHeldCoreLoop>

00000480 <_DATA_INIT>:
     480:	e7ff      	b.n	482 <_INIT_DATA_BSS>

00000482 <_INIT_DATA_BSS>:
     482:	f000 fa4d 	bl	920 <init_data_bss>

00000486 <__SYSTEM_INIT>:
     486:	f000 f81f 	bl	4c8 <SystemInit>

0000048a <_MAIN>:
     48a:	b662      	cpsie	i
     48c:	f000 fb0c 	bl	aa8 <startup_go_to_user_mode>
     490:	f000 fa0e 	bl	8b0 <main>

00000494 <MCAL_LTB_TRACE_OFF>:
     494:	bf00      	nop

00000496 <_end_of_eunit_test>:
     496:	e7fe      	b.n	496 <_end_of_eunit_test>
     498:	f3af 8000 	nop.w
     49c:	f3af 8000 	nop.w
     4a0:	40048004 	.word	0x40048004
     4a4:	e000ed08 	.word	0xe000ed08
     4a8:	1fff8800 	.word	0x1fff8800
     4ac:	20007000 	.word	0x20007000
     4b0:	40052000 	.word	0x40052000
     4b4:	40052008 	.word	0x40052008
     4b8:	00000001 	.word	0x00000001
     4bc:	1fff8000 	.word	0x1fff8000
     4c0:	20007000 	.word	0x20007000
     4c4:	1fff92f4 	.word	0x1fff92f4

000004c8 <SystemInit>:
     4c8:	b508      	push	{r3, lr}
     4ca:	f04f 23e0 	mov.w	r3, #3758153728	; 0xe000e000
     4ce:	f8d3 3d88 	ldr.w	r3, [r3, #3464]	; 0xd88
     4d2:	f04f 22e0 	mov.w	r2, #3758153728	; 0xe000e000
     4d6:	f443 0370 	orr.w	r3, r3, #15728640	; 0xf00000
     4da:	f8c2 3d88 	str.w	r3, [r2, #3464]	; 0xd88
     4de:	f3bf 8f4f 	dsb	sy
     4e2:	f3bf 8f6f 	isb	sy
     4e6:	f04f 23e0 	mov.w	r3, #3758153728	; 0xe000e000
     4ea:	f8d3 3d14 	ldr.w	r3, [r3, #3348]	; 0xd14
     4ee:	f04f 22e0 	mov.w	r2, #3758153728	; 0xe000e000
     4f2:	f043 0301 	orr.w	r3, r3, #1
     4f6:	f8c2 3d14 	str.w	r3, [r2, #3348]	; 0xd14
     4fa:	f04f 23e0 	mov.w	r3, #3758153728	; 0xe000e000
     4fe:	f8d3 3d20 	ldr.w	r3, [r3, #3360]	; 0xd20
     502:	f04f 22e0 	mov.w	r2, #3758153728	; 0xe000e000
     506:	f423 037f 	bic.w	r3, r3, #16711680	; 0xff0000
     50a:	f8c2 3d20 	str.w	r3, [r2, #3360]	; 0xd20
     50e:	f04f 4380 	mov.w	r3, #1073741824	; 0x40000000
     512:	f04f 3277 	mov.w	r2, #2004318071	; 0x77777777
     516:	601a      	str	r2, [r3, #0]
     518:	f04f 4380 	mov.w	r3, #1073741824	; 0x40000000
     51c:	2200      	movs	r2, #0
     51e:	621a      	str	r2, [r3, #32]
     520:	f04f 4380 	mov.w	r3, #1073741824	; 0x40000000
     524:	2200      	movs	r2, #0
     526:	625a      	str	r2, [r3, #36]	; 0x24
     528:	f04f 4380 	mov.w	r3, #1073741824	; 0x40000000
     52c:	2200      	movs	r2, #0
     52e:	62da      	str	r2, [r3, #44]	; 0x2c
     530:	f04f 4380 	mov.w	r3, #1073741824	; 0x40000000
     534:	2200      	movs	r2, #0
     536:	641a      	str	r2, [r3, #64]	; 0x40
     538:	f04f 4380 	mov.w	r3, #1073741824	; 0x40000000
     53c:	2200      	movs	r2, #0
     53e:	645a      	str	r2, [r3, #68]	; 0x44
     540:	f04f 4380 	mov.w	r3, #1073741824	; 0x40000000
     544:	2200      	movs	r2, #0
     546:	649a      	str	r2, [r3, #72]	; 0x48
     548:	f04f 4380 	mov.w	r3, #1073741824	; 0x40000000
     54c:	2200      	movs	r2, #0
     54e:	64da      	str	r2, [r3, #76]	; 0x4c
     550:	f04f 4380 	mov.w	r3, #1073741824	; 0x40000000
     554:	2200      	movs	r2, #0
     556:	651a      	str	r2, [r3, #80]	; 0x50
     558:	f04f 4380 	mov.w	r3, #1073741824	; 0x40000000
     55c:	2200      	movs	r2, #0
     55e:	655a      	str	r2, [r3, #84]	; 0x54
     560:	f04f 4380 	mov.w	r3, #1073741824	; 0x40000000
     564:	2200      	movs	r2, #0
     566:	659a      	str	r2, [r3, #88]	; 0x58
     568:	f04f 4380 	mov.w	r3, #1073741824	; 0x40000000
     56c:	2200      	movs	r2, #0
     56e:	65da      	str	r2, [r3, #92]	; 0x5c
     570:	f04f 4380 	mov.w	r3, #1073741824	; 0x40000000
     574:	2200      	movs	r2, #0
     576:	661a      	str	r2, [r3, #96]	; 0x60
     578:	f04f 4380 	mov.w	r3, #1073741824	; 0x40000000
     57c:	2200      	movs	r2, #0
     57e:	665a      	str	r2, [r3, #100]	; 0x64
     580:	f04f 4380 	mov.w	r3, #1073741824	; 0x40000000
     584:	2200      	movs	r2, #0
     586:	669a      	str	r2, [r3, #104]	; 0x68
     588:	f04f 4380 	mov.w	r3, #1073741824	; 0x40000000
     58c:	2200      	movs	r2, #0
     58e:	66da      	str	r2, [r3, #108]	; 0x6c
     590:	f3bf 8f4f 	dsb	sy
     594:	f3bf 8f6f 	isb	sy
     598:	2000      	movs	r0, #0
     59a:	f000 fa57 	bl	a4c <sys_m4_cache_init>
     59e:	bf00      	nop
     5a0:	bd08      	pop	{r3, pc}

000005a2 <NMI_Handler>:
     5a2:	e7fe      	b.n	5a2 <NMI_Handler>

000005a4 <__aeabi_uldivmod>:
     5a4:	b953      	cbnz	r3, 5bc <__aeabi_uldivmod+0x18>
     5a6:	b94a      	cbnz	r2, 5bc <__aeabi_uldivmod+0x18>
     5a8:	2900      	cmp	r1, #0
     5aa:	bf08      	it	eq
     5ac:	2800      	cmpeq	r0, #0
     5ae:	bf1c      	itt	ne
     5b0:	f04f 31ff 	movne.w	r1, #4294967295
     5b4:	f04f 30ff 	movne.w	r0, #4294967295
     5b8:	f000 b978 	b.w	8ac <__aeabi_idiv0>
     5bc:	f1ad 0c08 	sub.w	ip, sp, #8
     5c0:	e96d ce04 	strd	ip, lr, [sp, #-16]!
     5c4:	f000 f806 	bl	5d4 <__udivmoddi4>
     5c8:	f8dd e004 	ldr.w	lr, [sp, #4]
     5cc:	e9dd 2302 	ldrd	r2, r3, [sp, #8]
     5d0:	b004      	add	sp, #16
     5d2:	4770      	bx	lr

000005d4 <__udivmoddi4>:
     5d4:	e92d 47f0 	stmdb	sp!, {r4, r5, r6, r7, r8, r9, sl, lr}
     5d8:	9d08      	ldr	r5, [sp, #32]
     5da:	460e      	mov	r6, r1
     5dc:	4604      	mov	r4, r0
     5de:	468e      	mov	lr, r1
     5e0:	2b00      	cmp	r3, #0
     5e2:	d14c      	bne.n	67e <__udivmoddi4+0xaa>
     5e4:	428a      	cmp	r2, r1
     5e6:	4694      	mov	ip, r2
     5e8:	d967      	bls.n	6ba <__udivmoddi4+0xe6>
     5ea:	fab2 f282 	clz	r2, r2
     5ee:	b152      	cbz	r2, 606 <__udivmoddi4+0x32>
     5f0:	fa01 f302 	lsl.w	r3, r1, r2
     5f4:	f1c2 0120 	rsb	r1, r2, #32
     5f8:	fa20 f101 	lsr.w	r1, r0, r1
     5fc:	fa0c fc02 	lsl.w	ip, ip, r2
     600:	ea41 0e03 	orr.w	lr, r1, r3
     604:	4094      	lsls	r4, r2
     606:	ea4f 481c 	mov.w	r8, ip, lsr #16
     60a:	0c21      	lsrs	r1, r4, #16
     60c:	fbbe f6f8 	udiv	r6, lr, r8
     610:	fa1f f78c 	uxth.w	r7, ip
     614:	fb08 e316 	mls	r3, r8, r6, lr
     618:	ea41 4303 	orr.w	r3, r1, r3, lsl #16
     61c:	fb06 f107 	mul.w	r1, r6, r7
     620:	4299      	cmp	r1, r3
     622:	d90a      	bls.n	63a <__udivmoddi4+0x66>
     624:	eb1c 0303 	adds.w	r3, ip, r3
     628:	f106 30ff 	add.w	r0, r6, #4294967295
     62c:	f080 811e 	bcs.w	86c <__BSS_SRAM_SIZE+0xac>
     630:	4299      	cmp	r1, r3
     632:	f240 811b 	bls.w	86c <__BSS_SRAM_SIZE+0xac>
     636:	3e02      	subs	r6, #2
     638:	4463      	add	r3, ip
     63a:	1a5b      	subs	r3, r3, r1
     63c:	b2a4      	uxth	r4, r4
     63e:	fbb3 f0f8 	udiv	r0, r3, r8
     642:	fb08 3310 	mls	r3, r8, r0, r3
     646:	ea44 4403 	orr.w	r4, r4, r3, lsl #16
     64a:	fb00 f707 	mul.w	r7, r0, r7
     64e:	42a7      	cmp	r7, r4
     650:	d90a      	bls.n	668 <__udivmoddi4+0x94>
     652:	eb1c 0404 	adds.w	r4, ip, r4
     656:	f100 33ff 	add.w	r3, r0, #4294967295
     65a:	f080 8109 	bcs.w	870 <__BSS_SRAM_SIZE+0xb0>
     65e:	42a7      	cmp	r7, r4
     660:	f240 8106 	bls.w	870 <__BSS_SRAM_SIZE+0xb0>
     664:	4464      	add	r4, ip
     666:	3802      	subs	r0, #2
     668:	1be4      	subs	r4, r4, r7
     66a:	ea40 4006 	orr.w	r0, r0, r6, lsl #16
     66e:	2100      	movs	r1, #0
     670:	b11d      	cbz	r5, 67a <__udivmoddi4+0xa6>
     672:	40d4      	lsrs	r4, r2
     674:	2300      	movs	r3, #0
     676:	e9c5 4300 	strd	r4, r3, [r5]
     67a:	e8bd 87f0 	ldmia.w	sp!, {r4, r5, r6, r7, r8, r9, sl, pc}
     67e:	428b      	cmp	r3, r1
     680:	d908      	bls.n	694 <__udivmoddi4+0xc0>
     682:	2d00      	cmp	r5, #0
     684:	f000 80ef 	beq.w	866 <__BSS_SRAM_SIZE+0xa6>
     688:	2100      	movs	r1, #0
     68a:	e9c5 0600 	strd	r0, r6, [r5]
     68e:	4608      	mov	r0, r1
     690:	e8bd 87f0 	ldmia.w	sp!, {r4, r5, r6, r7, r8, r9, sl, pc}
     694:	fab3 f183 	clz	r1, r3
     698:	2900      	cmp	r1, #0
     69a:	d149      	bne.n	730 <__udivmoddi4+0x15c>
     69c:	42b3      	cmp	r3, r6
     69e:	d302      	bcc.n	6a6 <__udivmoddi4+0xd2>
     6a0:	4282      	cmp	r2, r0
     6a2:	f200 80ff 	bhi.w	8a4 <__BSS_SRAM_SIZE+0xe4>
     6a6:	1a84      	subs	r4, r0, r2
     6a8:	eb66 0303 	sbc.w	r3, r6, r3
     6ac:	2001      	movs	r0, #1
     6ae:	469e      	mov	lr, r3
     6b0:	2d00      	cmp	r5, #0
     6b2:	d0e2      	beq.n	67a <__udivmoddi4+0xa6>
     6b4:	e9c5 4e00 	strd	r4, lr, [r5]
     6b8:	e7df      	b.n	67a <__udivmoddi4+0xa6>
     6ba:	b902      	cbnz	r2, 6be <__udivmoddi4+0xea>
     6bc:	deff      	udf	#255	; 0xff
     6be:	fab2 f282 	clz	r2, r2
     6c2:	2a00      	cmp	r2, #0
     6c4:	f040 808e 	bne.w	7e4 <__BSS_SRAM_SIZE+0x24>
     6c8:	eba1 060c 	sub.w	r6, r1, ip
     6cc:	ea4f 471c 	mov.w	r7, ip, lsr #16
     6d0:	fa1f f38c 	uxth.w	r3, ip
     6d4:	2101      	movs	r1, #1
     6d6:	fbb6 fef7 	udiv	lr, r6, r7
     6da:	fb07 601e 	mls	r0, r7, lr, r6
     6de:	0c26      	lsrs	r6, r4, #16
     6e0:	ea46 4600 	orr.w	r6, r6, r0, lsl #16
     6e4:	fb03 f00e 	mul.w	r0, r3, lr
     6e8:	42b0      	cmp	r0, r6
     6ea:	d908      	bls.n	6fe <__udivmoddi4+0x12a>
     6ec:	eb1c 0606 	adds.w	r6, ip, r6
     6f0:	f10e 38ff 	add.w	r8, lr, #4294967295
     6f4:	d202      	bcs.n	6fc <__udivmoddi4+0x128>
     6f6:	42b0      	cmp	r0, r6
     6f8:	f200 80d0 	bhi.w	89c <__BSS_SRAM_SIZE+0xdc>
     6fc:	46c6      	mov	lr, r8
     6fe:	1a36      	subs	r6, r6, r0
     700:	b2a4      	uxth	r4, r4
     702:	fbb6 f0f7 	udiv	r0, r6, r7
     706:	fb07 6610 	mls	r6, r7, r0, r6
     70a:	ea44 4406 	orr.w	r4, r4, r6, lsl #16
     70e:	fb00 f303 	mul.w	r3, r0, r3
     712:	42a3      	cmp	r3, r4
     714:	d908      	bls.n	728 <__udivmoddi4+0x154>
     716:	eb1c 0404 	adds.w	r4, ip, r4
     71a:	f100 36ff 	add.w	r6, r0, #4294967295
     71e:	d202      	bcs.n	726 <__udivmoddi4+0x152>
     720:	42a3      	cmp	r3, r4
     722:	f200 80b8 	bhi.w	896 <__BSS_SRAM_SIZE+0xd6>
     726:	4630      	mov	r0, r6
     728:	1ae4      	subs	r4, r4, r3
     72a:	ea40 400e 	orr.w	r0, r0, lr, lsl #16
     72e:	e79f      	b.n	670 <__udivmoddi4+0x9c>
     730:	f1c1 0720 	rsb	r7, r1, #32
     734:	fa22 f407 	lsr.w	r4, r2, r7
     738:	408b      	lsls	r3, r1
     73a:	4323      	orrs	r3, r4
     73c:	fa06 fc01 	lsl.w	ip, r6, r1
     740:	fa26 f407 	lsr.w	r4, r6, r7
     744:	fa20 f607 	lsr.w	r6, r0, r7
     748:	ea46 060c 	orr.w	r6, r6, ip
     74c:	ea4f 4913 	mov.w	r9, r3, lsr #16
     750:	fa00 f801 	lsl.w	r8, r0, r1
     754:	fbb4 fef9 	udiv	lr, r4, r9
     758:	0c30      	lsrs	r0, r6, #16
     75a:	fa1f fc83 	uxth.w	ip, r3
     75e:	fb09 441e 	mls	r4, r9, lr, r4
     762:	ea40 4404 	orr.w	r4, r0, r4, lsl #16
     766:	fb0e f00c 	mul.w	r0, lr, ip
     76a:	42a0      	cmp	r0, r4
     76c:	fa02 f201 	lsl.w	r2, r2, r1
     770:	d90a      	bls.n	788 <__udivmoddi4+0x1b4>
     772:	191c      	adds	r4, r3, r4
     774:	f10e 3aff 	add.w	sl, lr, #4294967295
     778:	f080 808b 	bcs.w	892 <__BSS_SRAM_SIZE+0xd2>
     77c:	42a0      	cmp	r0, r4
     77e:	f240 8088 	bls.w	892 <__BSS_SRAM_SIZE+0xd2>
     782:	f1ae 0e02 	sub.w	lr, lr, #2
     786:	441c      	add	r4, r3
     788:	1a24      	subs	r4, r4, r0
     78a:	b2b6      	uxth	r6, r6
     78c:	fbb4 f0f9 	udiv	r0, r4, r9
     790:	fb09 4410 	mls	r4, r9, r0, r4
     794:	ea46 4404 	orr.w	r4, r6, r4, lsl #16
     798:	fb00 fc0c 	mul.w	ip, r0, ip
     79c:	45a4      	cmp	ip, r4
     79e:	d907      	bls.n	7b0 <__udivmoddi4+0x1dc>
     7a0:	191c      	adds	r4, r3, r4
     7a2:	f100 36ff 	add.w	r6, r0, #4294967295
     7a6:	d270      	bcs.n	88a <__BSS_SRAM_SIZE+0xca>
     7a8:	45a4      	cmp	ip, r4
     7aa:	d96e      	bls.n	88a <__BSS_SRAM_SIZE+0xca>
     7ac:	3802      	subs	r0, #2
     7ae:	441c      	add	r4, r3
     7b0:	ea40 400e 	orr.w	r0, r0, lr, lsl #16
     7b4:	fba0 e602 	umull	lr, r6, r0, r2
     7b8:	eba4 040c 	sub.w	r4, r4, ip
     7bc:	42b4      	cmp	r4, r6
     7be:	46f4      	mov	ip, lr
     7c0:	46b1      	mov	r9, r6
     7c2:	d359      	bcc.n	878 <__BSS_SRAM_SIZE+0xb8>
     7c4:	d056      	beq.n	874 <__BSS_SRAM_SIZE+0xb4>
     7c6:	2d00      	cmp	r5, #0
     7c8:	d06e      	beq.n	8a8 <__BSS_SRAM_SIZE+0xe8>
     7ca:	ebb8 030c 	subs.w	r3, r8, ip
     7ce:	eb64 0409 	sbc.w	r4, r4, r9
     7d2:	40cb      	lsrs	r3, r1
     7d4:	fa04 f707 	lsl.w	r7, r4, r7
     7d8:	431f      	orrs	r7, r3
     7da:	40cc      	lsrs	r4, r1
     7dc:	e9c5 7400 	strd	r7, r4, [r5]
     7e0:	2100      	movs	r1, #0
     7e2:	e74a      	b.n	67a <__udivmoddi4+0xa6>
     7e4:	f1c2 0020 	rsb	r0, r2, #32
     7e8:	fa24 f100 	lsr.w	r1, r4, r0
     7ec:	fa0c fc02 	lsl.w	ip, ip, r2
     7f0:	fa06 f302 	lsl.w	r3, r6, r2
     7f4:	fa26 f000 	lsr.w	r0, r6, r0
     7f8:	ea4f 471c 	mov.w	r7, ip, lsr #16
     7fc:	ea41 0603 	orr.w	r6, r1, r3
     800:	fbb0 f1f7 	udiv	r1, r0, r7
     804:	fa1f f38c 	uxth.w	r3, ip
     808:	fb07 0e11 	mls	lr, r7, r1, r0
     80c:	0c30      	lsrs	r0, r6, #16
     80e:	ea40 400e 	orr.w	r0, r0, lr, lsl #16
     812:	fb01 fe03 	mul.w	lr, r1, r3
     816:	4586      	cmp	lr, r0
     818:	fa04 f402 	lsl.w	r4, r4, r2
     81c:	d908      	bls.n	830 <__BSS_SRAM_SIZE+0x70>
     81e:	eb1c 0000 	adds.w	r0, ip, r0
     822:	f101 38ff 	add.w	r8, r1, #4294967295
     826:	d232      	bcs.n	88e <__BSS_SRAM_SIZE+0xce>
     828:	4586      	cmp	lr, r0
     82a:	d930      	bls.n	88e <__BSS_SRAM_SIZE+0xce>
     82c:	3902      	subs	r1, #2
     82e:	4460      	add	r0, ip
     830:	eba0 000e 	sub.w	r0, r0, lr
     834:	b2b6      	uxth	r6, r6
     836:	fbb0 fef7 	udiv	lr, r0, r7
     83a:	fb07 001e 	mls	r0, r7, lr, r0
     83e:	ea46 4600 	orr.w	r6, r6, r0, lsl #16
     842:	fb0e f003 	mul.w	r0, lr, r3
     846:	42b0      	cmp	r0, r6
     848:	d909      	bls.n	85e <__BSS_SRAM_SIZE+0x9e>
     84a:	eb1c 0606 	adds.w	r6, ip, r6
     84e:	f10e 38ff 	add.w	r8, lr, #4294967295
     852:	d218      	bcs.n	886 <__BSS_SRAM_SIZE+0xc6>
     854:	42b0      	cmp	r0, r6
     856:	d916      	bls.n	886 <__BSS_SRAM_SIZE+0xc6>
     858:	f1ae 0e02 	sub.w	lr, lr, #2
     85c:	4466      	add	r6, ip
     85e:	1a36      	subs	r6, r6, r0
     860:	ea4e 4101 	orr.w	r1, lr, r1, lsl #16
     864:	e737      	b.n	6d6 <__udivmoddi4+0x102>
     866:	4629      	mov	r1, r5
     868:	4628      	mov	r0, r5
     86a:	e706      	b.n	67a <__udivmoddi4+0xa6>
     86c:	4606      	mov	r6, r0
     86e:	e6e4      	b.n	63a <__udivmoddi4+0x66>
     870:	4618      	mov	r0, r3
     872:	e6f9      	b.n	668 <__udivmoddi4+0x94>
     874:	45f0      	cmp	r8, lr
     876:	d2a6      	bcs.n	7c6 <__BSS_SRAM_SIZE+0x6>
     878:	ebbe 0c02 	subs.w	ip, lr, r2
     87c:	eb66 0303 	sbc.w	r3, r6, r3
     880:	3801      	subs	r0, #1
     882:	4699      	mov	r9, r3
     884:	e79f      	b.n	7c6 <__BSS_SRAM_SIZE+0x6>
     886:	46c6      	mov	lr, r8
     888:	e7e9      	b.n	85e <__BSS_SRAM_SIZE+0x9e>
     88a:	4630      	mov	r0, r6
     88c:	e790      	b.n	7b0 <__udivmoddi4+0x1dc>
     88e:	4641      	mov	r1, r8
     890:	e7ce      	b.n	830 <__BSS_SRAM_SIZE+0x70>
     892:	46d6      	mov	lr, sl
     894:	e778      	b.n	788 <__udivmoddi4+0x1b4>
     896:	4464      	add	r4, ip
     898:	3802      	subs	r0, #2
     89a:	e745      	b.n	728 <__udivmoddi4+0x154>
     89c:	f1ae 0e02 	sub.w	lr, lr, #2
     8a0:	4466      	add	r6, ip
     8a2:	e72c      	b.n	6fe <__udivmoddi4+0x12a>
     8a4:	4608      	mov	r0, r1
     8a6:	e703      	b.n	6b0 <__udivmoddi4+0xdc>
     8a8:	4629      	mov	r1, r5
     8aa:	e6e6      	b.n	67a <__udivmoddi4+0xa6>

000008ac <__aeabi_idiv0>:
     8ac:	4770      	bx	lr
     8ae:	bf00      	nop

000008b0 <main>:
     8b0:	b508      	push	{r3, lr}
     8b2:	f000 f801 	bl	8b8 <EcuM_Init>
     8b6:	e7fe      	b.n	8b6 <main+0x6>

000008b8 <EcuM_Init>:
     8b8:	b508      	push	{r3, lr}
     8ba:	4808      	ldr	r0, [pc, #32]	; (8dc <EcuM_Init+0x24>)
     8bc:	f003 feac 	bl	4618 <Mcu_Init>
     8c0:	2000      	movs	r0, #0
     8c2:	f003 fefd 	bl	46c0 <Mcu_InitClock>
     8c6:	2000      	movs	r0, #0
     8c8:	f003 ff1e 	bl	4708 <Mcu_SetMode>
     8cc:	4804      	ldr	r0, [pc, #16]	; (8e0 <EcuM_Init+0x28>)
     8ce:	f004 faa5 	bl	4e1c <Port_Init>
     8d2:	4804      	ldr	r0, [pc, #16]	; (8e4 <EcuM_Init+0x2c>)
     8d4:	f007 fe4c 	bl	8570 <Pwm_Init>
     8d8:	bf00      	nop
     8da:	bd08      	pop	{r3, pc}
     8dc:	0000bfbc 	.word	0x0000bfbc
     8e0:	0000c0dc 	.word	0x0000c0dc
     8e4:	0000c14c 	.word	0x0000c14c

000008e8 <Mcu_schm_read_msr>:
     8e8:	b410      	push	{r4}
     8ea:	f3ef 8310 	mrs	r3, PRIMASK
     8ee:	461c      	mov	r4, r3
     8f0:	4623      	mov	r3, r4
     8f2:	4618      	mov	r0, r3
     8f4:	f85d 4b04 	ldr.w	r4, [sp], #4
     8f8:	4770      	bx	lr

000008fa <Port_schm_read_msr>:
     8fa:	b410      	push	{r4}
     8fc:	f3ef 8310 	mrs	r3, PRIMASK
     900:	461c      	mov	r4, r3
     902:	4623      	mov	r3, r4
     904:	4618      	mov	r0, r3
     906:	f85d 4b04 	ldr.w	r4, [sp], #4
     90a:	4770      	bx	lr

0000090c <Pwm_schm_read_msr>:
     90c:	b410      	push	{r4}
     90e:	f3ef 8310 	mrs	r3, PRIMASK
     912:	461c      	mov	r4, r3
     914:	4623      	mov	r3, r4
     916:	4618      	mov	r0, r3
     918:	f85d 4b04 	ldr.w	r4, [sp], #4
     91c:	4770      	bx	lr
	...

00000920 <init_data_bss>:
     920:	b08a      	sub	sp, #40	; 0x28
     922:	2300      	movs	r3, #0
     924:	9307      	str	r3, [sp, #28]
     926:	2300      	movs	r3, #0
     928:	9306      	str	r3, [sp, #24]
     92a:	2300      	movs	r3, #0
     92c:	9309      	str	r3, [sp, #36]	; 0x24
     92e:	2300      	movs	r3, #0
     930:	9308      	str	r3, [sp, #32]
     932:	4b44      	ldr	r3, [pc, #272]	; (a44 <init_data_bss+0x124>)
     934:	9305      	str	r3, [sp, #20]
     936:	4b44      	ldr	r3, [pc, #272]	; (a48 <init_data_bss+0x128>)
     938:	9304      	str	r3, [sp, #16]
     93a:	9b05      	ldr	r3, [sp, #20]
     93c:	681b      	ldr	r3, [r3, #0]
     93e:	9307      	str	r3, [sp, #28]
     940:	9b05      	ldr	r3, [sp, #20]
     942:	3304      	adds	r3, #4
     944:	9305      	str	r3, [sp, #20]
     946:	9b05      	ldr	r3, [sp, #20]
     948:	9303      	str	r3, [sp, #12]
     94a:	2300      	movs	r3, #0
     94c:	9309      	str	r3, [sp, #36]	; 0x24
     94e:	e03d      	b.n	9cc <init_data_bss+0xac>
     950:	9a09      	ldr	r2, [sp, #36]	; 0x24
     952:	4613      	mov	r3, r2
     954:	005b      	lsls	r3, r3, #1
     956:	4413      	add	r3, r2
     958:	009b      	lsls	r3, r3, #2
     95a:	461a      	mov	r2, r3
     95c:	9b03      	ldr	r3, [sp, #12]
     95e:	4413      	add	r3, r2
     960:	685b      	ldr	r3, [r3, #4]
     962:	9300      	str	r3, [sp, #0]
     964:	9a09      	ldr	r2, [sp, #36]	; 0x24
     966:	4613      	mov	r3, r2
     968:	005b      	lsls	r3, r3, #1
     96a:	4413      	add	r3, r2
     96c:	009b      	lsls	r3, r3, #2
     96e:	461a      	mov	r2, r3
     970:	9b03      	ldr	r3, [sp, #12]
     972:	4413      	add	r3, r2
     974:	681b      	ldr	r3, [r3, #0]
     976:	9301      	str	r3, [sp, #4]
     978:	9a09      	ldr	r2, [sp, #36]	; 0x24
     97a:	4613      	mov	r3, r2
     97c:	005b      	lsls	r3, r3, #1
     97e:	4413      	add	r3, r2
     980:	009b      	lsls	r3, r3, #2
     982:	461a      	mov	r2, r3
     984:	9b03      	ldr	r3, [sp, #12]
     986:	4413      	add	r3, r2
     988:	689b      	ldr	r3, [r3, #8]
     98a:	4619      	mov	r1, r3
     98c:	9a09      	ldr	r2, [sp, #36]	; 0x24
     98e:	4613      	mov	r3, r2
     990:	005b      	lsls	r3, r3, #1
     992:	4413      	add	r3, r2
     994:	009b      	lsls	r3, r3, #2
     996:	461a      	mov	r2, r3
     998:	9b03      	ldr	r3, [sp, #12]
     99a:	4413      	add	r3, r2
     99c:	685b      	ldr	r3, [r3, #4]
     99e:	1acb      	subs	r3, r1, r3
     9a0:	9306      	str	r3, [sp, #24]
     9a2:	2300      	movs	r3, #0
     9a4:	9308      	str	r3, [sp, #32]
     9a6:	e00a      	b.n	9be <init_data_bss+0x9e>
     9a8:	9a00      	ldr	r2, [sp, #0]
     9aa:	9b08      	ldr	r3, [sp, #32]
     9ac:	441a      	add	r2, r3
     9ae:	9901      	ldr	r1, [sp, #4]
     9b0:	9b08      	ldr	r3, [sp, #32]
     9b2:	440b      	add	r3, r1
     9b4:	7812      	ldrb	r2, [r2, #0]
     9b6:	701a      	strb	r2, [r3, #0]
     9b8:	9b08      	ldr	r3, [sp, #32]
     9ba:	3301      	adds	r3, #1
     9bc:	9308      	str	r3, [sp, #32]
     9be:	9a08      	ldr	r2, [sp, #32]
     9c0:	9b06      	ldr	r3, [sp, #24]
     9c2:	429a      	cmp	r2, r3
     9c4:	d3f0      	bcc.n	9a8 <init_data_bss+0x88>
     9c6:	9b09      	ldr	r3, [sp, #36]	; 0x24
     9c8:	3301      	adds	r3, #1
     9ca:	9309      	str	r3, [sp, #36]	; 0x24
     9cc:	9a09      	ldr	r2, [sp, #36]	; 0x24
     9ce:	9b07      	ldr	r3, [sp, #28]
     9d0:	429a      	cmp	r2, r3
     9d2:	d3bd      	bcc.n	950 <init_data_bss+0x30>
     9d4:	9b04      	ldr	r3, [sp, #16]
     9d6:	681b      	ldr	r3, [r3, #0]
     9d8:	9307      	str	r3, [sp, #28]
     9da:	9b04      	ldr	r3, [sp, #16]
     9dc:	3304      	adds	r3, #4
     9de:	9304      	str	r3, [sp, #16]
     9e0:	9b04      	ldr	r3, [sp, #16]
     9e2:	9302      	str	r3, [sp, #8]
     9e4:	2300      	movs	r3, #0
     9e6:	9309      	str	r3, [sp, #36]	; 0x24
     9e8:	e024      	b.n	a34 <init_data_bss+0x114>
     9ea:	9b09      	ldr	r3, [sp, #36]	; 0x24
     9ec:	00db      	lsls	r3, r3, #3
     9ee:	9a02      	ldr	r2, [sp, #8]
     9f0:	4413      	add	r3, r2
     9f2:	681b      	ldr	r3, [r3, #0]
     9f4:	9301      	str	r3, [sp, #4]
     9f6:	9b09      	ldr	r3, [sp, #36]	; 0x24
     9f8:	00db      	lsls	r3, r3, #3
     9fa:	9a02      	ldr	r2, [sp, #8]
     9fc:	4413      	add	r3, r2
     9fe:	685b      	ldr	r3, [r3, #4]
     a00:	4619      	mov	r1, r3
     a02:	9b09      	ldr	r3, [sp, #36]	; 0x24
     a04:	00db      	lsls	r3, r3, #3
     a06:	9a02      	ldr	r2, [sp, #8]
     a08:	4413      	add	r3, r2
     a0a:	681b      	ldr	r3, [r3, #0]
     a0c:	1acb      	subs	r3, r1, r3
     a0e:	9306      	str	r3, [sp, #24]
     a10:	2300      	movs	r3, #0
     a12:	9308      	str	r3, [sp, #32]
     a14:	e007      	b.n	a26 <init_data_bss+0x106>
     a16:	9a01      	ldr	r2, [sp, #4]
     a18:	9b08      	ldr	r3, [sp, #32]
     a1a:	4413      	add	r3, r2
     a1c:	2200      	movs	r2, #0
     a1e:	701a      	strb	r2, [r3, #0]
     a20:	9b08      	ldr	r3, [sp, #32]
     a22:	3301      	adds	r3, #1
     a24:	9308      	str	r3, [sp, #32]
     a26:	9a08      	ldr	r2, [sp, #32]
     a28:	9b06      	ldr	r3, [sp, #24]
     a2a:	429a      	cmp	r2, r3
     a2c:	d3f3      	bcc.n	a16 <init_data_bss+0xf6>
     a2e:	9b09      	ldr	r3, [sp, #36]	; 0x24
     a30:	3301      	adds	r3, #1
     a32:	9309      	str	r3, [sp, #36]	; 0x24
     a34:	9a09      	ldr	r2, [sp, #36]	; 0x24
     a36:	9b07      	ldr	r3, [sp, #28]
     a38:	429a      	cmp	r2, r3
     a3a:	d3d6      	bcc.n	9ea <init_data_bss+0xca>
     a3c:	bf00      	nop
     a3e:	bf00      	nop
     a40:	b00a      	add	sp, #40	; 0x28
     a42:	4770      	bx	lr
     a44:	0000c15c 	.word	0x0000c15c
     a48:	0000c178 	.word	0x0000c178

00000a4c <sys_m4_cache_init>:
     a4c:	b084      	sub	sp, #16
     a4e:	4603      	mov	r3, r0
     a50:	f88d 3007 	strb.w	r3, [sp, #7]
     a54:	2300      	movs	r3, #0
     a56:	f88d 300f 	strb.w	r3, [sp, #15]
     a5a:	f89d 3007 	ldrb.w	r3, [sp, #7]
     a5e:	2b00      	cmp	r3, #0
     a60:	d118      	bne.n	a94 <sys_m4_cache_init+0x48>
     a62:	4b10      	ldr	r3, [pc, #64]	; (aa4 <sys_m4_cache_init+0x58>)
     a64:	f04f 62a0 	mov.w	r2, #83886080	; 0x5000000
     a68:	601a      	str	r2, [r3, #0]
     a6a:	4b0e      	ldr	r3, [pc, #56]	; (aa4 <sys_m4_cache_init+0x58>)
     a6c:	681b      	ldr	r3, [r3, #0]
     a6e:	4a0d      	ldr	r2, [pc, #52]	; (aa4 <sys_m4_cache_init+0x58>)
     a70:	f043 4300 	orr.w	r3, r3, #2147483648	; 0x80000000
     a74:	6013      	str	r3, [r2, #0]
     a76:	bf00      	nop
     a78:	4b0a      	ldr	r3, [pc, #40]	; (aa4 <sys_m4_cache_init+0x58>)
     a7a:	681b      	ldr	r3, [r3, #0]
     a7c:	f003 4300 	and.w	r3, r3, #2147483648	; 0x80000000
     a80:	f1b3 4f00 	cmp.w	r3, #2147483648	; 0x80000000
     a84:	d0f8      	beq.n	a78 <sys_m4_cache_init+0x2c>
     a86:	4b07      	ldr	r3, [pc, #28]	; (aa4 <sys_m4_cache_init+0x58>)
     a88:	681b      	ldr	r3, [r3, #0]
     a8a:	4a06      	ldr	r2, [pc, #24]	; (aa4 <sys_m4_cache_init+0x58>)
     a8c:	f043 0301 	orr.w	r3, r3, #1
     a90:	6013      	str	r3, [r2, #0]
     a92:	e002      	b.n	a9a <sys_m4_cache_init+0x4e>
     a94:	2301      	movs	r3, #1
     a96:	f88d 300f 	strb.w	r3, [sp, #15]
     a9a:	f89d 300f 	ldrb.w	r3, [sp, #15]
     a9e:	4618      	mov	r0, r3
     aa0:	b004      	add	sp, #16
     aa2:	4770      	bx	lr
     aa4:	e0082000 	.word	0xe0082000

00000aa8 <startup_go_to_user_mode>:
     aa8:	bf00      	nop
     aaa:	4770      	bx	lr

00000aac <Sys_GetCoreID>:
     aac:	2300      	movs	r3, #0
     aae:	4618      	mov	r0, r3
     ab0:	4770      	bx	lr

00000ab2 <HardFault_Handler>:
     ab2:	e7fe      	b.n	ab2 <HardFault_Handler>

00000ab4 <MemManage_Handler>:
     ab4:	e7fe      	b.n	ab4 <MemManage_Handler>

00000ab6 <BusFault_Handler>:
     ab6:	e7fe      	b.n	ab6 <BusFault_Handler>

00000ab8 <UsageFault_Handler>:
     ab8:	e7fe      	b.n	ab8 <UsageFault_Handler>

00000aba <SVC_Handler>:
     aba:	e7fe      	b.n	aba <SVC_Handler>

00000abc <DebugMon_Handler>:
     abc:	e7fe      	b.n	abc <DebugMon_Handler>

00000abe <PendSV_Handler>:
     abe:	e7fe      	b.n	abe <PendSV_Handler>

00000ac0 <SysTick_Handler>:
     ac0:	e7fe      	b.n	ac0 <SysTick_Handler>

00000ac2 <undefined_handler>:
     ac2:	e7fe      	b.n	ac2 <undefined_handler>

00000ac4 <OsIf_Timer_Dummy_GetCounter>:
     ac4:	2300      	movs	r3, #0
     ac6:	4618      	mov	r0, r3
     ac8:	4770      	bx	lr

00000aca <OsIf_Timer_Dummy_GetElapsed>:
     aca:	b082      	sub	sp, #8
     acc:	9001      	str	r0, [sp, #4]
     ace:	2301      	movs	r3, #1
     ad0:	4618      	mov	r0, r3
     ad2:	b002      	add	sp, #8
     ad4:	4770      	bx	lr

00000ad6 <OsIf_Timer_Dummy_SetTimerFrequency>:
     ad6:	b082      	sub	sp, #8
     ad8:	9001      	str	r0, [sp, #4]
     ada:	bf00      	nop
     adc:	b002      	add	sp, #8
     ade:	4770      	bx	lr

00000ae0 <OsIf_Timer_Dummy_MicrosToTicks>:
     ae0:	b082      	sub	sp, #8
     ae2:	9001      	str	r0, [sp, #4]
     ae4:	9b01      	ldr	r3, [sp, #4]
     ae6:	4618      	mov	r0, r3
     ae8:	b002      	add	sp, #8
     aea:	4770      	bx	lr

00000aec <OsIf_Init>:
     aec:	b500      	push	{lr}
     aee:	b083      	sub	sp, #12
     af0:	9001      	str	r0, [sp, #4]
     af2:	f000 f86d 	bl	bd0 <OsIf_Timer_System_Init>
     af6:	bf00      	nop
     af8:	b003      	add	sp, #12
     afa:	f85d fb04 	ldr.w	pc, [sp], #4

00000afe <OsIf_GetCounter>:
     afe:	b500      	push	{lr}
     b00:	b085      	sub	sp, #20
     b02:	9001      	str	r0, [sp, #4]
     b04:	2300      	movs	r3, #0
     b06:	9303      	str	r3, [sp, #12]
     b08:	9b01      	ldr	r3, [sp, #4]
     b0a:	2b00      	cmp	r3, #0
     b0c:	d003      	beq.n	b16 <OsIf_GetCounter+0x18>
     b0e:	9b01      	ldr	r3, [sp, #4]
     b10:	2b01      	cmp	r3, #1
     b12:	d004      	beq.n	b1e <OsIf_GetCounter+0x20>
     b14:	e007      	b.n	b26 <OsIf_GetCounter+0x28>
     b16:	f7ff ffd5 	bl	ac4 <OsIf_Timer_Dummy_GetCounter>
     b1a:	9003      	str	r0, [sp, #12]
     b1c:	e003      	b.n	b26 <OsIf_GetCounter+0x28>
     b1e:	f000 f873 	bl	c08 <OsIf_Timer_System_GetCounter>
     b22:	9003      	str	r0, [sp, #12]
     b24:	bf00      	nop
     b26:	9b03      	ldr	r3, [sp, #12]
     b28:	4618      	mov	r0, r3
     b2a:	b005      	add	sp, #20
     b2c:	f85d fb04 	ldr.w	pc, [sp], #4

00000b30 <OsIf_GetElapsed>:
     b30:	b500      	push	{lr}
     b32:	b085      	sub	sp, #20
     b34:	9001      	str	r0, [sp, #4]
     b36:	9100      	str	r1, [sp, #0]
     b38:	2300      	movs	r3, #0
     b3a:	9303      	str	r3, [sp, #12]
     b3c:	9b00      	ldr	r3, [sp, #0]
     b3e:	2b00      	cmp	r3, #0
     b40:	d003      	beq.n	b4a <OsIf_GetElapsed+0x1a>
     b42:	9b00      	ldr	r3, [sp, #0]
     b44:	2b01      	cmp	r3, #1
     b46:	d005      	beq.n	b54 <OsIf_GetElapsed+0x24>
     b48:	e009      	b.n	b5e <OsIf_GetElapsed+0x2e>
     b4a:	9801      	ldr	r0, [sp, #4]
     b4c:	f7ff ffbd 	bl	aca <OsIf_Timer_Dummy_GetElapsed>
     b50:	9003      	str	r0, [sp, #12]
     b52:	e004      	b.n	b5e <OsIf_GetElapsed+0x2e>
     b54:	9801      	ldr	r0, [sp, #4]
     b56:	f000 f865 	bl	c24 <OsIf_Timer_System_GetElapsed>
     b5a:	9003      	str	r0, [sp, #12]
     b5c:	bf00      	nop
     b5e:	9b03      	ldr	r3, [sp, #12]
     b60:	4618      	mov	r0, r3
     b62:	b005      	add	sp, #20
     b64:	f85d fb04 	ldr.w	pc, [sp], #4

00000b68 <OsIf_SetTimerFrequency>:
     b68:	b500      	push	{lr}
     b6a:	b083      	sub	sp, #12
     b6c:	9001      	str	r0, [sp, #4]
     b6e:	9100      	str	r1, [sp, #0]
     b70:	9b00      	ldr	r3, [sp, #0]
     b72:	2b00      	cmp	r3, #0
     b74:	d003      	beq.n	b7e <OsIf_SetTimerFrequency+0x16>
     b76:	9b00      	ldr	r3, [sp, #0]
     b78:	2b01      	cmp	r3, #1
     b7a:	d004      	beq.n	b86 <OsIf_SetTimerFrequency+0x1e>
     b7c:	e007      	b.n	b8e <OsIf_SetTimerFrequency+0x26>
     b7e:	9801      	ldr	r0, [sp, #4]
     b80:	f7ff ffa9 	bl	ad6 <OsIf_Timer_Dummy_SetTimerFrequency>
     b84:	e003      	b.n	b8e <OsIf_SetTimerFrequency+0x26>
     b86:	9801      	ldr	r0, [sp, #4]
     b88:	f000 f85c 	bl	c44 <OsIf_Timer_System_SetTimerFrequency>
     b8c:	bf00      	nop
     b8e:	bf00      	nop
     b90:	b003      	add	sp, #12
     b92:	f85d fb04 	ldr.w	pc, [sp], #4

00000b96 <OsIf_MicrosToTicks>:
     b96:	b500      	push	{lr}
     b98:	b085      	sub	sp, #20
     b9a:	9001      	str	r0, [sp, #4]
     b9c:	9100      	str	r1, [sp, #0]
     b9e:	2300      	movs	r3, #0
     ba0:	9303      	str	r3, [sp, #12]
     ba2:	9b00      	ldr	r3, [sp, #0]
     ba4:	2b00      	cmp	r3, #0
     ba6:	d003      	beq.n	bb0 <OsIf_MicrosToTicks+0x1a>
     ba8:	9b00      	ldr	r3, [sp, #0]
     baa:	2b01      	cmp	r3, #1
     bac:	d005      	beq.n	bba <OsIf_MicrosToTicks+0x24>
     bae:	e009      	b.n	bc4 <OsIf_MicrosToTicks+0x2e>
     bb0:	9801      	ldr	r0, [sp, #4]
     bb2:	f7ff ff95 	bl	ae0 <OsIf_Timer_Dummy_MicrosToTicks>
     bb6:	9003      	str	r0, [sp, #12]
     bb8:	e004      	b.n	bc4 <OsIf_MicrosToTicks+0x2e>
     bba:	9801      	ldr	r0, [sp, #4]
     bbc:	f000 f850 	bl	c60 <OsIf_Timer_System_MicrosToTicks>
     bc0:	9003      	str	r0, [sp, #12]
     bc2:	bf00      	nop
     bc4:	9b03      	ldr	r3, [sp, #12]
     bc6:	4618      	mov	r0, r3
     bc8:	b005      	add	sp, #20
     bca:	f85d fb04 	ldr.w	pc, [sp], #4
	...

00000bd0 <OsIf_Timer_System_Init>:
     bd0:	b500      	push	{lr}
     bd2:	b083      	sub	sp, #12
     bd4:	2300      	movs	r3, #0
     bd6:	9301      	str	r3, [sp, #4]
     bd8:	4a09      	ldr	r2, [pc, #36]	; (c00 <OsIf_Timer_System_Init+0x30>)
     bda:	9b01      	ldr	r3, [sp, #4]
     bdc:	f852 3023 	ldr.w	r3, [r2, r3, lsl #2]
     be0:	685a      	ldr	r2, [r3, #4]
     be2:	4908      	ldr	r1, [pc, #32]	; (c04 <OsIf_Timer_System_Init+0x34>)
     be4:	9b01      	ldr	r3, [sp, #4]
     be6:	f841 2023 	str.w	r2, [r1, r3, lsl #2]
     bea:	4a06      	ldr	r2, [pc, #24]	; (c04 <OsIf_Timer_System_Init+0x34>)
     bec:	9b01      	ldr	r3, [sp, #4]
     bee:	f852 3023 	ldr.w	r3, [r2, r3, lsl #2]
     bf2:	4618      	mov	r0, r3
     bf4:	f000 f868 	bl	cc8 <OsIf_Timer_System_Internal_Init>
     bf8:	bf00      	nop
     bfa:	b003      	add	sp, #12
     bfc:	f85d fb04 	ldr.w	pc, [sp], #4
     c00:	0000bfe0 	.word	0x0000bfe0
     c04:	1fff8b40 	.word	0x1fff8b40

00000c08 <OsIf_Timer_System_GetCounter>:
     c08:	b500      	push	{lr}
     c0a:	b083      	sub	sp, #12
     c0c:	2300      	movs	r3, #0
     c0e:	9301      	str	r3, [sp, #4]
     c10:	2300      	movs	r3, #0
     c12:	9300      	str	r3, [sp, #0]
     c14:	f000 f86c 	bl	cf0 <OsIf_Timer_System_Internal_GetCounter>
     c18:	9001      	str	r0, [sp, #4]
     c1a:	9b01      	ldr	r3, [sp, #4]
     c1c:	4618      	mov	r0, r3
     c1e:	b003      	add	sp, #12
     c20:	f85d fb04 	ldr.w	pc, [sp], #4

00000c24 <OsIf_Timer_System_GetElapsed>:
     c24:	b500      	push	{lr}
     c26:	b085      	sub	sp, #20
     c28:	9001      	str	r0, [sp, #4]
     c2a:	2300      	movs	r3, #0
     c2c:	9303      	str	r3, [sp, #12]
     c2e:	2300      	movs	r3, #0
     c30:	9302      	str	r3, [sp, #8]
     c32:	9801      	ldr	r0, [sp, #4]
     c34:	f000 f864 	bl	d00 <OsIf_Timer_System_Internal_GetElapsed>
     c38:	9003      	str	r0, [sp, #12]
     c3a:	9b03      	ldr	r3, [sp, #12]
     c3c:	4618      	mov	r0, r3
     c3e:	b005      	add	sp, #20
     c40:	f85d fb04 	ldr.w	pc, [sp], #4

00000c44 <OsIf_Timer_System_SetTimerFrequency>:
     c44:	b084      	sub	sp, #16
     c46:	9001      	str	r0, [sp, #4]
     c48:	2300      	movs	r3, #0
     c4a:	9303      	str	r3, [sp, #12]
     c4c:	4903      	ldr	r1, [pc, #12]	; (c5c <OsIf_Timer_System_SetTimerFrequency+0x18>)
     c4e:	9b03      	ldr	r3, [sp, #12]
     c50:	9a01      	ldr	r2, [sp, #4]
     c52:	f841 2023 	str.w	r2, [r1, r3, lsl #2]
     c56:	bf00      	nop
     c58:	b004      	add	sp, #16
     c5a:	4770      	bx	lr
     c5c:	1fff8b40 	.word	0x1fff8b40

00000c60 <OsIf_Timer_System_MicrosToTicks>:
     c60:	b5f0      	push	{r4, r5, r6, r7, lr}
     c62:	b087      	sub	sp, #28
     c64:	9001      	str	r0, [sp, #4]
     c66:	2100      	movs	r1, #0
     c68:	9105      	str	r1, [sp, #20]
     c6a:	2100      	movs	r1, #0
     c6c:	9104      	str	r1, [sp, #16]
     c6e:	9901      	ldr	r1, [sp, #4]
     c70:	2000      	movs	r0, #0
     c72:	460e      	mov	r6, r1
     c74:	4607      	mov	r7, r0
     c76:	4812      	ldr	r0, [pc, #72]	; (cc0 <OsIf_Timer_System_MicrosToTicks+0x60>)
     c78:	9904      	ldr	r1, [sp, #16]
     c7a:	f850 1021 	ldr.w	r1, [r0, r1, lsl #2]
     c7e:	2000      	movs	r0, #0
     c80:	460c      	mov	r4, r1
     c82:	4605      	mov	r5, r0
     c84:	fb04 f007 	mul.w	r0, r4, r7
     c88:	fb06 f105 	mul.w	r1, r6, r5
     c8c:	4401      	add	r1, r0
     c8e:	fba6 2304 	umull	r2, r3, r6, r4
     c92:	4419      	add	r1, r3
     c94:	460b      	mov	r3, r1
     c96:	e9cd 2302 	strd	r2, r3, [sp, #8]
     c9a:	e9cd 2302 	strd	r2, r3, [sp, #8]
     c9e:	e9dd 0102 	ldrd	r0, r1, [sp, #8]
     ca2:	4a08      	ldr	r2, [pc, #32]	; (cc4 <OsIf_Timer_System_MicrosToTicks+0x64>)
     ca4:	f04f 0300 	mov.w	r3, #0
     ca8:	f7ff fc7c 	bl	5a4 <__aeabi_uldivmod>
     cac:	4602      	mov	r2, r0
     cae:	460b      	mov	r3, r1
     cb0:	e9cd 2302 	strd	r2, r3, [sp, #8]
     cb4:	9b02      	ldr	r3, [sp, #8]
     cb6:	9305      	str	r3, [sp, #20]
     cb8:	9b05      	ldr	r3, [sp, #20]
     cba:	4618      	mov	r0, r3
     cbc:	b007      	add	sp, #28
     cbe:	bdf0      	pop	{r4, r5, r6, r7, pc}
     cc0:	1fff8b40 	.word	0x1fff8b40
     cc4:	000f4240 	.word	0x000f4240

00000cc8 <OsIf_Timer_System_Internal_Init>:
     cc8:	b082      	sub	sp, #8
     cca:	9001      	str	r0, [sp, #4]
     ccc:	4b07      	ldr	r3, [pc, #28]	; (cec <OsIf_Timer_System_Internal_Init+0x24>)
     cce:	2200      	movs	r2, #0
     cd0:	601a      	str	r2, [r3, #0]
     cd2:	4b06      	ldr	r3, [pc, #24]	; (cec <OsIf_Timer_System_Internal_Init+0x24>)
     cd4:	f06f 427f 	mvn.w	r2, #4278190080	; 0xff000000
     cd8:	605a      	str	r2, [r3, #4]
     cda:	4b04      	ldr	r3, [pc, #16]	; (cec <OsIf_Timer_System_Internal_Init+0x24>)
     cdc:	2200      	movs	r2, #0
     cde:	609a      	str	r2, [r3, #8]
     ce0:	4b02      	ldr	r3, [pc, #8]	; (cec <OsIf_Timer_System_Internal_Init+0x24>)
     ce2:	2205      	movs	r2, #5
     ce4:	601a      	str	r2, [r3, #0]
     ce6:	bf00      	nop
     ce8:	b002      	add	sp, #8
     cea:	4770      	bx	lr
     cec:	e000e010 	.word	0xe000e010

00000cf0 <OsIf_Timer_System_Internal_GetCounter>:
     cf0:	4b02      	ldr	r3, [pc, #8]	; (cfc <OsIf_Timer_System_Internal_GetCounter+0xc>)
     cf2:	689b      	ldr	r3, [r3, #8]
     cf4:	f023 437f 	bic.w	r3, r3, #4278190080	; 0xff000000
     cf8:	4618      	mov	r0, r3
     cfa:	4770      	bx	lr
     cfc:	e000e010 	.word	0xe000e010

00000d00 <OsIf_Timer_System_Internal_GetElapsed>:
     d00:	b084      	sub	sp, #16
     d02:	9001      	str	r0, [sp, #4]
     d04:	4b10      	ldr	r3, [pc, #64]	; (d48 <OsIf_Timer_System_Internal_GetElapsed+0x48>)
     d06:	689b      	ldr	r3, [r3, #8]
     d08:	f023 437f 	bic.w	r3, r3, #4278190080	; 0xff000000
     d0c:	9302      	str	r3, [sp, #8]
     d0e:	2300      	movs	r3, #0
     d10:	9303      	str	r3, [sp, #12]
     d12:	9b01      	ldr	r3, [sp, #4]
     d14:	681b      	ldr	r3, [r3, #0]
     d16:	9a02      	ldr	r2, [sp, #8]
     d18:	429a      	cmp	r2, r3
     d1a:	d909      	bls.n	d30 <OsIf_Timer_System_Internal_GetElapsed+0x30>
     d1c:	9b01      	ldr	r3, [sp, #4]
     d1e:	681a      	ldr	r2, [r3, #0]
     d20:	9b02      	ldr	r3, [sp, #8]
     d22:	1ad3      	subs	r3, r2, r3
     d24:	f103 13ff 	add.w	r3, r3, #16711935	; 0xff00ff
     d28:	f503 437f 	add.w	r3, r3, #65280	; 0xff00
     d2c:	9303      	str	r3, [sp, #12]
     d2e:	e004      	b.n	d3a <OsIf_Timer_System_Internal_GetElapsed+0x3a>
     d30:	9b01      	ldr	r3, [sp, #4]
     d32:	681a      	ldr	r2, [r3, #0]
     d34:	9b02      	ldr	r3, [sp, #8]
     d36:	1ad3      	subs	r3, r2, r3
     d38:	9303      	str	r3, [sp, #12]
     d3a:	9b01      	ldr	r3, [sp, #4]
     d3c:	9a02      	ldr	r2, [sp, #8]
     d3e:	601a      	str	r2, [r3, #0]
     d40:	9b03      	ldr	r3, [sp, #12]
     d42:	4618      	mov	r0, r3
     d44:	b004      	add	sp, #16
     d46:	4770      	bx	lr
     d48:	e000e010 	.word	0xe000e010

00000d4c <Clock_Ip_NotificatonsEmptyCallback>:
     d4c:	b082      	sub	sp, #8
     d4e:	9001      	str	r0, [sp, #4]
     d50:	9100      	str	r1, [sp, #0]
     d52:	bf00      	nop
     d54:	b002      	add	sp, #8
     d56:	4770      	bx	lr

00000d58 <Clock_Ip_UpdateDriverContext>:
     d58:	b500      	push	{lr}
     d5a:	b085      	sub	sp, #20
     d5c:	9001      	str	r0, [sp, #4]
     d5e:	4b24      	ldr	r3, [pc, #144]	; (df0 <Clock_Ip_UpdateDriverContext+0x98>)
     d60:	2201      	movs	r2, #1
     d62:	701a      	strb	r2, [r3, #0]
     d64:	4b23      	ldr	r3, [pc, #140]	; (df4 <Clock_Ip_UpdateDriverContext+0x9c>)
     d66:	681b      	ldr	r3, [r3, #0]
     d68:	2102      	movs	r1, #2
     d6a:	4618      	mov	r0, r3
     d6c:	f003 fc32 	bl	45d4 <Clock_Ip_Command>
     d70:	2300      	movs	r3, #0
     d72:	f88d 300f 	strb.w	r3, [sp, #15]
     d76:	e015      	b.n	da4 <Clock_Ip_UpdateDriverContext+0x4c>
     d78:	f89d 300f 	ldrb.w	r3, [sp, #15]
     d7c:	9a01      	ldr	r2, [sp, #4]
     d7e:	334a      	adds	r3, #74	; 0x4a
     d80:	00db      	lsls	r3, r3, #3
     d82:	4413      	add	r3, r2
     d84:	6858      	ldr	r0, [r3, #4]
     d86:	f89d 300f 	ldrb.w	r3, [sp, #15]
     d8a:	9a01      	ldr	r2, [sp, #4]
     d8c:	334a      	adds	r3, #74	; 0x4a
     d8e:	00db      	lsls	r3, r3, #3
     d90:	4413      	add	r3, r2
     d92:	689b      	ldr	r3, [r3, #8]
     d94:	4619      	mov	r1, r3
     d96:	f001 fadc 	bl	2352 <Clock_Ip_SetExternalSignalFrequency>
     d9a:	f89d 300f 	ldrb.w	r3, [sp, #15]
     d9e:	3301      	adds	r3, #1
     da0:	f88d 300f 	strb.w	r3, [sp, #15]
     da4:	9b01      	ldr	r3, [sp, #4]
     da6:	7bdb      	ldrb	r3, [r3, #15]
     da8:	f89d 200f 	ldrb.w	r2, [sp, #15]
     dac:	429a      	cmp	r2, r3
     dae:	d3e3      	bcc.n	d78 <Clock_Ip_UpdateDriverContext+0x20>
     db0:	f000 f824 	bl	dfc <Clock_Ip_CallEmptyCallbacks>
     db4:	2301      	movs	r3, #1
     db6:	f88d 300f 	strb.w	r3, [sp, #15]
     dba:	e00e      	b.n	dda <Clock_Ip_UpdateDriverContext+0x82>
     dbc:	f89d 200f 	ldrb.w	r2, [sp, #15]
     dc0:	9b01      	ldr	r3, [sp, #4]
     dc2:	327e      	adds	r2, #126	; 0x7e
     dc4:	f853 3032 	ldr.w	r3, [r3, r2, lsl #3]
     dc8:	490b      	ldr	r1, [pc, #44]	; (df8 <Clock_Ip_UpdateDriverContext+0xa0>)
     dca:	f89d 200f 	ldrb.w	r2, [sp, #15]
     dce:	54ca      	strb	r2, [r1, r3]
     dd0:	f89d 300f 	ldrb.w	r3, [sp, #15]
     dd4:	3301      	adds	r3, #1
     dd6:	f88d 300f 	strb.w	r3, [sp, #15]
     dda:	9b01      	ldr	r3, [sp, #4]
     ddc:	7cdb      	ldrb	r3, [r3, #19]
     dde:	f89d 200f 	ldrb.w	r2, [sp, #15]
     de2:	429a      	cmp	r2, r3
     de4:	d3ea      	bcc.n	dbc <Clock_Ip_UpdateDriverContext+0x64>
     de6:	bf00      	nop
     de8:	bf00      	nop
     dea:	b005      	add	sp, #20
     dec:	f85d fb04 	ldr.w	pc, [sp], #4
     df0:	1fff8b10 	.word	0x1fff8b10
     df4:	1fff8b44 	.word	0x1fff8b44
     df8:	1fff8b50 	.word	0x1fff8b50

00000dfc <Clock_Ip_CallEmptyCallbacks>:
     dfc:	b508      	push	{r3, lr}
     dfe:	4b23      	ldr	r3, [pc, #140]	; (e8c <Clock_Ip_CallEmptyCallbacks+0x90>)
     e00:	781b      	ldrb	r3, [r3, #0]
     e02:	f083 0301 	eor.w	r3, r3, #1
     e06:	b2db      	uxtb	r3, r3
     e08:	2b00      	cmp	r3, #0
     e0a:	d03d      	beq.n	e88 <Clock_Ip_CallEmptyCallbacks+0x8c>
     e0c:	4b1f      	ldr	r3, [pc, #124]	; (e8c <Clock_Ip_CallEmptyCallbacks+0x90>)
     e0e:	2201      	movs	r2, #1
     e10:	701a      	strb	r2, [r3, #0]
     e12:	4b1f      	ldr	r3, [pc, #124]	; (e90 <Clock_Ip_CallEmptyCallbacks+0x94>)
     e14:	685b      	ldr	r3, [r3, #4]
     e16:	2100      	movs	r1, #0
     e18:	2000      	movs	r0, #0
     e1a:	4798      	blx	r3
     e1c:	4b1c      	ldr	r3, [pc, #112]	; (e90 <Clock_Ip_CallEmptyCallbacks+0x94>)
     e1e:	689b      	ldr	r3, [r3, #8]
     e20:	2057      	movs	r0, #87	; 0x57
     e22:	4798      	blx	r3
     e24:	4b1b      	ldr	r3, [pc, #108]	; (e94 <Clock_Ip_CallEmptyCallbacks+0x98>)
     e26:	681b      	ldr	r3, [r3, #0]
     e28:	2000      	movs	r0, #0
     e2a:	4798      	blx	r3
     e2c:	4b1a      	ldr	r3, [pc, #104]	; (e98 <Clock_Ip_CallEmptyCallbacks+0x9c>)
     e2e:	681b      	ldr	r3, [r3, #0]
     e30:	2000      	movs	r0, #0
     e32:	4798      	blx	r3
     e34:	4b19      	ldr	r3, [pc, #100]	; (e9c <Clock_Ip_CallEmptyCallbacks+0xa0>)
     e36:	681b      	ldr	r3, [r3, #0]
     e38:	2000      	movs	r0, #0
     e3a:	4798      	blx	r3
     e3c:	4b18      	ldr	r3, [pc, #96]	; (ea0 <Clock_Ip_CallEmptyCallbacks+0xa4>)
     e3e:	685b      	ldr	r3, [r3, #4]
     e40:	2000      	movs	r0, #0
     e42:	4798      	blx	r3
     e44:	4b16      	ldr	r3, [pc, #88]	; (ea0 <Clock_Ip_CallEmptyCallbacks+0xa4>)
     e46:	689b      	ldr	r3, [r3, #8]
     e48:	2057      	movs	r0, #87	; 0x57
     e4a:	4798      	blx	r3
     e4c:	4b15      	ldr	r3, [pc, #84]	; (ea4 <Clock_Ip_CallEmptyCallbacks+0xa8>)
     e4e:	681b      	ldr	r3, [r3, #0]
     e50:	2000      	movs	r0, #0
     e52:	4798      	blx	r3
     e54:	4b13      	ldr	r3, [pc, #76]	; (ea4 <Clock_Ip_CallEmptyCallbacks+0xa8>)
     e56:	685b      	ldr	r3, [r3, #4]
     e58:	2100      	movs	r1, #0
     e5a:	2057      	movs	r0, #87	; 0x57
     e5c:	4798      	blx	r3
     e5e:	4b12      	ldr	r3, [pc, #72]	; (ea8 <Clock_Ip_CallEmptyCallbacks+0xac>)
     e60:	681b      	ldr	r3, [r3, #0]
     e62:	2000      	movs	r0, #0
     e64:	4798      	blx	r3
     e66:	4b11      	ldr	r3, [pc, #68]	; (eac <Clock_Ip_CallEmptyCallbacks+0xb0>)
     e68:	685b      	ldr	r3, [r3, #4]
     e6a:	2000      	movs	r0, #0
     e6c:	4798      	blx	r3
     e6e:	4b0f      	ldr	r3, [pc, #60]	; (eac <Clock_Ip_CallEmptyCallbacks+0xb0>)
     e70:	689b      	ldr	r3, [r3, #8]
     e72:	2057      	movs	r0, #87	; 0x57
     e74:	4798      	blx	r3
     e76:	4b0e      	ldr	r3, [pc, #56]	; (eb0 <Clock_Ip_CallEmptyCallbacks+0xb4>)
     e78:	685b      	ldr	r3, [r3, #4]
     e7a:	2000      	movs	r0, #0
     e7c:	4798      	blx	r3
     e7e:	4b0d      	ldr	r3, [pc, #52]	; (eb4 <Clock_Ip_CallEmptyCallbacks+0xb8>)
     e80:	681b      	ldr	r3, [r3, #0]
     e82:	2100      	movs	r1, #0
     e84:	2000      	movs	r0, #0
     e86:	4798      	blx	r3
     e88:	bf00      	nop
     e8a:	bd08      	pop	{r3, pc}
     e8c:	1fff8b48 	.word	0x1fff8b48
     e90:	0000b9f0 	.word	0x0000b9f0
     e94:	0000b904 	.word	0x0000b904
     e98:	0000b940 	.word	0x0000b940
     e9c:	0000b948 	.word	0x0000b948
     ea0:	0000b970 	.word	0x0000b970
     ea4:	0000b97c 	.word	0x0000b97c
     ea8:	0000b9b4 	.word	0x0000b9b4
     eac:	0000ba00 	.word	0x0000ba00
     eb0:	0000ba2c 	.word	0x0000ba2c
     eb4:	0000ba28 	.word	0x0000ba28

00000eb8 <Clock_Ip_ResetClockConfiguration>:
     eb8:	b500      	push	{lr}
     eba:	b085      	sub	sp, #20
     ebc:	9001      	str	r0, [sp, #4]
     ebe:	9b01      	ldr	r3, [sp, #4]
     ec0:	7adb      	ldrb	r3, [r3, #11]
     ec2:	9303      	str	r3, [sp, #12]
     ec4:	e01f      	b.n	f06 <Clock_Ip_ResetClockConfiguration+0x4e>
     ec6:	9b03      	ldr	r3, [sp, #12]
     ec8:	1e5a      	subs	r2, r3, #1
     eca:	9b01      	ldr	r3, [sp, #4]
     ecc:	320d      	adds	r2, #13
     ece:	f853 2032 	ldr.w	r2, [r3, r2, lsl #3]
     ed2:	495a      	ldr	r1, [pc, #360]	; (103c <Clock_Ip_ResetClockConfiguration+0x184>)
     ed4:	4613      	mov	r3, r2
     ed6:	00db      	lsls	r3, r3, #3
     ed8:	4413      	add	r3, r2
     eda:	440b      	add	r3, r1
     edc:	3301      	adds	r3, #1
     ede:	781b      	ldrb	r3, [r3, #0]
     ee0:	461a      	mov	r2, r3
     ee2:	4b57      	ldr	r3, [pc, #348]	; (1040 <Clock_Ip_ResetClockConfiguration+0x188>)
     ee4:	5c9b      	ldrb	r3, [r3, r2]
     ee6:	9302      	str	r3, [sp, #8]
     ee8:	4a56      	ldr	r2, [pc, #344]	; (1044 <Clock_Ip_ResetClockConfiguration+0x18c>)
     eea:	9b02      	ldr	r3, [sp, #8]
     eec:	f852 3033 	ldr.w	r3, [r2, r3, lsl #3]
     ef0:	9a03      	ldr	r2, [sp, #12]
     ef2:	3a01      	subs	r2, #1
     ef4:	320d      	adds	r2, #13
     ef6:	00d2      	lsls	r2, r2, #3
     ef8:	9901      	ldr	r1, [sp, #4]
     efa:	440a      	add	r2, r1
     efc:	4610      	mov	r0, r2
     efe:	4798      	blx	r3
     f00:	9b03      	ldr	r3, [sp, #12]
     f02:	3b01      	subs	r3, #1
     f04:	9303      	str	r3, [sp, #12]
     f06:	9b03      	ldr	r3, [sp, #12]
     f08:	2b00      	cmp	r3, #0
     f0a:	d1dc      	bne.n	ec6 <Clock_Ip_ResetClockConfiguration+0xe>
     f0c:	9b01      	ldr	r3, [sp, #4]
     f0e:	7b9b      	ldrb	r3, [r3, #14]
     f10:	9303      	str	r3, [sp, #12]
     f12:	e026      	b.n	f62 <Clock_Ip_ResetClockConfiguration+0xaa>
     f14:	9b03      	ldr	r3, [sp, #12]
     f16:	3b01      	subs	r3, #1
     f18:	9a01      	ldr	r2, [sp, #4]
     f1a:	3324      	adds	r3, #36	; 0x24
     f1c:	011b      	lsls	r3, r3, #4
     f1e:	4413      	add	r3, r2
     f20:	3304      	adds	r3, #4
     f22:	681a      	ldr	r2, [r3, #0]
     f24:	4945      	ldr	r1, [pc, #276]	; (103c <Clock_Ip_ResetClockConfiguration+0x184>)
     f26:	4613      	mov	r3, r2
     f28:	00db      	lsls	r3, r3, #3
     f2a:	4413      	add	r3, r2
     f2c:	440b      	add	r3, r1
     f2e:	3301      	adds	r3, #1
     f30:	781b      	ldrb	r3, [r3, #0]
     f32:	461a      	mov	r2, r3
     f34:	4b44      	ldr	r3, [pc, #272]	; (1048 <Clock_Ip_ResetClockConfiguration+0x190>)
     f36:	5c9b      	ldrb	r3, [r3, r2]
     f38:	9302      	str	r3, [sp, #8]
     f3a:	4944      	ldr	r1, [pc, #272]	; (104c <Clock_Ip_ResetClockConfiguration+0x194>)
     f3c:	9a02      	ldr	r2, [sp, #8]
     f3e:	4613      	mov	r3, r2
     f40:	005b      	lsls	r3, r3, #1
     f42:	4413      	add	r3, r2
     f44:	009b      	lsls	r3, r3, #2
     f46:	440b      	add	r3, r1
     f48:	681b      	ldr	r3, [r3, #0]
     f4a:	9a03      	ldr	r2, [sp, #12]
     f4c:	3a01      	subs	r2, #1
     f4e:	3224      	adds	r2, #36	; 0x24
     f50:	0112      	lsls	r2, r2, #4
     f52:	9901      	ldr	r1, [sp, #4]
     f54:	440a      	add	r2, r1
     f56:	3204      	adds	r2, #4
     f58:	4610      	mov	r0, r2
     f5a:	4798      	blx	r3
     f5c:	9b03      	ldr	r3, [sp, #12]
     f5e:	3b01      	subs	r3, #1
     f60:	9303      	str	r3, [sp, #12]
     f62:	9b03      	ldr	r3, [sp, #12]
     f64:	2b00      	cmp	r3, #0
     f66:	d1d5      	bne.n	f14 <Clock_Ip_ResetClockConfiguration+0x5c>
     f68:	9b01      	ldr	r3, [sp, #4]
     f6a:	7a9b      	ldrb	r3, [r3, #10]
     f6c:	9303      	str	r3, [sp, #12]
     f6e:	e02a      	b.n	fc6 <Clock_Ip_ResetClockConfiguration+0x10e>
     f70:	9b03      	ldr	r3, [sp, #12]
     f72:	1e5a      	subs	r2, r3, #1
     f74:	9901      	ldr	r1, [sp, #4]
     f76:	4613      	mov	r3, r2
     f78:	009b      	lsls	r3, r3, #2
     f7a:	4413      	add	r3, r2
     f7c:	00db      	lsls	r3, r3, #3
     f7e:	440b      	add	r3, r1
     f80:	3340      	adds	r3, #64	; 0x40
     f82:	681a      	ldr	r2, [r3, #0]
     f84:	492d      	ldr	r1, [pc, #180]	; (103c <Clock_Ip_ResetClockConfiguration+0x184>)
     f86:	4613      	mov	r3, r2
     f88:	00db      	lsls	r3, r3, #3
     f8a:	4413      	add	r3, r2
     f8c:	440b      	add	r3, r1
     f8e:	3301      	adds	r3, #1
     f90:	781b      	ldrb	r3, [r3, #0]
     f92:	461a      	mov	r2, r3
     f94:	4b2e      	ldr	r3, [pc, #184]	; (1050 <Clock_Ip_ResetClockConfiguration+0x198>)
     f96:	5c9b      	ldrb	r3, [r3, r2]
     f98:	9302      	str	r3, [sp, #8]
     f9a:	492e      	ldr	r1, [pc, #184]	; (1054 <Clock_Ip_ResetClockConfiguration+0x19c>)
     f9c:	9a02      	ldr	r2, [sp, #8]
     f9e:	4613      	mov	r3, r2
     fa0:	009b      	lsls	r3, r3, #2
     fa2:	4413      	add	r3, r2
     fa4:	009b      	lsls	r3, r3, #2
     fa6:	440b      	add	r3, r1
     fa8:	6819      	ldr	r1, [r3, #0]
     faa:	9b03      	ldr	r3, [sp, #12]
     fac:	1e5a      	subs	r2, r3, #1
     fae:	4613      	mov	r3, r2
     fb0:	009b      	lsls	r3, r3, #2
     fb2:	4413      	add	r3, r2
     fb4:	00db      	lsls	r3, r3, #3
     fb6:	3340      	adds	r3, #64	; 0x40
     fb8:	9a01      	ldr	r2, [sp, #4]
     fba:	4413      	add	r3, r2
     fbc:	4618      	mov	r0, r3
     fbe:	4788      	blx	r1
     fc0:	9b03      	ldr	r3, [sp, #12]
     fc2:	3b01      	subs	r3, #1
     fc4:	9303      	str	r3, [sp, #12]
     fc6:	9b03      	ldr	r3, [sp, #12]
     fc8:	2b00      	cmp	r3, #0
     fca:	d1d1      	bne.n	f70 <Clock_Ip_ResetClockConfiguration+0xb8>
     fcc:	9b01      	ldr	r3, [sp, #4]
     fce:	7a5b      	ldrb	r3, [r3, #9]
     fd0:	9303      	str	r3, [sp, #12]
     fd2:	e02b      	b.n	102c <Clock_Ip_ResetClockConfiguration+0x174>
     fd4:	9b03      	ldr	r3, [sp, #12]
     fd6:	1e5a      	subs	r2, r3, #1
     fd8:	9901      	ldr	r1, [sp, #4]
     fda:	4613      	mov	r3, r2
     fdc:	009b      	lsls	r3, r3, #2
     fde:	4413      	add	r3, r2
     fe0:	009b      	lsls	r3, r3, #2
     fe2:	440b      	add	r3, r1
     fe4:	332c      	adds	r3, #44	; 0x2c
     fe6:	681a      	ldr	r2, [r3, #0]
     fe8:	4914      	ldr	r1, [pc, #80]	; (103c <Clock_Ip_ResetClockConfiguration+0x184>)
     fea:	4613      	mov	r3, r2
     fec:	00db      	lsls	r3, r3, #3
     fee:	4413      	add	r3, r2
     ff0:	440b      	add	r3, r1
     ff2:	3301      	adds	r3, #1
     ff4:	781b      	ldrb	r3, [r3, #0]
     ff6:	461a      	mov	r2, r3
     ff8:	4b17      	ldr	r3, [pc, #92]	; (1058 <Clock_Ip_ResetClockConfiguration+0x1a0>)
     ffa:	5c9b      	ldrb	r3, [r3, r2]
     ffc:	9302      	str	r3, [sp, #8]
     ffe:	4917      	ldr	r1, [pc, #92]	; (105c <Clock_Ip_ResetClockConfiguration+0x1a4>)
    1000:	9a02      	ldr	r2, [sp, #8]
    1002:	4613      	mov	r3, r2
    1004:	009b      	lsls	r3, r3, #2
    1006:	4413      	add	r3, r2
    1008:	009b      	lsls	r3, r3, #2
    100a:	440b      	add	r3, r1
    100c:	6819      	ldr	r1, [r3, #0]
    100e:	9b03      	ldr	r3, [sp, #12]
    1010:	1e5a      	subs	r2, r3, #1
    1012:	4613      	mov	r3, r2
    1014:	009b      	lsls	r3, r3, #2
    1016:	4413      	add	r3, r2
    1018:	009b      	lsls	r3, r3, #2
    101a:	3328      	adds	r3, #40	; 0x28
    101c:	9a01      	ldr	r2, [sp, #4]
    101e:	4413      	add	r3, r2
    1020:	3304      	adds	r3, #4
    1022:	4618      	mov	r0, r3
    1024:	4788      	blx	r1
    1026:	9b03      	ldr	r3, [sp, #12]
    1028:	3b01      	subs	r3, #1
    102a:	9303      	str	r3, [sp, #12]
    102c:	9b03      	ldr	r3, [sp, #12]
    102e:	2b00      	cmp	r3, #0
    1030:	d1d0      	bne.n	fd4 <Clock_Ip_ResetClockConfiguration+0x11c>
    1032:	bf00      	nop
    1034:	bf00      	nop
    1036:	b005      	add	sp, #20
    1038:	f85d fb04 	ldr.w	pc, [sp], #4
    103c:	0000b3f4 	.word	0x0000b3f4
    1040:	0000b3c4 	.word	0x0000b3c4
    1044:	0000ba2c 	.word	0x0000ba2c
    1048:	0000b3a4 	.word	0x0000b3a4
    104c:	0000b970 	.word	0x0000b970
    1050:	0000b3b4 	.word	0x0000b3b4
    1054:	0000ba00 	.word	0x0000ba00
    1058:	0000b374 	.word	0x0000b374
    105c:	0000b948 	.word	0x0000b948

00001060 <Clock_Ip_Init>:
    1060:	b500      	push	{lr}
    1062:	b085      	sub	sp, #20
    1064:	9001      	str	r0, [sp, #4]
    1066:	2301      	movs	r3, #1
    1068:	9303      	str	r3, [sp, #12]
    106a:	9801      	ldr	r0, [sp, #4]
    106c:	f000 f818 	bl	10a0 <Clock_Ip_InitClock>
    1070:	4b0a      	ldr	r3, [pc, #40]	; (109c <Clock_Ip_Init+0x3c>)
    1072:	781b      	ldrb	r3, [r3, #0]
    1074:	2b00      	cmp	r3, #0
    1076:	d00a      	beq.n	108e <Clock_Ip_Init+0x2e>
    1078:	f000 fb74 	bl	1764 <Clock_Ip_GetPllStatus>
    107c:	9002      	str	r0, [sp, #8]
    107e:	9b02      	ldr	r3, [sp, #8]
    1080:	2b00      	cmp	r3, #0
    1082:	d106      	bne.n	1092 <Clock_Ip_Init+0x32>
    1084:	f000 fbf2 	bl	186c <Clock_Ip_DistributePll>
    1088:	2300      	movs	r3, #0
    108a:	9303      	str	r3, [sp, #12]
    108c:	e001      	b.n	1092 <Clock_Ip_Init+0x32>
    108e:	2300      	movs	r3, #0
    1090:	9303      	str	r3, [sp, #12]
    1092:	9b03      	ldr	r3, [sp, #12]
    1094:	4618      	mov	r0, r3
    1096:	b005      	add	sp, #20
    1098:	f85d fb04 	ldr.w	pc, [sp], #4
    109c:	1fff8b4c 	.word	0x1fff8b4c

000010a0 <Clock_Ip_InitClock>:
    10a0:	b510      	push	{r4, lr}
    10a2:	b084      	sub	sp, #16
    10a4:	9001      	str	r0, [sp, #4]
    10a6:	4a9f      	ldr	r2, [pc, #636]	; (1324 <Clock_Ip_InitClock+0x284>)
    10a8:	9b01      	ldr	r3, [sp, #4]
    10aa:	6013      	str	r3, [r2, #0]
    10ac:	2101      	movs	r1, #1
    10ae:	9801      	ldr	r0, [sp, #4]
    10b0:	f003 fa90 	bl	45d4 <Clock_Ip_Command>
    10b4:	4b9b      	ldr	r3, [pc, #620]	; (1324 <Clock_Ip_InitClock+0x284>)
    10b6:	681b      	ldr	r3, [r3, #0]
    10b8:	2b00      	cmp	r3, #0
    10ba:	d030      	beq.n	111e <Clock_Ip_InitClock+0x7e>
    10bc:	2300      	movs	r3, #0
    10be:	9303      	str	r3, [sp, #12]
    10c0:	e027      	b.n	1112 <Clock_Ip_InitClock+0x72>
    10c2:	9901      	ldr	r1, [sp, #4]
    10c4:	9a03      	ldr	r2, [sp, #12]
    10c6:	4613      	mov	r3, r2
    10c8:	009b      	lsls	r3, r3, #2
    10ca:	4413      	add	r3, r2
    10cc:	009b      	lsls	r3, r3, #2
    10ce:	440b      	add	r3, r1
    10d0:	f503 7374 	add.w	r3, r3, #976	; 0x3d0
    10d4:	681a      	ldr	r2, [r3, #0]
    10d6:	4994      	ldr	r1, [pc, #592]	; (1328 <Clock_Ip_InitClock+0x288>)
    10d8:	4613      	mov	r3, r2
    10da:	00db      	lsls	r3, r3, #3
    10dc:	4413      	add	r3, r2
    10de:	440b      	add	r3, r1
    10e0:	3301      	adds	r3, #1
    10e2:	781b      	ldrb	r3, [r3, #0]
    10e4:	461a      	mov	r2, r3
    10e6:	4b91      	ldr	r3, [pc, #580]	; (132c <Clock_Ip_InitClock+0x28c>)
    10e8:	5c9b      	ldrb	r3, [r3, r2]
    10ea:	9302      	str	r3, [sp, #8]
    10ec:	4a90      	ldr	r2, [pc, #576]	; (1330 <Clock_Ip_InitClock+0x290>)
    10ee:	9b02      	ldr	r3, [sp, #8]
    10f0:	011b      	lsls	r3, r3, #4
    10f2:	4413      	add	r3, r2
    10f4:	6819      	ldr	r1, [r3, #0]
    10f6:	9a03      	ldr	r2, [sp, #12]
    10f8:	4613      	mov	r3, r2
    10fa:	009b      	lsls	r3, r3, #2
    10fc:	4413      	add	r3, r2
    10fe:	009b      	lsls	r3, r3, #2
    1100:	f503 7374 	add.w	r3, r3, #976	; 0x3d0
    1104:	9a01      	ldr	r2, [sp, #4]
    1106:	4413      	add	r3, r2
    1108:	4618      	mov	r0, r3
    110a:	4788      	blx	r1
    110c:	9b03      	ldr	r3, [sp, #12]
    110e:	3301      	adds	r3, #1
    1110:	9303      	str	r3, [sp, #12]
    1112:	9b01      	ldr	r3, [sp, #4]
    1114:	7c9b      	ldrb	r3, [r3, #18]
    1116:	461a      	mov	r2, r3
    1118:	9b03      	ldr	r3, [sp, #12]
    111a:	4293      	cmp	r3, r2
    111c:	d3d1      	bcc.n	10c2 <Clock_Ip_InitClock+0x22>
    111e:	9801      	ldr	r0, [sp, #4]
    1120:	f7ff feca 	bl	eb8 <Clock_Ip_ResetClockConfiguration>
    1124:	2300      	movs	r3, #0
    1126:	9303      	str	r3, [sp, #12]
    1128:	e029      	b.n	117e <Clock_Ip_InitClock+0xde>
    112a:	9901      	ldr	r1, [sp, #4]
    112c:	9a03      	ldr	r2, [sp, #12]
    112e:	4613      	mov	r3, r2
    1130:	005b      	lsls	r3, r3, #1
    1132:	4413      	add	r3, r2
    1134:	009b      	lsls	r3, r3, #2
    1136:	440b      	add	r3, r1
    1138:	3314      	adds	r3, #20
    113a:	681a      	ldr	r2, [r3, #0]
    113c:	497a      	ldr	r1, [pc, #488]	; (1328 <Clock_Ip_InitClock+0x288>)
    113e:	4613      	mov	r3, r2
    1140:	00db      	lsls	r3, r3, #3
    1142:	4413      	add	r3, r2
    1144:	440b      	add	r3, r1
    1146:	3301      	adds	r3, #1
    1148:	781b      	ldrb	r3, [r3, #0]
    114a:	461a      	mov	r2, r3
    114c:	4b79      	ldr	r3, [pc, #484]	; (1334 <Clock_Ip_InitClock+0x294>)
    114e:	5c9b      	ldrb	r3, [r3, r2]
    1150:	9302      	str	r3, [sp, #8]
    1152:	4979      	ldr	r1, [pc, #484]	; (1338 <Clock_Ip_InitClock+0x298>)
    1154:	9a02      	ldr	r2, [sp, #8]
    1156:	4613      	mov	r3, r2
    1158:	005b      	lsls	r3, r3, #1
    115a:	4413      	add	r3, r2
    115c:	009b      	lsls	r3, r3, #2
    115e:	440b      	add	r3, r1
    1160:	6819      	ldr	r1, [r3, #0]
    1162:	9a03      	ldr	r2, [sp, #12]
    1164:	4613      	mov	r3, r2
    1166:	005b      	lsls	r3, r3, #1
    1168:	4413      	add	r3, r2
    116a:	009b      	lsls	r3, r3, #2
    116c:	3310      	adds	r3, #16
    116e:	9a01      	ldr	r2, [sp, #4]
    1170:	4413      	add	r3, r2
    1172:	3304      	adds	r3, #4
    1174:	4618      	mov	r0, r3
    1176:	4788      	blx	r1
    1178:	9b03      	ldr	r3, [sp, #12]
    117a:	3301      	adds	r3, #1
    117c:	9303      	str	r3, [sp, #12]
    117e:	9b01      	ldr	r3, [sp, #4]
    1180:	7a1b      	ldrb	r3, [r3, #8]
    1182:	461a      	mov	r2, r3
    1184:	9b03      	ldr	r3, [sp, #12]
    1186:	4293      	cmp	r3, r2
    1188:	d3cf      	bcc.n	112a <Clock_Ip_InitClock+0x8a>
    118a:	2300      	movs	r3, #0
    118c:	9303      	str	r3, [sp, #12]
    118e:	e02a      	b.n	11e6 <Clock_Ip_InitClock+0x146>
    1190:	9901      	ldr	r1, [sp, #4]
    1192:	9a03      	ldr	r2, [sp, #12]
    1194:	4613      	mov	r3, r2
    1196:	009b      	lsls	r3, r3, #2
    1198:	4413      	add	r3, r2
    119a:	009b      	lsls	r3, r3, #2
    119c:	440b      	add	r3, r1
    119e:	332c      	adds	r3, #44	; 0x2c
    11a0:	681a      	ldr	r2, [r3, #0]
    11a2:	4961      	ldr	r1, [pc, #388]	; (1328 <Clock_Ip_InitClock+0x288>)
    11a4:	4613      	mov	r3, r2
    11a6:	00db      	lsls	r3, r3, #3
    11a8:	4413      	add	r3, r2
    11aa:	440b      	add	r3, r1
    11ac:	3301      	adds	r3, #1
    11ae:	781b      	ldrb	r3, [r3, #0]
    11b0:	461a      	mov	r2, r3
    11b2:	4b62      	ldr	r3, [pc, #392]	; (133c <Clock_Ip_InitClock+0x29c>)
    11b4:	5c9b      	ldrb	r3, [r3, r2]
    11b6:	9302      	str	r3, [sp, #8]
    11b8:	4961      	ldr	r1, [pc, #388]	; (1340 <Clock_Ip_InitClock+0x2a0>)
    11ba:	9a02      	ldr	r2, [sp, #8]
    11bc:	4613      	mov	r3, r2
    11be:	009b      	lsls	r3, r3, #2
    11c0:	4413      	add	r3, r2
    11c2:	009b      	lsls	r3, r3, #2
    11c4:	440b      	add	r3, r1
    11c6:	3304      	adds	r3, #4
    11c8:	6819      	ldr	r1, [r3, #0]
    11ca:	9a03      	ldr	r2, [sp, #12]
    11cc:	4613      	mov	r3, r2
    11ce:	009b      	lsls	r3, r3, #2
    11d0:	4413      	add	r3, r2
    11d2:	009b      	lsls	r3, r3, #2
    11d4:	3328      	adds	r3, #40	; 0x28
    11d6:	9a01      	ldr	r2, [sp, #4]
    11d8:	4413      	add	r3, r2
    11da:	3304      	adds	r3, #4
    11dc:	4618      	mov	r0, r3
    11de:	4788      	blx	r1
    11e0:	9b03      	ldr	r3, [sp, #12]
    11e2:	3301      	adds	r3, #1
    11e4:	9303      	str	r3, [sp, #12]
    11e6:	9b01      	ldr	r3, [sp, #4]
    11e8:	7a5b      	ldrb	r3, [r3, #9]
    11ea:	461a      	mov	r2, r3
    11ec:	9b03      	ldr	r3, [sp, #12]
    11ee:	4293      	cmp	r3, r2
    11f0:	d3ce      	bcc.n	1190 <Clock_Ip_InitClock+0xf0>
    11f2:	9801      	ldr	r0, [sp, #4]
    11f4:	f7ff fdb0 	bl	d58 <Clock_Ip_UpdateDriverContext>
    11f8:	2300      	movs	r3, #0
    11fa:	9303      	str	r3, [sp, #12]
    11fc:	e028      	b.n	1250 <Clock_Ip_InitClock+0x1b0>
    11fe:	9901      	ldr	r1, [sp, #4]
    1200:	9a03      	ldr	r2, [sp, #12]
    1202:	4613      	mov	r3, r2
    1204:	009b      	lsls	r3, r3, #2
    1206:	4413      	add	r3, r2
    1208:	009b      	lsls	r3, r3, #2
    120a:	440b      	add	r3, r1
    120c:	f503 736f 	add.w	r3, r3, #956	; 0x3bc
    1210:	681a      	ldr	r2, [r3, #0]
    1212:	4945      	ldr	r1, [pc, #276]	; (1328 <Clock_Ip_InitClock+0x288>)
    1214:	4613      	mov	r3, r2
    1216:	00db      	lsls	r3, r3, #3
    1218:	4413      	add	r3, r2
    121a:	440b      	add	r3, r1
    121c:	3301      	adds	r3, #1
    121e:	781b      	ldrb	r3, [r3, #0]
    1220:	461a      	mov	r2, r3
    1222:	4b48      	ldr	r3, [pc, #288]	; (1344 <Clock_Ip_InitClock+0x2a4>)
    1224:	5c9b      	ldrb	r3, [r3, r2]
    1226:	9302      	str	r3, [sp, #8]
    1228:	4a47      	ldr	r2, [pc, #284]	; (1348 <Clock_Ip_InitClock+0x2a8>)
    122a:	9b02      	ldr	r3, [sp, #8]
    122c:	f852 4023 	ldr.w	r4, [r2, r3, lsl #2]
    1230:	9a03      	ldr	r2, [sp, #12]
    1232:	4613      	mov	r3, r2
    1234:	009b      	lsls	r3, r3, #2
    1236:	4413      	add	r3, r2
    1238:	009b      	lsls	r3, r3, #2
    123a:	f503 736e 	add.w	r3, r3, #952	; 0x3b8
    123e:	9a01      	ldr	r2, [sp, #4]
    1240:	4413      	add	r3, r2
    1242:	3304      	adds	r3, #4
    1244:	9903      	ldr	r1, [sp, #12]
    1246:	4618      	mov	r0, r3
    1248:	47a0      	blx	r4
    124a:	9b03      	ldr	r3, [sp, #12]
    124c:	3301      	adds	r3, #1
    124e:	9303      	str	r3, [sp, #12]
    1250:	9b01      	ldr	r3, [sp, #4]
    1252:	7c5b      	ldrb	r3, [r3, #17]
    1254:	461a      	mov	r2, r3
    1256:	9b03      	ldr	r3, [sp, #12]
    1258:	4293      	cmp	r3, r2
    125a:	d3d0      	bcc.n	11fe <Clock_Ip_InitClock+0x15e>
    125c:	2300      	movs	r3, #0
    125e:	9303      	str	r3, [sp, #12]
    1260:	e026      	b.n	12b0 <Clock_Ip_InitClock+0x210>
    1262:	9901      	ldr	r1, [sp, #4]
    1264:	9a03      	ldr	r2, [sp, #12]
    1266:	4613      	mov	r3, r2
    1268:	005b      	lsls	r3, r3, #1
    126a:	4413      	add	r3, r2
    126c:	009b      	lsls	r3, r3, #2
    126e:	440b      	add	r3, r1
    1270:	f503 730e 	add.w	r3, r3, #568	; 0x238
    1274:	681a      	ldr	r2, [r3, #0]
    1276:	492c      	ldr	r1, [pc, #176]	; (1328 <Clock_Ip_InitClock+0x288>)
    1278:	4613      	mov	r3, r2
    127a:	00db      	lsls	r3, r3, #3
    127c:	4413      	add	r3, r2
    127e:	440b      	add	r3, r1
    1280:	3301      	adds	r3, #1
    1282:	781b      	ldrb	r3, [r3, #0]
    1284:	461a      	mov	r2, r3
    1286:	4b31      	ldr	r3, [pc, #196]	; (134c <Clock_Ip_InitClock+0x2ac>)
    1288:	5c9b      	ldrb	r3, [r3, r2]
    128a:	9302      	str	r3, [sp, #8]
    128c:	4a30      	ldr	r2, [pc, #192]	; (1350 <Clock_Ip_InitClock+0x2b0>)
    128e:	9b02      	ldr	r3, [sp, #8]
    1290:	f852 1033 	ldr.w	r1, [r2, r3, lsl #3]
    1294:	9a03      	ldr	r2, [sp, #12]
    1296:	4613      	mov	r3, r2
    1298:	005b      	lsls	r3, r3, #1
    129a:	4413      	add	r3, r2
    129c:	009b      	lsls	r3, r3, #2
    129e:	f503 730e 	add.w	r3, r3, #568	; 0x238
    12a2:	9a01      	ldr	r2, [sp, #4]
    12a4:	4413      	add	r3, r2
    12a6:	4618      	mov	r0, r3
    12a8:	4788      	blx	r1
    12aa:	9b03      	ldr	r3, [sp, #12]
    12ac:	3301      	adds	r3, #1
    12ae:	9303      	str	r3, [sp, #12]
    12b0:	9b01      	ldr	r3, [sp, #4]
    12b2:	7b5b      	ldrb	r3, [r3, #13]
    12b4:	461a      	mov	r2, r3
    12b6:	9b03      	ldr	r3, [sp, #12]
    12b8:	4293      	cmp	r3, r2
    12ba:	d3d2      	bcc.n	1262 <Clock_Ip_InitClock+0x1c2>
    12bc:	2300      	movs	r3, #0
    12be:	9303      	str	r3, [sp, #12]
    12c0:	e026      	b.n	1310 <Clock_Ip_InitClock+0x270>
    12c2:	9901      	ldr	r1, [sp, #4]
    12c4:	9a03      	ldr	r2, [sp, #12]
    12c6:	4613      	mov	r3, r2
    12c8:	005b      	lsls	r3, r3, #1
    12ca:	4413      	add	r3, r2
    12cc:	009b      	lsls	r3, r3, #2
    12ce:	440b      	add	r3, r1
    12d0:	f503 73a4 	add.w	r3, r3, #328	; 0x148
    12d4:	681a      	ldr	r2, [r3, #0]
    12d6:	4914      	ldr	r1, [pc, #80]	; (1328 <Clock_Ip_InitClock+0x288>)
    12d8:	4613      	mov	r3, r2
    12da:	00db      	lsls	r3, r3, #3
    12dc:	4413      	add	r3, r2
    12de:	440b      	add	r3, r1
    12e0:	3301      	adds	r3, #1
    12e2:	781b      	ldrb	r3, [r3, #0]
    12e4:	461a      	mov	r2, r3
    12e6:	4b1b      	ldr	r3, [pc, #108]	; (1354 <Clock_Ip_InitClock+0x2b4>)
    12e8:	5c9b      	ldrb	r3, [r3, r2]
    12ea:	9302      	str	r3, [sp, #8]
    12ec:	4a1a      	ldr	r2, [pc, #104]	; (1358 <Clock_Ip_InitClock+0x2b8>)
    12ee:	9b02      	ldr	r3, [sp, #8]
    12f0:	f852 1023 	ldr.w	r1, [r2, r3, lsl #2]
    12f4:	9a03      	ldr	r2, [sp, #12]
    12f6:	4613      	mov	r3, r2
    12f8:	005b      	lsls	r3, r3, #1
    12fa:	4413      	add	r3, r2
    12fc:	009b      	lsls	r3, r3, #2
    12fe:	f503 73a4 	add.w	r3, r3, #328	; 0x148
    1302:	9a01      	ldr	r2, [sp, #4]
    1304:	4413      	add	r3, r2
    1306:	4618      	mov	r0, r3
    1308:	4788      	blx	r1
    130a:	9b03      	ldr	r3, [sp, #12]
    130c:	3301      	adds	r3, #1
    130e:	9303      	str	r3, [sp, #12]
    1310:	9b01      	ldr	r3, [sp, #4]
    1312:	7b1b      	ldrb	r3, [r3, #12]
    1314:	461a      	mov	r2, r3
    1316:	9b03      	ldr	r3, [sp, #12]
    1318:	4293      	cmp	r3, r2
    131a:	d3d2      	bcc.n	12c2 <Clock_Ip_InitClock+0x222>
    131c:	2300      	movs	r3, #0
    131e:	9303      	str	r3, [sp, #12]
    1320:	e044      	b.n	13ac <Clock_Ip_InitClock+0x30c>
    1322:	bf00      	nop
    1324:	1fff8b44 	.word	0x1fff8b44
    1328:	0000b3f4 	.word	0x0000b3f4
    132c:	0000b3e4 	.word	0x0000b3e4
    1330:	0000b9f0 	.word	0x0000b9f0
    1334:	0000b384 	.word	0x0000b384
    1338:	0000b9b4 	.word	0x0000b9b4
    133c:	0000b374 	.word	0x0000b374
    1340:	0000b948 	.word	0x0000b948
    1344:	0000b3d4 	.word	0x0000b3d4
    1348:	0000ba28 	.word	0x0000ba28
    134c:	0000b364 	.word	0x0000b364
    1350:	0000b940 	.word	0x0000b940
    1354:	0000b354 	.word	0x0000b354
    1358:	0000b904 	.word	0x0000b904
    135c:	9901      	ldr	r1, [sp, #4]
    135e:	9a03      	ldr	r2, [sp, #12]
    1360:	4613      	mov	r3, r2
    1362:	005b      	lsls	r3, r3, #1
    1364:	4413      	add	r3, r2
    1366:	009b      	lsls	r3, r3, #2
    1368:	440b      	add	r3, r1
    136a:	f503 730e 	add.w	r3, r3, #568	; 0x238
    136e:	681a      	ldr	r2, [r3, #0]
    1370:	49ac      	ldr	r1, [pc, #688]	; (1624 <Clock_Ip_InitClock+0x584>)
    1372:	4613      	mov	r3, r2
    1374:	00db      	lsls	r3, r3, #3
    1376:	4413      	add	r3, r2
    1378:	440b      	add	r3, r1
    137a:	3301      	adds	r3, #1
    137c:	781b      	ldrb	r3, [r3, #0]
    137e:	461a      	mov	r2, r3
    1380:	4ba9      	ldr	r3, [pc, #676]	; (1628 <Clock_Ip_InitClock+0x588>)
    1382:	5c9b      	ldrb	r3, [r3, r2]
    1384:	9302      	str	r3, [sp, #8]
    1386:	4aa9      	ldr	r2, [pc, #676]	; (162c <Clock_Ip_InitClock+0x58c>)
    1388:	9b02      	ldr	r3, [sp, #8]
    138a:	00db      	lsls	r3, r3, #3
    138c:	4413      	add	r3, r2
    138e:	6859      	ldr	r1, [r3, #4]
    1390:	9a03      	ldr	r2, [sp, #12]
    1392:	4613      	mov	r3, r2
    1394:	005b      	lsls	r3, r3, #1
    1396:	4413      	add	r3, r2
    1398:	009b      	lsls	r3, r3, #2
    139a:	f503 730e 	add.w	r3, r3, #568	; 0x238
    139e:	9a01      	ldr	r2, [sp, #4]
    13a0:	4413      	add	r3, r2
    13a2:	4618      	mov	r0, r3
    13a4:	4788      	blx	r1
    13a6:	9b03      	ldr	r3, [sp, #12]
    13a8:	3301      	adds	r3, #1
    13aa:	9303      	str	r3, [sp, #12]
    13ac:	9b01      	ldr	r3, [sp, #4]
    13ae:	7b5b      	ldrb	r3, [r3, #13]
    13b0:	461a      	mov	r2, r3
    13b2:	9b03      	ldr	r3, [sp, #12]
    13b4:	4293      	cmp	r3, r2
    13b6:	d3d1      	bcc.n	135c <Clock_Ip_InitClock+0x2bc>
    13b8:	2300      	movs	r3, #0
    13ba:	9303      	str	r3, [sp, #12]
    13bc:	e029      	b.n	1412 <Clock_Ip_InitClock+0x372>
    13be:	9901      	ldr	r1, [sp, #4]
    13c0:	9a03      	ldr	r2, [sp, #12]
    13c2:	4613      	mov	r3, r2
    13c4:	009b      	lsls	r3, r3, #2
    13c6:	4413      	add	r3, r2
    13c8:	00db      	lsls	r3, r3, #3
    13ca:	440b      	add	r3, r1
    13cc:	3340      	adds	r3, #64	; 0x40
    13ce:	681a      	ldr	r2, [r3, #0]
    13d0:	4994      	ldr	r1, [pc, #592]	; (1624 <Clock_Ip_InitClock+0x584>)
    13d2:	4613      	mov	r3, r2
    13d4:	00db      	lsls	r3, r3, #3
    13d6:	4413      	add	r3, r2
    13d8:	440b      	add	r3, r1
    13da:	3301      	adds	r3, #1
    13dc:	781b      	ldrb	r3, [r3, #0]
    13de:	461a      	mov	r2, r3
    13e0:	4b93      	ldr	r3, [pc, #588]	; (1630 <Clock_Ip_InitClock+0x590>)
    13e2:	5c9b      	ldrb	r3, [r3, r2]
    13e4:	9302      	str	r3, [sp, #8]
    13e6:	4993      	ldr	r1, [pc, #588]	; (1634 <Clock_Ip_InitClock+0x594>)
    13e8:	9a02      	ldr	r2, [sp, #8]
    13ea:	4613      	mov	r3, r2
    13ec:	009b      	lsls	r3, r3, #2
    13ee:	4413      	add	r3, r2
    13f0:	009b      	lsls	r3, r3, #2
    13f2:	440b      	add	r3, r1
    13f4:	3304      	adds	r3, #4
    13f6:	6819      	ldr	r1, [r3, #0]
    13f8:	9a03      	ldr	r2, [sp, #12]
    13fa:	4613      	mov	r3, r2
    13fc:	009b      	lsls	r3, r3, #2
    13fe:	4413      	add	r3, r2
    1400:	00db      	lsls	r3, r3, #3
    1402:	3340      	adds	r3, #64	; 0x40
    1404:	9a01      	ldr	r2, [sp, #4]
    1406:	4413      	add	r3, r2
    1408:	4618      	mov	r0, r3
    140a:	4788      	blx	r1
    140c:	9b03      	ldr	r3, [sp, #12]
    140e:	3301      	adds	r3, #1
    1410:	9303      	str	r3, [sp, #12]
    1412:	9b01      	ldr	r3, [sp, #4]
    1414:	7a9b      	ldrb	r3, [r3, #10]
    1416:	461a      	mov	r2, r3
    1418:	9b03      	ldr	r3, [sp, #12]
    141a:	4293      	cmp	r3, r2
    141c:	d3cf      	bcc.n	13be <Clock_Ip_InitClock+0x31e>
    141e:	2300      	movs	r3, #0
    1420:	9303      	str	r3, [sp, #12]
    1422:	e029      	b.n	1478 <Clock_Ip_InitClock+0x3d8>
    1424:	9901      	ldr	r1, [sp, #4]
    1426:	9a03      	ldr	r2, [sp, #12]
    1428:	4613      	mov	r3, r2
    142a:	009b      	lsls	r3, r3, #2
    142c:	4413      	add	r3, r2
    142e:	009b      	lsls	r3, r3, #2
    1430:	440b      	add	r3, r1
    1432:	f503 7374 	add.w	r3, r3, #976	; 0x3d0
    1436:	681a      	ldr	r2, [r3, #0]
    1438:	497a      	ldr	r1, [pc, #488]	; (1624 <Clock_Ip_InitClock+0x584>)
    143a:	4613      	mov	r3, r2
    143c:	00db      	lsls	r3, r3, #3
    143e:	4413      	add	r3, r2
    1440:	440b      	add	r3, r1
    1442:	3301      	adds	r3, #1
    1444:	781b      	ldrb	r3, [r3, #0]
    1446:	461a      	mov	r2, r3
    1448:	4b7b      	ldr	r3, [pc, #492]	; (1638 <Clock_Ip_InitClock+0x598>)
    144a:	5c9b      	ldrb	r3, [r3, r2]
    144c:	9302      	str	r3, [sp, #8]
    144e:	4a7b      	ldr	r2, [pc, #492]	; (163c <Clock_Ip_InitClock+0x59c>)
    1450:	9b02      	ldr	r3, [sp, #8]
    1452:	011b      	lsls	r3, r3, #4
    1454:	4413      	add	r3, r2
    1456:	3304      	adds	r3, #4
    1458:	681c      	ldr	r4, [r3, #0]
    145a:	9a03      	ldr	r2, [sp, #12]
    145c:	4613      	mov	r3, r2
    145e:	009b      	lsls	r3, r3, #2
    1460:	4413      	add	r3, r2
    1462:	009b      	lsls	r3, r3, #2
    1464:	f503 7374 	add.w	r3, r3, #976	; 0x3d0
    1468:	9a01      	ldr	r2, [sp, #4]
    146a:	4413      	add	r3, r2
    146c:	9903      	ldr	r1, [sp, #12]
    146e:	4618      	mov	r0, r3
    1470:	47a0      	blx	r4
    1472:	9b03      	ldr	r3, [sp, #12]
    1474:	3301      	adds	r3, #1
    1476:	9303      	str	r3, [sp, #12]
    1478:	9b01      	ldr	r3, [sp, #4]
    147a:	7c9b      	ldrb	r3, [r3, #18]
    147c:	461a      	mov	r2, r3
    147e:	9b03      	ldr	r3, [sp, #12]
    1480:	4293      	cmp	r3, r2
    1482:	d3cf      	bcc.n	1424 <Clock_Ip_InitClock+0x384>
    1484:	2300      	movs	r3, #0
    1486:	9303      	str	r3, [sp, #12]
    1488:	e02a      	b.n	14e0 <Clock_Ip_InitClock+0x440>
    148a:	9901      	ldr	r1, [sp, #4]
    148c:	9a03      	ldr	r2, [sp, #12]
    148e:	4613      	mov	r3, r2
    1490:	009b      	lsls	r3, r3, #2
    1492:	4413      	add	r3, r2
    1494:	009b      	lsls	r3, r3, #2
    1496:	440b      	add	r3, r1
    1498:	332c      	adds	r3, #44	; 0x2c
    149a:	681a      	ldr	r2, [r3, #0]
    149c:	4961      	ldr	r1, [pc, #388]	; (1624 <Clock_Ip_InitClock+0x584>)
    149e:	4613      	mov	r3, r2
    14a0:	00db      	lsls	r3, r3, #3
    14a2:	4413      	add	r3, r2
    14a4:	440b      	add	r3, r1
    14a6:	3301      	adds	r3, #1
    14a8:	781b      	ldrb	r3, [r3, #0]
    14aa:	461a      	mov	r2, r3
    14ac:	4b64      	ldr	r3, [pc, #400]	; (1640 <Clock_Ip_InitClock+0x5a0>)
    14ae:	5c9b      	ldrb	r3, [r3, r2]
    14b0:	9302      	str	r3, [sp, #8]
    14b2:	4964      	ldr	r1, [pc, #400]	; (1644 <Clock_Ip_InitClock+0x5a4>)
    14b4:	9a02      	ldr	r2, [sp, #8]
    14b6:	4613      	mov	r3, r2
    14b8:	009b      	lsls	r3, r3, #2
    14ba:	4413      	add	r3, r2
    14bc:	009b      	lsls	r3, r3, #2
    14be:	440b      	add	r3, r1
    14c0:	3308      	adds	r3, #8
    14c2:	6819      	ldr	r1, [r3, #0]
    14c4:	9a03      	ldr	r2, [sp, #12]
    14c6:	4613      	mov	r3, r2
    14c8:	009b      	lsls	r3, r3, #2
    14ca:	4413      	add	r3, r2
    14cc:	009b      	lsls	r3, r3, #2
    14ce:	3328      	adds	r3, #40	; 0x28
    14d0:	9a01      	ldr	r2, [sp, #4]
    14d2:	4413      	add	r3, r2
    14d4:	3304      	adds	r3, #4
    14d6:	4618      	mov	r0, r3
    14d8:	4788      	blx	r1
    14da:	9b03      	ldr	r3, [sp, #12]
    14dc:	3301      	adds	r3, #1
    14de:	9303      	str	r3, [sp, #12]
    14e0:	9b01      	ldr	r3, [sp, #4]
    14e2:	7a5b      	ldrb	r3, [r3, #9]
    14e4:	461a      	mov	r2, r3
    14e6:	9b03      	ldr	r3, [sp, #12]
    14e8:	4293      	cmp	r3, r2
    14ea:	d3ce      	bcc.n	148a <Clock_Ip_InitClock+0x3ea>
    14ec:	2300      	movs	r3, #0
    14ee:	9303      	str	r3, [sp, #12]
    14f0:	e029      	b.n	1546 <Clock_Ip_InitClock+0x4a6>
    14f2:	9901      	ldr	r1, [sp, #4]
    14f4:	9a03      	ldr	r2, [sp, #12]
    14f6:	4613      	mov	r3, r2
    14f8:	009b      	lsls	r3, r3, #2
    14fa:	4413      	add	r3, r2
    14fc:	00db      	lsls	r3, r3, #3
    14fe:	440b      	add	r3, r1
    1500:	3340      	adds	r3, #64	; 0x40
    1502:	681a      	ldr	r2, [r3, #0]
    1504:	4947      	ldr	r1, [pc, #284]	; (1624 <Clock_Ip_InitClock+0x584>)
    1506:	4613      	mov	r3, r2
    1508:	00db      	lsls	r3, r3, #3
    150a:	4413      	add	r3, r2
    150c:	440b      	add	r3, r1
    150e:	3301      	adds	r3, #1
    1510:	781b      	ldrb	r3, [r3, #0]
    1512:	461a      	mov	r2, r3
    1514:	4b46      	ldr	r3, [pc, #280]	; (1630 <Clock_Ip_InitClock+0x590>)
    1516:	5c9b      	ldrb	r3, [r3, r2]
    1518:	9302      	str	r3, [sp, #8]
    151a:	4946      	ldr	r1, [pc, #280]	; (1634 <Clock_Ip_InitClock+0x594>)
    151c:	9a02      	ldr	r2, [sp, #8]
    151e:	4613      	mov	r3, r2
    1520:	009b      	lsls	r3, r3, #2
    1522:	4413      	add	r3, r2
    1524:	009b      	lsls	r3, r3, #2
    1526:	440b      	add	r3, r1
    1528:	330c      	adds	r3, #12
    152a:	6819      	ldr	r1, [r3, #0]
    152c:	9a03      	ldr	r2, [sp, #12]
    152e:	4613      	mov	r3, r2
    1530:	009b      	lsls	r3, r3, #2
    1532:	4413      	add	r3, r2
    1534:	00db      	lsls	r3, r3, #3
    1536:	3340      	adds	r3, #64	; 0x40
    1538:	9a01      	ldr	r2, [sp, #4]
    153a:	4413      	add	r3, r2
    153c:	4618      	mov	r0, r3
    153e:	4788      	blx	r1
    1540:	9b03      	ldr	r3, [sp, #12]
    1542:	3301      	adds	r3, #1
    1544:	9303      	str	r3, [sp, #12]
    1546:	9b01      	ldr	r3, [sp, #4]
    1548:	7a9b      	ldrb	r3, [r3, #10]
    154a:	461a      	mov	r2, r3
    154c:	9b03      	ldr	r3, [sp, #12]
    154e:	4293      	cmp	r3, r2
    1550:	d3cf      	bcc.n	14f2 <Clock_Ip_InitClock+0x452>
    1552:	2300      	movs	r3, #0
    1554:	9303      	str	r3, [sp, #12]
    1556:	e025      	b.n	15a4 <Clock_Ip_InitClock+0x504>
    1558:	9a01      	ldr	r2, [sp, #4]
    155a:	9b03      	ldr	r3, [sp, #12]
    155c:	3324      	adds	r3, #36	; 0x24
    155e:	011b      	lsls	r3, r3, #4
    1560:	4413      	add	r3, r2
    1562:	3304      	adds	r3, #4
    1564:	681a      	ldr	r2, [r3, #0]
    1566:	492f      	ldr	r1, [pc, #188]	; (1624 <Clock_Ip_InitClock+0x584>)
    1568:	4613      	mov	r3, r2
    156a:	00db      	lsls	r3, r3, #3
    156c:	4413      	add	r3, r2
    156e:	440b      	add	r3, r1
    1570:	3301      	adds	r3, #1
    1572:	781b      	ldrb	r3, [r3, #0]
    1574:	461a      	mov	r2, r3
    1576:	4b34      	ldr	r3, [pc, #208]	; (1648 <Clock_Ip_InitClock+0x5a8>)
    1578:	5c9b      	ldrb	r3, [r3, r2]
    157a:	9302      	str	r3, [sp, #8]
    157c:	4933      	ldr	r1, [pc, #204]	; (164c <Clock_Ip_InitClock+0x5ac>)
    157e:	9a02      	ldr	r2, [sp, #8]
    1580:	4613      	mov	r3, r2
    1582:	005b      	lsls	r3, r3, #1
    1584:	4413      	add	r3, r2
    1586:	009b      	lsls	r3, r3, #2
    1588:	440b      	add	r3, r1
    158a:	3304      	adds	r3, #4
    158c:	681b      	ldr	r3, [r3, #0]
    158e:	9a03      	ldr	r2, [sp, #12]
    1590:	3224      	adds	r2, #36	; 0x24
    1592:	0112      	lsls	r2, r2, #4
    1594:	9901      	ldr	r1, [sp, #4]
    1596:	440a      	add	r2, r1
    1598:	3204      	adds	r2, #4
    159a:	4610      	mov	r0, r2
    159c:	4798      	blx	r3
    159e:	9b03      	ldr	r3, [sp, #12]
    15a0:	3301      	adds	r3, #1
    15a2:	9303      	str	r3, [sp, #12]
    15a4:	9b01      	ldr	r3, [sp, #4]
    15a6:	7b9b      	ldrb	r3, [r3, #14]
    15a8:	461a      	mov	r2, r3
    15aa:	9b03      	ldr	r3, [sp, #12]
    15ac:	4293      	cmp	r3, r2
    15ae:	d3d3      	bcc.n	1558 <Clock_Ip_InitClock+0x4b8>
    15b0:	4b27      	ldr	r3, [pc, #156]	; (1650 <Clock_Ip_InitClock+0x5b0>)
    15b2:	2200      	movs	r2, #0
    15b4:	701a      	strb	r2, [r3, #0]
    15b6:	4b26      	ldr	r3, [pc, #152]	; (1650 <Clock_Ip_InitClock+0x5b0>)
    15b8:	2200      	movs	r2, #0
    15ba:	705a      	strb	r2, [r3, #1]
    15bc:	4b24      	ldr	r3, [pc, #144]	; (1650 <Clock_Ip_InitClock+0x5b0>)
    15be:	2201      	movs	r2, #1
    15c0:	709a      	strb	r2, [r3, #2]
    15c2:	4b23      	ldr	r3, [pc, #140]	; (1650 <Clock_Ip_InitClock+0x5b0>)
    15c4:	2200      	movs	r2, #0
    15c6:	70da      	strb	r2, [r3, #3]
    15c8:	f000 fa9c 	bl	1b04 <Clock_Ip_SetWaitStates>
    15cc:	2300      	movs	r3, #0
    15ce:	9303      	str	r3, [sp, #12]
    15d0:	e04c      	b.n	166c <Clock_Ip_InitClock+0x5cc>
    15d2:	9a01      	ldr	r2, [sp, #4]
    15d4:	9b03      	ldr	r3, [sp, #12]
    15d6:	330d      	adds	r3, #13
    15d8:	00db      	lsls	r3, r3, #3
    15da:	4413      	add	r3, r2
    15dc:	685b      	ldr	r3, [r3, #4]
    15de:	4a1d      	ldr	r2, [pc, #116]	; (1654 <Clock_Ip_InitClock+0x5b4>)
    15e0:	f852 3023 	ldr.w	r3, [r2, r3, lsl #2]
    15e4:	2b03      	cmp	r3, #3
    15e6:	d03b      	beq.n	1660 <Clock_Ip_InitClock+0x5c0>
    15e8:	9b01      	ldr	r3, [sp, #4]
    15ea:	9a03      	ldr	r2, [sp, #12]
    15ec:	320d      	adds	r2, #13
    15ee:	f853 2032 	ldr.w	r2, [r3, r2, lsl #3]
    15f2:	490c      	ldr	r1, [pc, #48]	; (1624 <Clock_Ip_InitClock+0x584>)
    15f4:	4613      	mov	r3, r2
    15f6:	00db      	lsls	r3, r3, #3
    15f8:	4413      	add	r3, r2
    15fa:	440b      	add	r3, r1
    15fc:	3301      	adds	r3, #1
    15fe:	781b      	ldrb	r3, [r3, #0]
    1600:	461a      	mov	r2, r3
    1602:	4b15      	ldr	r3, [pc, #84]	; (1658 <Clock_Ip_InitClock+0x5b8>)
    1604:	5c9b      	ldrb	r3, [r3, r2]
    1606:	9302      	str	r3, [sp, #8]
    1608:	4a14      	ldr	r2, [pc, #80]	; (165c <Clock_Ip_InitClock+0x5bc>)
    160a:	9b02      	ldr	r3, [sp, #8]
    160c:	00db      	lsls	r3, r3, #3
    160e:	4413      	add	r3, r2
    1610:	685b      	ldr	r3, [r3, #4]
    1612:	9a03      	ldr	r2, [sp, #12]
    1614:	320d      	adds	r2, #13
    1616:	00d2      	lsls	r2, r2, #3
    1618:	9901      	ldr	r1, [sp, #4]
    161a:	440a      	add	r2, r1
    161c:	4610      	mov	r0, r2
    161e:	4798      	blx	r3
    1620:	e021      	b.n	1666 <Clock_Ip_InitClock+0x5c6>
    1622:	bf00      	nop
    1624:	0000b3f4 	.word	0x0000b3f4
    1628:	0000b364 	.word	0x0000b364
    162c:	0000b940 	.word	0x0000b940
    1630:	0000b3b4 	.word	0x0000b3b4
    1634:	0000ba00 	.word	0x0000ba00
    1638:	0000b3e4 	.word	0x0000b3e4
    163c:	0000b9f0 	.word	0x0000b9f0
    1640:	0000b374 	.word	0x0000b374
    1644:	0000b948 	.word	0x0000b948
    1648:	0000b3a4 	.word	0x0000b3a4
    164c:	0000b970 	.word	0x0000b970
    1650:	1fff8b4c 	.word	0x1fff8b4c
    1654:	0000b840 	.word	0x0000b840
    1658:	0000b3c4 	.word	0x0000b3c4
    165c:	0000ba2c 	.word	0x0000ba2c
    1660:	4b3a      	ldr	r3, [pc, #232]	; (174c <Clock_Ip_InitClock+0x6ac>)
    1662:	2201      	movs	r2, #1
    1664:	701a      	strb	r2, [r3, #0]
    1666:	9b03      	ldr	r3, [sp, #12]
    1668:	3301      	adds	r3, #1
    166a:	9303      	str	r3, [sp, #12]
    166c:	9b01      	ldr	r3, [sp, #4]
    166e:	7adb      	ldrb	r3, [r3, #11]
    1670:	461a      	mov	r2, r3
    1672:	9b03      	ldr	r3, [sp, #12]
    1674:	4293      	cmp	r3, r2
    1676:	d3ac      	bcc.n	15d2 <Clock_Ip_InitClock+0x532>
    1678:	4b34      	ldr	r3, [pc, #208]	; (174c <Clock_Ip_InitClock+0x6ac>)
    167a:	781b      	ldrb	r3, [r3, #0]
    167c:	f083 0301 	eor.w	r3, r3, #1
    1680:	b2db      	uxtb	r3, r3
    1682:	2b00      	cmp	r3, #0
    1684:	d05e      	beq.n	1744 <Clock_Ip_InitClock+0x6a4>
    1686:	2300      	movs	r3, #0
    1688:	9303      	str	r3, [sp, #12]
    168a:	e01f      	b.n	16cc <Clock_Ip_InitClock+0x62c>
    168c:	9a01      	ldr	r2, [sp, #4]
    168e:	9b03      	ldr	r3, [sp, #12]
    1690:	334e      	adds	r3, #78	; 0x4e
    1692:	00db      	lsls	r3, r3, #3
    1694:	4413      	add	r3, r2
    1696:	685a      	ldr	r2, [r3, #4]
    1698:	492d      	ldr	r1, [pc, #180]	; (1750 <Clock_Ip_InitClock+0x6b0>)
    169a:	4613      	mov	r3, r2
    169c:	00db      	lsls	r3, r3, #3
    169e:	4413      	add	r3, r2
    16a0:	440b      	add	r3, r1
    16a2:	3301      	adds	r3, #1
    16a4:	781b      	ldrb	r3, [r3, #0]
    16a6:	461a      	mov	r2, r3
    16a8:	4b2a      	ldr	r3, [pc, #168]	; (1754 <Clock_Ip_InitClock+0x6b4>)
    16aa:	5c9b      	ldrb	r3, [r3, r2]
    16ac:	9302      	str	r3, [sp, #8]
    16ae:	4a2a      	ldr	r2, [pc, #168]	; (1758 <Clock_Ip_InitClock+0x6b8>)
    16b0:	9b02      	ldr	r3, [sp, #8]
    16b2:	f852 3033 	ldr.w	r3, [r2, r3, lsl #3]
    16b6:	9a03      	ldr	r2, [sp, #12]
    16b8:	324e      	adds	r2, #78	; 0x4e
    16ba:	00d2      	lsls	r2, r2, #3
    16bc:	9901      	ldr	r1, [sp, #4]
    16be:	440a      	add	r2, r1
    16c0:	3204      	adds	r2, #4
    16c2:	4610      	mov	r0, r2
    16c4:	4798      	blx	r3
    16c6:	9b03      	ldr	r3, [sp, #12]
    16c8:	3301      	adds	r3, #1
    16ca:	9303      	str	r3, [sp, #12]
    16cc:	9b01      	ldr	r3, [sp, #4]
    16ce:	7c1b      	ldrb	r3, [r3, #16]
    16d0:	461a      	mov	r2, r3
    16d2:	9b03      	ldr	r3, [sp, #12]
    16d4:	4293      	cmp	r3, r2
    16d6:	d3d9      	bcc.n	168c <Clock_Ip_InitClock+0x5ec>
    16d8:	2300      	movs	r3, #0
    16da:	9303      	str	r3, [sp, #12]
    16dc:	e028      	b.n	1730 <Clock_Ip_InitClock+0x690>
    16de:	9901      	ldr	r1, [sp, #4]
    16e0:	9a03      	ldr	r2, [sp, #12]
    16e2:	4613      	mov	r3, r2
    16e4:	009b      	lsls	r3, r3, #2
    16e6:	4413      	add	r3, r2
    16e8:	009b      	lsls	r3, r3, #2
    16ea:	440b      	add	r3, r1
    16ec:	f503 7374 	add.w	r3, r3, #976	; 0x3d0
    16f0:	681a      	ldr	r2, [r3, #0]
    16f2:	4917      	ldr	r1, [pc, #92]	; (1750 <Clock_Ip_InitClock+0x6b0>)
    16f4:	4613      	mov	r3, r2
    16f6:	00db      	lsls	r3, r3, #3
    16f8:	4413      	add	r3, r2
    16fa:	440b      	add	r3, r1
    16fc:	3301      	adds	r3, #1
    16fe:	781b      	ldrb	r3, [r3, #0]
    1700:	461a      	mov	r2, r3
    1702:	4b16      	ldr	r3, [pc, #88]	; (175c <Clock_Ip_InitClock+0x6bc>)
    1704:	5c9b      	ldrb	r3, [r3, r2]
    1706:	9302      	str	r3, [sp, #8]
    1708:	4a15      	ldr	r2, [pc, #84]	; (1760 <Clock_Ip_InitClock+0x6c0>)
    170a:	9b02      	ldr	r3, [sp, #8]
    170c:	011b      	lsls	r3, r3, #4
    170e:	4413      	add	r3, r2
    1710:	330c      	adds	r3, #12
    1712:	6819      	ldr	r1, [r3, #0]
    1714:	9a03      	ldr	r2, [sp, #12]
    1716:	4613      	mov	r3, r2
    1718:	009b      	lsls	r3, r3, #2
    171a:	4413      	add	r3, r2
    171c:	009b      	lsls	r3, r3, #2
    171e:	f503 7374 	add.w	r3, r3, #976	; 0x3d0
    1722:	9a01      	ldr	r2, [sp, #4]
    1724:	4413      	add	r3, r2
    1726:	4618      	mov	r0, r3
    1728:	4788      	blx	r1
    172a:	9b03      	ldr	r3, [sp, #12]
    172c:	3301      	adds	r3, #1
    172e:	9303      	str	r3, [sp, #12]
    1730:	9b01      	ldr	r3, [sp, #4]
    1732:	7c9b      	ldrb	r3, [r3, #18]
    1734:	461a      	mov	r2, r3
    1736:	9b03      	ldr	r3, [sp, #12]
    1738:	4293      	cmp	r3, r2
    173a:	d3d0      	bcc.n	16de <Clock_Ip_InitClock+0x63e>
    173c:	2104      	movs	r1, #4
    173e:	9801      	ldr	r0, [sp, #4]
    1740:	f002 ff48 	bl	45d4 <Clock_Ip_Command>
    1744:	bf00      	nop
    1746:	b004      	add	sp, #16
    1748:	bd10      	pop	{r4, pc}
    174a:	bf00      	nop
    174c:	1fff8b4c 	.word	0x1fff8b4c
    1750:	0000b3f4 	.word	0x0000b3f4
    1754:	0000b394 	.word	0x0000b394
    1758:	0000b97c 	.word	0x0000b97c
    175c:	0000b3e4 	.word	0x0000b3e4
    1760:	0000b9f0 	.word	0x0000b9f0

00001764 <Clock_Ip_GetPllStatus>:
    1764:	b500      	push	{lr}
    1766:	b087      	sub	sp, #28
    1768:	2302      	movs	r3, #2
    176a:	9305      	str	r3, [sp, #20]
    176c:	2300      	movs	r3, #0
    176e:	9304      	str	r3, [sp, #16]
    1770:	e02c      	b.n	17cc <Clock_Ip_GetPllStatus+0x68>
    1772:	4a36      	ldr	r2, [pc, #216]	; (184c <Clock_Ip_GetPllStatus+0xe8>)
    1774:	9b04      	ldr	r3, [sp, #16]
    1776:	f852 2023 	ldr.w	r2, [r2, r3, lsl #2]
    177a:	4935      	ldr	r1, [pc, #212]	; (1850 <Clock_Ip_GetPllStatus+0xec>)
    177c:	4613      	mov	r3, r2
    177e:	00db      	lsls	r3, r3, #3
    1780:	4413      	add	r3, r2
    1782:	440b      	add	r3, r1
    1784:	3301      	adds	r3, #1
    1786:	781b      	ldrb	r3, [r3, #0]
    1788:	461a      	mov	r2, r3
    178a:	4b32      	ldr	r3, [pc, #200]	; (1854 <Clock_Ip_GetPllStatus+0xf0>)
    178c:	5c9b      	ldrb	r3, [r3, r2]
    178e:	9303      	str	r3, [sp, #12]
    1790:	4931      	ldr	r1, [pc, #196]	; (1858 <Clock_Ip_GetPllStatus+0xf4>)
    1792:	9a03      	ldr	r2, [sp, #12]
    1794:	4613      	mov	r3, r2
    1796:	009b      	lsls	r3, r3, #2
    1798:	4413      	add	r3, r2
    179a:	009b      	lsls	r3, r3, #2
    179c:	440b      	add	r3, r1
    179e:	3308      	adds	r3, #8
    17a0:	681b      	ldr	r3, [r3, #0]
    17a2:	492a      	ldr	r1, [pc, #168]	; (184c <Clock_Ip_GetPllStatus+0xe8>)
    17a4:	9a04      	ldr	r2, [sp, #16]
    17a6:	f851 2022 	ldr.w	r2, [r1, r2, lsl #2]
    17aa:	4610      	mov	r0, r2
    17ac:	4798      	blx	r3
    17ae:	9002      	str	r0, [sp, #8]
    17b0:	9b02      	ldr	r3, [sp, #8]
    17b2:	2b01      	cmp	r3, #1
    17b4:	d102      	bne.n	17bc <Clock_Ip_GetPllStatus+0x58>
    17b6:	2301      	movs	r3, #1
    17b8:	9305      	str	r3, [sp, #20]
    17ba:	e00d      	b.n	17d8 <Clock_Ip_GetPllStatus+0x74>
    17bc:	9b02      	ldr	r3, [sp, #8]
    17be:	2b02      	cmp	r3, #2
    17c0:	d101      	bne.n	17c6 <Clock_Ip_GetPllStatus+0x62>
    17c2:	2300      	movs	r3, #0
    17c4:	9305      	str	r3, [sp, #20]
    17c6:	9b04      	ldr	r3, [sp, #16]
    17c8:	3301      	adds	r3, #1
    17ca:	9304      	str	r3, [sp, #16]
    17cc:	4b23      	ldr	r3, [pc, #140]	; (185c <Clock_Ip_GetPllStatus+0xf8>)
    17ce:	789b      	ldrb	r3, [r3, #2]
    17d0:	461a      	mov	r2, r3
    17d2:	9b04      	ldr	r3, [sp, #16]
    17d4:	4293      	cmp	r3, r2
    17d6:	d3cc      	bcc.n	1772 <Clock_Ip_GetPllStatus+0xe>
    17d8:	9b05      	ldr	r3, [sp, #20]
    17da:	2b00      	cmp	r3, #0
    17dc:	d130      	bne.n	1840 <Clock_Ip_GetPllStatus+0xdc>
    17de:	2300      	movs	r3, #0
    17e0:	9304      	str	r3, [sp, #16]
    17e2:	e027      	b.n	1834 <Clock_Ip_GetPllStatus+0xd0>
    17e4:	4a1e      	ldr	r2, [pc, #120]	; (1860 <Clock_Ip_GetPllStatus+0xfc>)
    17e6:	9b04      	ldr	r3, [sp, #16]
    17e8:	f852 2023 	ldr.w	r2, [r2, r3, lsl #2]
    17ec:	4918      	ldr	r1, [pc, #96]	; (1850 <Clock_Ip_GetPllStatus+0xec>)
    17ee:	4613      	mov	r3, r2
    17f0:	00db      	lsls	r3, r3, #3
    17f2:	4413      	add	r3, r2
    17f4:	440b      	add	r3, r1
    17f6:	3301      	adds	r3, #1
    17f8:	781b      	ldrb	r3, [r3, #0]
    17fa:	461a      	mov	r2, r3
    17fc:	4b19      	ldr	r3, [pc, #100]	; (1864 <Clock_Ip_GetPllStatus+0x100>)
    17fe:	5c9b      	ldrb	r3, [r3, r2]
    1800:	9303      	str	r3, [sp, #12]
    1802:	4919      	ldr	r1, [pc, #100]	; (1868 <Clock_Ip_GetPllStatus+0x104>)
    1804:	9a03      	ldr	r2, [sp, #12]
    1806:	4613      	mov	r3, r2
    1808:	005b      	lsls	r3, r3, #1
    180a:	4413      	add	r3, r2
    180c:	009b      	lsls	r3, r3, #2
    180e:	440b      	add	r3, r1
    1810:	3308      	adds	r3, #8
    1812:	681b      	ldr	r3, [r3, #0]
    1814:	4912      	ldr	r1, [pc, #72]	; (1860 <Clock_Ip_GetPllStatus+0xfc>)
    1816:	9a04      	ldr	r2, [sp, #16]
    1818:	f851 2022 	ldr.w	r2, [r1, r2, lsl #2]
    181c:	4610      	mov	r0, r2
    181e:	4798      	blx	r3
    1820:	9001      	str	r0, [sp, #4]
    1822:	9b01      	ldr	r3, [sp, #4]
    1824:	2b01      	cmp	r3, #1
    1826:	d102      	bne.n	182e <Clock_Ip_GetPllStatus+0xca>
    1828:	2301      	movs	r3, #1
    182a:	9305      	str	r3, [sp, #20]
    182c:	e008      	b.n	1840 <Clock_Ip_GetPllStatus+0xdc>
    182e:	9b04      	ldr	r3, [sp, #16]
    1830:	3301      	adds	r3, #1
    1832:	9304      	str	r3, [sp, #16]
    1834:	4b09      	ldr	r3, [pc, #36]	; (185c <Clock_Ip_GetPllStatus+0xf8>)
    1836:	78db      	ldrb	r3, [r3, #3]
    1838:	461a      	mov	r2, r3
    183a:	9b04      	ldr	r3, [sp, #16]
    183c:	4293      	cmp	r3, r2
    183e:	d3d1      	bcc.n	17e4 <Clock_Ip_GetPllStatus+0x80>
    1840:	9b05      	ldr	r3, [sp, #20]
    1842:	4618      	mov	r0, r3
    1844:	b007      	add	sp, #28
    1846:	f85d fb04 	ldr.w	pc, [sp], #4
    184a:	bf00      	nop
    184c:	0000b8fc 	.word	0x0000b8fc
    1850:	0000b3f4 	.word	0x0000b3f4
    1854:	0000b3b4 	.word	0x0000b3b4
    1858:	0000ba00 	.word	0x0000ba00
    185c:	1fff8b4c 	.word	0x1fff8b4c
    1860:	0000b900 	.word	0x0000b900
    1864:	0000b3a4 	.word	0x0000b3a4
    1868:	0000b970 	.word	0x0000b970

0000186c <Clock_Ip_DistributePll>:
    186c:	b500      	push	{lr}
    186e:	b083      	sub	sp, #12
    1870:	4b55      	ldr	r3, [pc, #340]	; (19c8 <Clock_Ip_DistributePll+0x15c>)
    1872:	681b      	ldr	r3, [r3, #0]
    1874:	2b00      	cmp	r3, #0
    1876:	f000 80a2 	beq.w	19be <Clock_Ip_DistributePll+0x152>
    187a:	2300      	movs	r3, #0
    187c:	9301      	str	r3, [sp, #4]
    187e:	e02c      	b.n	18da <Clock_Ip_DistributePll+0x6e>
    1880:	4b51      	ldr	r3, [pc, #324]	; (19c8 <Clock_Ip_DistributePll+0x15c>)
    1882:	681a      	ldr	r2, [r3, #0]
    1884:	9b01      	ldr	r3, [sp, #4]
    1886:	330d      	adds	r3, #13
    1888:	00db      	lsls	r3, r3, #3
    188a:	4413      	add	r3, r2
    188c:	685b      	ldr	r3, [r3, #4]
    188e:	4a4f      	ldr	r2, [pc, #316]	; (19cc <Clock_Ip_DistributePll+0x160>)
    1890:	f852 3023 	ldr.w	r3, [r2, r3, lsl #2]
    1894:	2b03      	cmp	r3, #3
    1896:	d11d      	bne.n	18d4 <Clock_Ip_DistributePll+0x68>
    1898:	4b4b      	ldr	r3, [pc, #300]	; (19c8 <Clock_Ip_DistributePll+0x15c>)
    189a:	681b      	ldr	r3, [r3, #0]
    189c:	9a01      	ldr	r2, [sp, #4]
    189e:	320d      	adds	r2, #13
    18a0:	f853 2032 	ldr.w	r2, [r3, r2, lsl #3]
    18a4:	494a      	ldr	r1, [pc, #296]	; (19d0 <Clock_Ip_DistributePll+0x164>)
    18a6:	4613      	mov	r3, r2
    18a8:	00db      	lsls	r3, r3, #3
    18aa:	4413      	add	r3, r2
    18ac:	440b      	add	r3, r1
    18ae:	3301      	adds	r3, #1
    18b0:	781b      	ldrb	r3, [r3, #0]
    18b2:	461a      	mov	r2, r3
    18b4:	4b47      	ldr	r3, [pc, #284]	; (19d4 <Clock_Ip_DistributePll+0x168>)
    18b6:	5c9b      	ldrb	r3, [r3, r2]
    18b8:	9300      	str	r3, [sp, #0]
    18ba:	4a47      	ldr	r2, [pc, #284]	; (19d8 <Clock_Ip_DistributePll+0x16c>)
    18bc:	9b00      	ldr	r3, [sp, #0]
    18be:	00db      	lsls	r3, r3, #3
    18c0:	4413      	add	r3, r2
    18c2:	685b      	ldr	r3, [r3, #4]
    18c4:	4a40      	ldr	r2, [pc, #256]	; (19c8 <Clock_Ip_DistributePll+0x15c>)
    18c6:	6811      	ldr	r1, [r2, #0]
    18c8:	9a01      	ldr	r2, [sp, #4]
    18ca:	320d      	adds	r2, #13
    18cc:	00d2      	lsls	r2, r2, #3
    18ce:	440a      	add	r2, r1
    18d0:	4610      	mov	r0, r2
    18d2:	4798      	blx	r3
    18d4:	9b01      	ldr	r3, [sp, #4]
    18d6:	3301      	adds	r3, #1
    18d8:	9301      	str	r3, [sp, #4]
    18da:	4b3b      	ldr	r3, [pc, #236]	; (19c8 <Clock_Ip_DistributePll+0x15c>)
    18dc:	681b      	ldr	r3, [r3, #0]
    18de:	7adb      	ldrb	r3, [r3, #11]
    18e0:	461a      	mov	r2, r3
    18e2:	9b01      	ldr	r3, [sp, #4]
    18e4:	4293      	cmp	r3, r2
    18e6:	d3cb      	bcc.n	1880 <Clock_Ip_DistributePll+0x14>
    18e8:	4b3c      	ldr	r3, [pc, #240]	; (19dc <Clock_Ip_DistributePll+0x170>)
    18ea:	781b      	ldrb	r3, [r3, #0]
    18ec:	2b00      	cmp	r3, #0
    18ee:	d066      	beq.n	19be <Clock_Ip_DistributePll+0x152>
    18f0:	2300      	movs	r3, #0
    18f2:	9301      	str	r3, [sp, #4]
    18f4:	e021      	b.n	193a <Clock_Ip_DistributePll+0xce>
    18f6:	4b34      	ldr	r3, [pc, #208]	; (19c8 <Clock_Ip_DistributePll+0x15c>)
    18f8:	681a      	ldr	r2, [r3, #0]
    18fa:	9b01      	ldr	r3, [sp, #4]
    18fc:	334e      	adds	r3, #78	; 0x4e
    18fe:	00db      	lsls	r3, r3, #3
    1900:	4413      	add	r3, r2
    1902:	685a      	ldr	r2, [r3, #4]
    1904:	4932      	ldr	r1, [pc, #200]	; (19d0 <Clock_Ip_DistributePll+0x164>)
    1906:	4613      	mov	r3, r2
    1908:	00db      	lsls	r3, r3, #3
    190a:	4413      	add	r3, r2
    190c:	440b      	add	r3, r1
    190e:	3301      	adds	r3, #1
    1910:	781b      	ldrb	r3, [r3, #0]
    1912:	461a      	mov	r2, r3
    1914:	4b32      	ldr	r3, [pc, #200]	; (19e0 <Clock_Ip_DistributePll+0x174>)
    1916:	5c9b      	ldrb	r3, [r3, r2]
    1918:	9300      	str	r3, [sp, #0]
    191a:	4a32      	ldr	r2, [pc, #200]	; (19e4 <Clock_Ip_DistributePll+0x178>)
    191c:	9b00      	ldr	r3, [sp, #0]
    191e:	f852 3033 	ldr.w	r3, [r2, r3, lsl #3]
    1922:	4a29      	ldr	r2, [pc, #164]	; (19c8 <Clock_Ip_DistributePll+0x15c>)
    1924:	6811      	ldr	r1, [r2, #0]
    1926:	9a01      	ldr	r2, [sp, #4]
    1928:	324e      	adds	r2, #78	; 0x4e
    192a:	00d2      	lsls	r2, r2, #3
    192c:	440a      	add	r2, r1
    192e:	3204      	adds	r2, #4
    1930:	4610      	mov	r0, r2
    1932:	4798      	blx	r3
    1934:	9b01      	ldr	r3, [sp, #4]
    1936:	3301      	adds	r3, #1
    1938:	9301      	str	r3, [sp, #4]
    193a:	4b23      	ldr	r3, [pc, #140]	; (19c8 <Clock_Ip_DistributePll+0x15c>)
    193c:	681b      	ldr	r3, [r3, #0]
    193e:	7c1b      	ldrb	r3, [r3, #16]
    1940:	461a      	mov	r2, r3
    1942:	9b01      	ldr	r3, [sp, #4]
    1944:	4293      	cmp	r3, r2
    1946:	d3d6      	bcc.n	18f6 <Clock_Ip_DistributePll+0x8a>
    1948:	2300      	movs	r3, #0
    194a:	9301      	str	r3, [sp, #4]
    194c:	e02a      	b.n	19a4 <Clock_Ip_DistributePll+0x138>
    194e:	4b1e      	ldr	r3, [pc, #120]	; (19c8 <Clock_Ip_DistributePll+0x15c>)
    1950:	6819      	ldr	r1, [r3, #0]
    1952:	9a01      	ldr	r2, [sp, #4]
    1954:	4613      	mov	r3, r2
    1956:	009b      	lsls	r3, r3, #2
    1958:	4413      	add	r3, r2
    195a:	009b      	lsls	r3, r3, #2
    195c:	440b      	add	r3, r1
    195e:	f503 7374 	add.w	r3, r3, #976	; 0x3d0
    1962:	681a      	ldr	r2, [r3, #0]
    1964:	491a      	ldr	r1, [pc, #104]	; (19d0 <Clock_Ip_DistributePll+0x164>)
    1966:	4613      	mov	r3, r2
    1968:	00db      	lsls	r3, r3, #3
    196a:	4413      	add	r3, r2
    196c:	440b      	add	r3, r1
    196e:	3301      	adds	r3, #1
    1970:	781b      	ldrb	r3, [r3, #0]
    1972:	461a      	mov	r2, r3
    1974:	4b1c      	ldr	r3, [pc, #112]	; (19e8 <Clock_Ip_DistributePll+0x17c>)
    1976:	5c9b      	ldrb	r3, [r3, r2]
    1978:	9300      	str	r3, [sp, #0]
    197a:	4a1c      	ldr	r2, [pc, #112]	; (19ec <Clock_Ip_DistributePll+0x180>)
    197c:	9b00      	ldr	r3, [sp, #0]
    197e:	011b      	lsls	r3, r3, #4
    1980:	4413      	add	r3, r2
    1982:	330c      	adds	r3, #12
    1984:	6819      	ldr	r1, [r3, #0]
    1986:	4b10      	ldr	r3, [pc, #64]	; (19c8 <Clock_Ip_DistributePll+0x15c>)
    1988:	6818      	ldr	r0, [r3, #0]
    198a:	9a01      	ldr	r2, [sp, #4]
    198c:	4613      	mov	r3, r2
    198e:	009b      	lsls	r3, r3, #2
    1990:	4413      	add	r3, r2
    1992:	009b      	lsls	r3, r3, #2
    1994:	f503 7374 	add.w	r3, r3, #976	; 0x3d0
    1998:	4403      	add	r3, r0
    199a:	4618      	mov	r0, r3
    199c:	4788      	blx	r1
    199e:	9b01      	ldr	r3, [sp, #4]
    19a0:	3301      	adds	r3, #1
    19a2:	9301      	str	r3, [sp, #4]
    19a4:	4b08      	ldr	r3, [pc, #32]	; (19c8 <Clock_Ip_DistributePll+0x15c>)
    19a6:	681b      	ldr	r3, [r3, #0]
    19a8:	7c9b      	ldrb	r3, [r3, #18]
    19aa:	461a      	mov	r2, r3
    19ac:	9b01      	ldr	r3, [sp, #4]
    19ae:	4293      	cmp	r3, r2
    19b0:	d3cd      	bcc.n	194e <Clock_Ip_DistributePll+0xe2>
    19b2:	4b05      	ldr	r3, [pc, #20]	; (19c8 <Clock_Ip_DistributePll+0x15c>)
    19b4:	681b      	ldr	r3, [r3, #0]
    19b6:	2104      	movs	r1, #4
    19b8:	4618      	mov	r0, r3
    19ba:	f002 fe0b 	bl	45d4 <Clock_Ip_Command>
    19be:	bf00      	nop
    19c0:	b003      	add	sp, #12
    19c2:	f85d fb04 	ldr.w	pc, [sp], #4
    19c6:	bf00      	nop
    19c8:	1fff8b44 	.word	0x1fff8b44
    19cc:	0000b840 	.word	0x0000b840
    19d0:	0000b3f4 	.word	0x0000b3f4
    19d4:	0000b3c4 	.word	0x0000b3c4
    19d8:	0000ba2c 	.word	0x0000ba2c
    19dc:	1fff8b4c 	.word	0x1fff8b4c
    19e0:	0000b394 	.word	0x0000b394
    19e4:	0000b97c 	.word	0x0000b97c
    19e8:	0000b3e4 	.word	0x0000b3e4
    19ec:	0000b9f0 	.word	0x0000b9f0

000019f0 <Clock_Ip_DisableClockMonitor>:
    19f0:	b500      	push	{lr}
    19f2:	b085      	sub	sp, #20
    19f4:	9001      	str	r0, [sp, #4]
    19f6:	490c      	ldr	r1, [pc, #48]	; (1a28 <Clock_Ip_DisableClockMonitor+0x38>)
    19f8:	9a01      	ldr	r2, [sp, #4]
    19fa:	4613      	mov	r3, r2
    19fc:	00db      	lsls	r3, r3, #3
    19fe:	4413      	add	r3, r2
    1a00:	440b      	add	r3, r1
    1a02:	3301      	adds	r3, #1
    1a04:	781b      	ldrb	r3, [r3, #0]
    1a06:	461a      	mov	r2, r3
    1a08:	4b08      	ldr	r3, [pc, #32]	; (1a2c <Clock_Ip_DisableClockMonitor+0x3c>)
    1a0a:	5c9b      	ldrb	r3, [r3, r2]
    1a0c:	9303      	str	r3, [sp, #12]
    1a0e:	4a08      	ldr	r2, [pc, #32]	; (1a30 <Clock_Ip_DisableClockMonitor+0x40>)
    1a10:	9b03      	ldr	r3, [sp, #12]
    1a12:	011b      	lsls	r3, r3, #4
    1a14:	4413      	add	r3, r2
    1a16:	3308      	adds	r3, #8
    1a18:	681b      	ldr	r3, [r3, #0]
    1a1a:	9801      	ldr	r0, [sp, #4]
    1a1c:	4798      	blx	r3
    1a1e:	bf00      	nop
    1a20:	b005      	add	sp, #20
    1a22:	f85d fb04 	ldr.w	pc, [sp], #4
    1a26:	bf00      	nop
    1a28:	0000b3f4 	.word	0x0000b3f4
    1a2c:	0000b3e4 	.word	0x0000b3e4
    1a30:	0000b9f0 	.word	0x0000b9f0

00001a34 <Clock_Ip_InstallNotificationsCallback>:
    1a34:	b082      	sub	sp, #8
    1a36:	9001      	str	r0, [sp, #4]
    1a38:	4a02      	ldr	r2, [pc, #8]	; (1a44 <Clock_Ip_InstallNotificationsCallback+0x10>)
    1a3a:	9b01      	ldr	r3, [sp, #4]
    1a3c:	6013      	str	r3, [r2, #0]
    1a3e:	bf00      	nop
    1a40:	b002      	add	sp, #8
    1a42:	4770      	bx	lr
    1a44:	1fff8b14 	.word	0x1fff8b14

00001a48 <Clock_Ip_DisableModuleClock>:
    1a48:	b500      	push	{lr}
    1a4a:	b085      	sub	sp, #20
    1a4c:	9001      	str	r0, [sp, #4]
    1a4e:	490c      	ldr	r1, [pc, #48]	; (1a80 <Clock_Ip_DisableModuleClock+0x38>)
    1a50:	9a01      	ldr	r2, [sp, #4]
    1a52:	4613      	mov	r3, r2
    1a54:	00db      	lsls	r3, r3, #3
    1a56:	4413      	add	r3, r2
    1a58:	440b      	add	r3, r1
    1a5a:	3301      	adds	r3, #1
    1a5c:	781b      	ldrb	r3, [r3, #0]
    1a5e:	461a      	mov	r2, r3
    1a60:	4b08      	ldr	r3, [pc, #32]	; (1a84 <Clock_Ip_DisableModuleClock+0x3c>)
    1a62:	5c9b      	ldrb	r3, [r3, r2]
    1a64:	9303      	str	r3, [sp, #12]
    1a66:	4a08      	ldr	r2, [pc, #32]	; (1a88 <Clock_Ip_DisableModuleClock+0x40>)
    1a68:	9b03      	ldr	r3, [sp, #12]
    1a6a:	00db      	lsls	r3, r3, #3
    1a6c:	4413      	add	r3, r2
    1a6e:	685b      	ldr	r3, [r3, #4]
    1a70:	2101      	movs	r1, #1
    1a72:	9801      	ldr	r0, [sp, #4]
    1a74:	4798      	blx	r3
    1a76:	bf00      	nop
    1a78:	b005      	add	sp, #20
    1a7a:	f85d fb04 	ldr.w	pc, [sp], #4
    1a7e:	bf00      	nop
    1a80:	0000b3f4 	.word	0x0000b3f4
    1a84:	0000b394 	.word	0x0000b394
    1a88:	0000b97c 	.word	0x0000b97c

00001a8c <Clock_Ip_EnableModuleClock>:
    1a8c:	b500      	push	{lr}
    1a8e:	b085      	sub	sp, #20
    1a90:	9001      	str	r0, [sp, #4]
    1a92:	490c      	ldr	r1, [pc, #48]	; (1ac4 <Clock_Ip_EnableModuleClock+0x38>)
    1a94:	9a01      	ldr	r2, [sp, #4]
    1a96:	4613      	mov	r3, r2
    1a98:	00db      	lsls	r3, r3, #3
    1a9a:	4413      	add	r3, r2
    1a9c:	440b      	add	r3, r1
    1a9e:	3301      	adds	r3, #1
    1aa0:	781b      	ldrb	r3, [r3, #0]
    1aa2:	461a      	mov	r2, r3
    1aa4:	4b08      	ldr	r3, [pc, #32]	; (1ac8 <Clock_Ip_EnableModuleClock+0x3c>)
    1aa6:	5c9b      	ldrb	r3, [r3, r2]
    1aa8:	9303      	str	r3, [sp, #12]
    1aaa:	4a08      	ldr	r2, [pc, #32]	; (1acc <Clock_Ip_EnableModuleClock+0x40>)
    1aac:	9b03      	ldr	r3, [sp, #12]
    1aae:	00db      	lsls	r3, r3, #3
    1ab0:	4413      	add	r3, r2
    1ab2:	685b      	ldr	r3, [r3, #4]
    1ab4:	2100      	movs	r1, #0
    1ab6:	9801      	ldr	r0, [sp, #4]
    1ab8:	4798      	blx	r3
    1aba:	bf00      	nop
    1abc:	b005      	add	sp, #20
    1abe:	f85d fb04 	ldr.w	pc, [sp], #4
    1ac2:	bf00      	nop
    1ac4:	0000b3f4 	.word	0x0000b3f4
    1ac8:	0000b394 	.word	0x0000b394
    1acc:	0000b97c 	.word	0x0000b97c

00001ad0 <Clock_Ip_PowerModeChangeNotification>:
    1ad0:	b500      	push	{lr}
    1ad2:	b083      	sub	sp, #12
    1ad4:	9001      	str	r0, [sp, #4]
    1ad6:	9100      	str	r1, [sp, #0]
    1ad8:	4b08      	ldr	r3, [pc, #32]	; (1afc <Clock_Ip_PowerModeChangeNotification+0x2c>)
    1ada:	2200      	movs	r2, #0
    1adc:	701a      	strb	r2, [r3, #0]
    1ade:	4b08      	ldr	r3, [pc, #32]	; (1b00 <Clock_Ip_PowerModeChangeNotification+0x30>)
    1ae0:	681b      	ldr	r3, [r3, #0]
    1ae2:	2102      	movs	r1, #2
    1ae4:	4618      	mov	r0, r3
    1ae6:	f002 fd75 	bl	45d4 <Clock_Ip_Command>
    1aea:	9900      	ldr	r1, [sp, #0]
    1aec:	9801      	ldr	r0, [sp, #4]
    1aee:	f002 fc51 	bl	4394 <Clock_Ip_ClockPowerModeChangeNotification>
    1af2:	bf00      	nop
    1af4:	b003      	add	sp, #12
    1af6:	f85d fb04 	ldr.w	pc, [sp], #4
    1afa:	bf00      	nop
    1afc:	1fff8b10 	.word	0x1fff8b10
    1b00:	1fff8b44 	.word	0x1fff8b44

00001b04 <Clock_Ip_SetWaitStates>:
    1b04:	b082      	sub	sp, #8
    1b06:	f06f 5380 	mvn.w	r3, #268435456	; 0x10000000
    1b0a:	9301      	str	r3, [sp, #4]
    1b0c:	4b06      	ldr	r3, [pc, #24]	; (1b28 <Clock_Ip_SetWaitStates+0x24>)
    1b0e:	785b      	ldrb	r3, [r3, #1]
    1b10:	2b00      	cmp	r3, #0
    1b12:	d005      	beq.n	1b20 <Clock_Ip_SetWaitStates+0x1c>
    1b14:	9b01      	ldr	r3, [sp, #4]
    1b16:	3b01      	subs	r3, #1
    1b18:	9301      	str	r3, [sp, #4]
    1b1a:	9b01      	ldr	r3, [sp, #4]
    1b1c:	2b00      	cmp	r3, #0
    1b1e:	d1f9      	bne.n	1b14 <Clock_Ip_SetWaitStates+0x10>
    1b20:	bf00      	nop
    1b22:	b002      	add	sp, #8
    1b24:	4770      	bx	lr
    1b26:	bf00      	nop
    1b28:	1fff8b4c 	.word	0x1fff8b4c

00001b2c <Clock_Ip_ReportClockErrors>:
    1b2c:	b500      	push	{lr}
    1b2e:	b083      	sub	sp, #12
    1b30:	9001      	str	r0, [sp, #4]
    1b32:	9100      	str	r1, [sp, #0]
    1b34:	4b04      	ldr	r3, [pc, #16]	; (1b48 <Clock_Ip_ReportClockErrors+0x1c>)
    1b36:	681b      	ldr	r3, [r3, #0]
    1b38:	9900      	ldr	r1, [sp, #0]
    1b3a:	9801      	ldr	r0, [sp, #4]
    1b3c:	4798      	blx	r3
    1b3e:	bf00      	nop
    1b40:	b003      	add	sp, #12
    1b42:	f85d fb04 	ldr.w	pc, [sp], #4
    1b46:	bf00      	nop
    1b48:	1fff8b14 	.word	0x1fff8b14

00001b4c <Clock_Ip_StartTimeout>:
    1b4c:	b500      	push	{lr}
    1b4e:	b085      	sub	sp, #20
    1b50:	9003      	str	r0, [sp, #12]
    1b52:	9102      	str	r1, [sp, #8]
    1b54:	9201      	str	r2, [sp, #4]
    1b56:	9300      	str	r3, [sp, #0]
    1b58:	2000      	movs	r0, #0
    1b5a:	f7fe ffd0 	bl	afe <OsIf_GetCounter>
    1b5e:	4602      	mov	r2, r0
    1b60:	9b03      	ldr	r3, [sp, #12]
    1b62:	601a      	str	r2, [r3, #0]
    1b64:	9b02      	ldr	r3, [sp, #8]
    1b66:	2200      	movs	r2, #0
    1b68:	601a      	str	r2, [r3, #0]
    1b6a:	2100      	movs	r1, #0
    1b6c:	9800      	ldr	r0, [sp, #0]
    1b6e:	f7ff f812 	bl	b96 <OsIf_MicrosToTicks>
    1b72:	4602      	mov	r2, r0
    1b74:	9b01      	ldr	r3, [sp, #4]
    1b76:	601a      	str	r2, [r3, #0]
    1b78:	bf00      	nop
    1b7a:	b005      	add	sp, #20
    1b7c:	f85d fb04 	ldr.w	pc, [sp], #4

00001b80 <Clock_Ip_TimeoutExpired>:
    1b80:	b500      	push	{lr}
    1b82:	b087      	sub	sp, #28
    1b84:	9003      	str	r0, [sp, #12]
    1b86:	9102      	str	r1, [sp, #8]
    1b88:	9201      	str	r2, [sp, #4]
    1b8a:	2300      	movs	r3, #0
    1b8c:	f88d 3017 	strb.w	r3, [sp, #23]
    1b90:	2100      	movs	r1, #0
    1b92:	9803      	ldr	r0, [sp, #12]
    1b94:	f7fe ffcc 	bl	b30 <OsIf_GetElapsed>
    1b98:	4602      	mov	r2, r0
    1b9a:	9b02      	ldr	r3, [sp, #8]
    1b9c:	681b      	ldr	r3, [r3, #0]
    1b9e:	441a      	add	r2, r3
    1ba0:	9b02      	ldr	r3, [sp, #8]
    1ba2:	601a      	str	r2, [r3, #0]
    1ba4:	9b02      	ldr	r3, [sp, #8]
    1ba6:	681b      	ldr	r3, [r3, #0]
    1ba8:	9a01      	ldr	r2, [sp, #4]
    1baa:	429a      	cmp	r2, r3
    1bac:	d802      	bhi.n	1bb4 <Clock_Ip_TimeoutExpired+0x34>
    1bae:	2301      	movs	r3, #1
    1bb0:	f88d 3017 	strb.w	r3, [sp, #23]
    1bb4:	f89d 3017 	ldrb.w	r3, [sp, #23]
    1bb8:	4618      	mov	r0, r3
    1bba:	b007      	add	sp, #28
    1bbc:	f85d fb04 	ldr.w	pc, [sp], #4

00001bc0 <Clock_Ip_Callback_DividerEmpty>:
    1bc0:	b082      	sub	sp, #8
    1bc2:	9001      	str	r0, [sp, #4]
    1bc4:	bf00      	nop
    1bc6:	b002      	add	sp, #8
    1bc8:	4770      	bx	lr

00001bca <Clock_Ip_SetScgAsyncDiv1>:
    1bca:	b500      	push	{lr}
    1bcc:	b083      	sub	sp, #12
    1bce:	9001      	str	r0, [sp, #4]
    1bd0:	9b01      	ldr	r3, [sp, #4]
    1bd2:	2b00      	cmp	r3, #0
    1bd4:	d002      	beq.n	1bdc <Clock_Ip_SetScgAsyncDiv1+0x12>
    1bd6:	9801      	ldr	r0, [sp, #4]
    1bd8:	f000 f8ad 	bl	1d36 <Clock_Ip_SetScgAsyncDiv1_TrustedCall>
    1bdc:	bf00      	nop
    1bde:	b003      	add	sp, #12
    1be0:	f85d fb04 	ldr.w	pc, [sp], #4

00001be4 <Clock_Ip_SetScgAsyncDiv2>:
    1be4:	b500      	push	{lr}
    1be6:	b083      	sub	sp, #12
    1be8:	9001      	str	r0, [sp, #4]
    1bea:	9b01      	ldr	r3, [sp, #4]
    1bec:	2b00      	cmp	r3, #0
    1bee:	d002      	beq.n	1bf6 <Clock_Ip_SetScgAsyncDiv2+0x12>
    1bf0:	9801      	ldr	r0, [sp, #4]
    1bf2:	f000 f8cd 	bl	1d90 <Clock_Ip_SetScgAsyncDiv2_TrustedCall>
    1bf6:	bf00      	nop
    1bf8:	b003      	add	sp, #12
    1bfa:	f85d fb04 	ldr.w	pc, [sp], #4

00001bfe <Clock_Ip_SetScgRunDivcore>:
    1bfe:	b500      	push	{lr}
    1c00:	b083      	sub	sp, #12
    1c02:	9001      	str	r0, [sp, #4]
    1c04:	9b01      	ldr	r3, [sp, #4]
    1c06:	2b00      	cmp	r3, #0
    1c08:	d002      	beq.n	1c10 <Clock_Ip_SetScgRunDivcore+0x12>
    1c0a:	9801      	ldr	r0, [sp, #4]
    1c0c:	f000 f8ee 	bl	1dec <Clock_Ip_SetScgRunDivcore_TrustedCall>
    1c10:	bf00      	nop
    1c12:	b003      	add	sp, #12
    1c14:	f85d fb04 	ldr.w	pc, [sp], #4

00001c18 <Clock_Ip_SetScgRunDivbus>:
    1c18:	b500      	push	{lr}
    1c1a:	b083      	sub	sp, #12
    1c1c:	9001      	str	r0, [sp, #4]
    1c1e:	9b01      	ldr	r3, [sp, #4]
    1c20:	2b00      	cmp	r3, #0
    1c22:	d002      	beq.n	1c2a <Clock_Ip_SetScgRunDivbus+0x12>
    1c24:	9801      	ldr	r0, [sp, #4]
    1c26:	f000 f8f9 	bl	1e1c <Clock_Ip_SetScgRunDivbus_TrustedCall>
    1c2a:	bf00      	nop
    1c2c:	b003      	add	sp, #12
    1c2e:	f85d fb04 	ldr.w	pc, [sp], #4

00001c32 <Clock_Ip_SetScgRunDivslow>:
    1c32:	b500      	push	{lr}
    1c34:	b083      	sub	sp, #12
    1c36:	9001      	str	r0, [sp, #4]
    1c38:	9b01      	ldr	r3, [sp, #4]
    1c3a:	2b00      	cmp	r3, #0
    1c3c:	d002      	beq.n	1c44 <Clock_Ip_SetScgRunDivslow+0x12>
    1c3e:	9801      	ldr	r0, [sp, #4]
    1c40:	f000 f904 	bl	1e4c <Clock_Ip_SetScgRunDivslow_TrustedCall>
    1c44:	bf00      	nop
    1c46:	b003      	add	sp, #12
    1c48:	f85d fb04 	ldr.w	pc, [sp], #4

00001c4c <Clock_Ip_SetScgVlprDivcore>:
    1c4c:	b500      	push	{lr}
    1c4e:	b083      	sub	sp, #12
    1c50:	9001      	str	r0, [sp, #4]
    1c52:	9b01      	ldr	r3, [sp, #4]
    1c54:	2b00      	cmp	r3, #0
    1c56:	d002      	beq.n	1c5e <Clock_Ip_SetScgVlprDivcore+0x12>
    1c58:	9801      	ldr	r0, [sp, #4]
    1c5a:	f000 f90f 	bl	1e7c <Clock_Ip_SetScgVlprDivcore_TrustedCall>
    1c5e:	bf00      	nop
    1c60:	b003      	add	sp, #12
    1c62:	f85d fb04 	ldr.w	pc, [sp], #4

00001c66 <Clock_Ip_SetScgVlprDivbus>:
    1c66:	b500      	push	{lr}
    1c68:	b083      	sub	sp, #12
    1c6a:	9001      	str	r0, [sp, #4]
    1c6c:	9b01      	ldr	r3, [sp, #4]
    1c6e:	2b00      	cmp	r3, #0
    1c70:	d002      	beq.n	1c78 <Clock_Ip_SetScgVlprDivbus+0x12>
    1c72:	9801      	ldr	r0, [sp, #4]
    1c74:	f000 f91a 	bl	1eac <Clock_Ip_SetScgVlprDivbus_TrustedCall>
    1c78:	bf00      	nop
    1c7a:	b003      	add	sp, #12
    1c7c:	f85d fb04 	ldr.w	pc, [sp], #4

00001c80 <Clock_Ip_SetScgVlprDivslow>:
    1c80:	b500      	push	{lr}
    1c82:	b083      	sub	sp, #12
    1c84:	9001      	str	r0, [sp, #4]
    1c86:	9b01      	ldr	r3, [sp, #4]
    1c88:	2b00      	cmp	r3, #0
    1c8a:	d002      	beq.n	1c92 <Clock_Ip_SetScgVlprDivslow+0x12>
    1c8c:	9801      	ldr	r0, [sp, #4]
    1c8e:	f000 f925 	bl	1edc <Clock_Ip_SetScgVlprDivslow_TrustedCall>
    1c92:	bf00      	nop
    1c94:	b003      	add	sp, #12
    1c96:	f85d fb04 	ldr.w	pc, [sp], #4

00001c9a <Clock_Ip_SetScgHsrunDivcore>:
    1c9a:	b500      	push	{lr}
    1c9c:	b083      	sub	sp, #12
    1c9e:	9001      	str	r0, [sp, #4]
    1ca0:	9b01      	ldr	r3, [sp, #4]
    1ca2:	2b00      	cmp	r3, #0
    1ca4:	d002      	beq.n	1cac <Clock_Ip_SetScgHsrunDivcore+0x12>
    1ca6:	9801      	ldr	r0, [sp, #4]
    1ca8:	f000 f930 	bl	1f0c <Clock_Ip_SetScgHsrunDivcore_TrustedCall>
    1cac:	bf00      	nop
    1cae:	b003      	add	sp, #12
    1cb0:	f85d fb04 	ldr.w	pc, [sp], #4

00001cb4 <Clock_Ip_SetScgHsrunDivbus>:
    1cb4:	b500      	push	{lr}
    1cb6:	b083      	sub	sp, #12
    1cb8:	9001      	str	r0, [sp, #4]
    1cba:	9b01      	ldr	r3, [sp, #4]
    1cbc:	2b00      	cmp	r3, #0
    1cbe:	d002      	beq.n	1cc6 <Clock_Ip_SetScgHsrunDivbus+0x12>
    1cc0:	9801      	ldr	r0, [sp, #4]
    1cc2:	f000 f93b 	bl	1f3c <Clock_Ip_SetScgHsrunDivbus_TrustedCall>
    1cc6:	bf00      	nop
    1cc8:	b003      	add	sp, #12
    1cca:	f85d fb04 	ldr.w	pc, [sp], #4

00001cce <Clock_Ip_SetScgHsrunDivslow>:
    1cce:	b500      	push	{lr}
    1cd0:	b083      	sub	sp, #12
    1cd2:	9001      	str	r0, [sp, #4]
    1cd4:	9b01      	ldr	r3, [sp, #4]
    1cd6:	2b00      	cmp	r3, #0
    1cd8:	d002      	beq.n	1ce0 <Clock_Ip_SetScgHsrunDivslow+0x12>
    1cda:	9801      	ldr	r0, [sp, #4]
    1cdc:	f000 f946 	bl	1f6c <Clock_Ip_SetScgHsrunDivslow_TrustedCall>
    1ce0:	bf00      	nop
    1ce2:	b003      	add	sp, #12
    1ce4:	f85d fb04 	ldr.w	pc, [sp], #4

00001ce8 <Clock_Ip_SetSimClkoutDiv>:
    1ce8:	b500      	push	{lr}
    1cea:	b083      	sub	sp, #12
    1cec:	9001      	str	r0, [sp, #4]
    1cee:	9b01      	ldr	r3, [sp, #4]
    1cf0:	2b00      	cmp	r3, #0
    1cf2:	d002      	beq.n	1cfa <Clock_Ip_SetSimClkoutDiv+0x12>
    1cf4:	9801      	ldr	r0, [sp, #4]
    1cf6:	f000 f951 	bl	1f9c <Clock_Ip_SetSimClkoutDiv_TrustedCall>
    1cfa:	bf00      	nop
    1cfc:	b003      	add	sp, #12
    1cfe:	f85d fb04 	ldr.w	pc, [sp], #4

00001d02 <Clock_Ip_SetPccPcdDivFrac>:
    1d02:	b500      	push	{lr}
    1d04:	b083      	sub	sp, #12
    1d06:	9001      	str	r0, [sp, #4]
    1d08:	9b01      	ldr	r3, [sp, #4]
    1d0a:	2b00      	cmp	r3, #0
    1d0c:	d002      	beq.n	1d14 <Clock_Ip_SetPccPcdDivFrac+0x12>
    1d0e:	9801      	ldr	r0, [sp, #4]
    1d10:	f000 f95e 	bl	1fd0 <Clock_Ip_SetPccPcdDivFrac_TrustedCall>
    1d14:	bf00      	nop
    1d16:	b003      	add	sp, #12
    1d18:	f85d fb04 	ldr.w	pc, [sp], #4

00001d1c <Clock_Ip_SetSimTraceDivMul>:
    1d1c:	b500      	push	{lr}
    1d1e:	b083      	sub	sp, #12
    1d20:	9001      	str	r0, [sp, #4]
    1d22:	9b01      	ldr	r3, [sp, #4]
    1d24:	2b00      	cmp	r3, #0
    1d26:	d002      	beq.n	1d2e <Clock_Ip_SetSimTraceDivMul+0x12>
    1d28:	9801      	ldr	r0, [sp, #4]
    1d2a:	f000 f98b 	bl	2044 <Clock_Ip_SetSimTraceDivMul_TrustedCall>
    1d2e:	bf00      	nop
    1d30:	b003      	add	sp, #12
    1d32:	f85d fb04 	ldr.w	pc, [sp], #4

00001d36 <Clock_Ip_SetScgAsyncDiv1_TrustedCall>:
    1d36:	b086      	sub	sp, #24
    1d38:	9001      	str	r0, [sp, #4]
    1d3a:	9b01      	ldr	r3, [sp, #4]
    1d3c:	681a      	ldr	r2, [r3, #0]
    1d3e:	4911      	ldr	r1, [pc, #68]	; (1d84 <Clock_Ip_SetScgAsyncDiv1_TrustedCall+0x4e>)
    1d40:	4613      	mov	r3, r2
    1d42:	00db      	lsls	r3, r3, #3
    1d44:	4413      	add	r3, r2
    1d46:	440b      	add	r3, r1
    1d48:	781b      	ldrb	r3, [r3, #0]
    1d4a:	9305      	str	r3, [sp, #20]
    1d4c:	9b01      	ldr	r3, [sp, #4]
    1d4e:	685b      	ldr	r3, [r3, #4]
    1d50:	4a0d      	ldr	r2, [pc, #52]	; (1d88 <Clock_Ip_SetScgAsyncDiv1_TrustedCall+0x52>)
    1d52:	5cd3      	ldrb	r3, [r2, r3]
    1d54:	9304      	str	r3, [sp, #16]
    1d56:	4a0d      	ldr	r2, [pc, #52]	; (1d8c <Clock_Ip_SetScgAsyncDiv1_TrustedCall+0x56>)
    1d58:	9b05      	ldr	r3, [sp, #20]
    1d5a:	f852 3023 	ldr.w	r3, [r2, r3, lsl #2]
    1d5e:	681b      	ldr	r3, [r3, #0]
    1d60:	9303      	str	r3, [sp, #12]
    1d62:	9b03      	ldr	r3, [sp, #12]
    1d64:	f023 0307 	bic.w	r3, r3, #7
    1d68:	9303      	str	r3, [sp, #12]
    1d6a:	9a03      	ldr	r2, [sp, #12]
    1d6c:	9b04      	ldr	r3, [sp, #16]
    1d6e:	4313      	orrs	r3, r2
    1d70:	9303      	str	r3, [sp, #12]
    1d72:	4a06      	ldr	r2, [pc, #24]	; (1d8c <Clock_Ip_SetScgAsyncDiv1_TrustedCall+0x56>)
    1d74:	9b05      	ldr	r3, [sp, #20]
    1d76:	f852 3023 	ldr.w	r3, [r2, r3, lsl #2]
    1d7a:	9a03      	ldr	r2, [sp, #12]
    1d7c:	601a      	str	r2, [r3, #0]
    1d7e:	bf00      	nop
    1d80:	b006      	add	sp, #24
    1d82:	4770      	bx	lr
    1d84:	0000b3f4 	.word	0x0000b3f4
    1d88:	0000b7ec 	.word	0x0000b7ec
    1d8c:	0000b830 	.word	0x0000b830

00001d90 <Clock_Ip_SetScgAsyncDiv2_TrustedCall>:
    1d90:	b086      	sub	sp, #24
    1d92:	9001      	str	r0, [sp, #4]
    1d94:	9b01      	ldr	r3, [sp, #4]
    1d96:	681a      	ldr	r2, [r3, #0]
    1d98:	4911      	ldr	r1, [pc, #68]	; (1de0 <Clock_Ip_SetScgAsyncDiv2_TrustedCall+0x50>)
    1d9a:	4613      	mov	r3, r2
    1d9c:	00db      	lsls	r3, r3, #3
    1d9e:	4413      	add	r3, r2
    1da0:	440b      	add	r3, r1
    1da2:	781b      	ldrb	r3, [r3, #0]
    1da4:	9305      	str	r3, [sp, #20]
    1da6:	9b01      	ldr	r3, [sp, #4]
    1da8:	685b      	ldr	r3, [r3, #4]
    1daa:	4a0e      	ldr	r2, [pc, #56]	; (1de4 <Clock_Ip_SetScgAsyncDiv2_TrustedCall+0x54>)
    1dac:	5cd3      	ldrb	r3, [r2, r3]
    1dae:	9304      	str	r3, [sp, #16]
    1db0:	4a0d      	ldr	r2, [pc, #52]	; (1de8 <Clock_Ip_SetScgAsyncDiv2_TrustedCall+0x58>)
    1db2:	9b05      	ldr	r3, [sp, #20]
    1db4:	f852 3023 	ldr.w	r3, [r2, r3, lsl #2]
    1db8:	681b      	ldr	r3, [r3, #0]
    1dba:	9303      	str	r3, [sp, #12]
    1dbc:	9b03      	ldr	r3, [sp, #12]
    1dbe:	f423 63e0 	bic.w	r3, r3, #1792	; 0x700
    1dc2:	9303      	str	r3, [sp, #12]
    1dc4:	9b04      	ldr	r3, [sp, #16]
    1dc6:	021b      	lsls	r3, r3, #8
    1dc8:	9a03      	ldr	r2, [sp, #12]
    1dca:	4313      	orrs	r3, r2
    1dcc:	9303      	str	r3, [sp, #12]
    1dce:	4a06      	ldr	r2, [pc, #24]	; (1de8 <Clock_Ip_SetScgAsyncDiv2_TrustedCall+0x58>)
    1dd0:	9b05      	ldr	r3, [sp, #20]
    1dd2:	f852 3023 	ldr.w	r3, [r2, r3, lsl #2]
    1dd6:	9a03      	ldr	r2, [sp, #12]
    1dd8:	601a      	str	r2, [r3, #0]
    1dda:	bf00      	nop
    1ddc:	b006      	add	sp, #24
    1dde:	4770      	bx	lr
    1de0:	0000b3f4 	.word	0x0000b3f4
    1de4:	0000b7ec 	.word	0x0000b7ec
    1de8:	0000b830 	.word	0x0000b830

00001dec <Clock_Ip_SetScgRunDivcore_TrustedCall>:
    1dec:	b084      	sub	sp, #16
    1dee:	9001      	str	r0, [sp, #4]
    1df0:	4b09      	ldr	r3, [pc, #36]	; (1e18 <Clock_Ip_SetScgRunDivcore_TrustedCall+0x2c>)
    1df2:	695b      	ldr	r3, [r3, #20]
    1df4:	9303      	str	r3, [sp, #12]
    1df6:	9b03      	ldr	r3, [sp, #12]
    1df8:	f423 2370 	bic.w	r3, r3, #983040	; 0xf0000
    1dfc:	9303      	str	r3, [sp, #12]
    1dfe:	9b01      	ldr	r3, [sp, #4]
    1e00:	685b      	ldr	r3, [r3, #4]
    1e02:	3b01      	subs	r3, #1
    1e04:	041b      	lsls	r3, r3, #16
    1e06:	9a03      	ldr	r2, [sp, #12]
    1e08:	4313      	orrs	r3, r2
    1e0a:	9303      	str	r3, [sp, #12]
    1e0c:	4a02      	ldr	r2, [pc, #8]	; (1e18 <Clock_Ip_SetScgRunDivcore_TrustedCall+0x2c>)
    1e0e:	9b03      	ldr	r3, [sp, #12]
    1e10:	6153      	str	r3, [r2, #20]
    1e12:	bf00      	nop
    1e14:	b004      	add	sp, #16
    1e16:	4770      	bx	lr
    1e18:	40064000 	.word	0x40064000

00001e1c <Clock_Ip_SetScgRunDivbus_TrustedCall>:
    1e1c:	b084      	sub	sp, #16
    1e1e:	9001      	str	r0, [sp, #4]
    1e20:	4b09      	ldr	r3, [pc, #36]	; (1e48 <Clock_Ip_SetScgRunDivbus_TrustedCall+0x2c>)
    1e22:	695b      	ldr	r3, [r3, #20]
    1e24:	9303      	str	r3, [sp, #12]
    1e26:	9b03      	ldr	r3, [sp, #12]
    1e28:	f023 03f0 	bic.w	r3, r3, #240	; 0xf0
    1e2c:	9303      	str	r3, [sp, #12]
    1e2e:	9b01      	ldr	r3, [sp, #4]
    1e30:	685b      	ldr	r3, [r3, #4]
    1e32:	3b01      	subs	r3, #1
    1e34:	011b      	lsls	r3, r3, #4
    1e36:	9a03      	ldr	r2, [sp, #12]
    1e38:	4313      	orrs	r3, r2
    1e3a:	9303      	str	r3, [sp, #12]
    1e3c:	4a02      	ldr	r2, [pc, #8]	; (1e48 <Clock_Ip_SetScgRunDivbus_TrustedCall+0x2c>)
    1e3e:	9b03      	ldr	r3, [sp, #12]
    1e40:	6153      	str	r3, [r2, #20]
    1e42:	bf00      	nop
    1e44:	b004      	add	sp, #16
    1e46:	4770      	bx	lr
    1e48:	40064000 	.word	0x40064000

00001e4c <Clock_Ip_SetScgRunDivslow_TrustedCall>:
    1e4c:	b084      	sub	sp, #16
    1e4e:	9001      	str	r0, [sp, #4]
    1e50:	4b09      	ldr	r3, [pc, #36]	; (1e78 <Clock_Ip_SetScgRunDivslow_TrustedCall+0x2c>)
    1e52:	695b      	ldr	r3, [r3, #20]
    1e54:	9303      	str	r3, [sp, #12]
    1e56:	9b03      	ldr	r3, [sp, #12]
    1e58:	f023 030f 	bic.w	r3, r3, #15
    1e5c:	9303      	str	r3, [sp, #12]
    1e5e:	9b01      	ldr	r3, [sp, #4]
    1e60:	685b      	ldr	r3, [r3, #4]
    1e62:	3b01      	subs	r3, #1
    1e64:	9a03      	ldr	r2, [sp, #12]
    1e66:	4313      	orrs	r3, r2
    1e68:	9303      	str	r3, [sp, #12]
    1e6a:	4a03      	ldr	r2, [pc, #12]	; (1e78 <Clock_Ip_SetScgRunDivslow_TrustedCall+0x2c>)
    1e6c:	9b03      	ldr	r3, [sp, #12]
    1e6e:	6153      	str	r3, [r2, #20]
    1e70:	bf00      	nop
    1e72:	b004      	add	sp, #16
    1e74:	4770      	bx	lr
    1e76:	bf00      	nop
    1e78:	40064000 	.word	0x40064000

00001e7c <Clock_Ip_SetScgVlprDivcore_TrustedCall>:
    1e7c:	b084      	sub	sp, #16
    1e7e:	9001      	str	r0, [sp, #4]
    1e80:	4b09      	ldr	r3, [pc, #36]	; (1ea8 <Clock_Ip_SetScgVlprDivcore_TrustedCall+0x2c>)
    1e82:	699b      	ldr	r3, [r3, #24]
    1e84:	9303      	str	r3, [sp, #12]
    1e86:	9b03      	ldr	r3, [sp, #12]
    1e88:	f423 2370 	bic.w	r3, r3, #983040	; 0xf0000
    1e8c:	9303      	str	r3, [sp, #12]
    1e8e:	9b01      	ldr	r3, [sp, #4]
    1e90:	685b      	ldr	r3, [r3, #4]
    1e92:	3b01      	subs	r3, #1
    1e94:	041b      	lsls	r3, r3, #16
    1e96:	9a03      	ldr	r2, [sp, #12]
    1e98:	4313      	orrs	r3, r2
    1e9a:	9303      	str	r3, [sp, #12]
    1e9c:	4a02      	ldr	r2, [pc, #8]	; (1ea8 <Clock_Ip_SetScgVlprDivcore_TrustedCall+0x2c>)
    1e9e:	9b03      	ldr	r3, [sp, #12]
    1ea0:	6193      	str	r3, [r2, #24]
    1ea2:	bf00      	nop
    1ea4:	b004      	add	sp, #16
    1ea6:	4770      	bx	lr
    1ea8:	40064000 	.word	0x40064000

00001eac <Clock_Ip_SetScgVlprDivbus_TrustedCall>:
    1eac:	b084      	sub	sp, #16
    1eae:	9001      	str	r0, [sp, #4]
    1eb0:	4b09      	ldr	r3, [pc, #36]	; (1ed8 <Clock_Ip_SetScgVlprDivbus_TrustedCall+0x2c>)
    1eb2:	699b      	ldr	r3, [r3, #24]
    1eb4:	9303      	str	r3, [sp, #12]
    1eb6:	9b03      	ldr	r3, [sp, #12]
    1eb8:	f023 03f0 	bic.w	r3, r3, #240	; 0xf0
    1ebc:	9303      	str	r3, [sp, #12]
    1ebe:	9b01      	ldr	r3, [sp, #4]
    1ec0:	685b      	ldr	r3, [r3, #4]
    1ec2:	3b01      	subs	r3, #1
    1ec4:	011b      	lsls	r3, r3, #4
    1ec6:	9a03      	ldr	r2, [sp, #12]
    1ec8:	4313      	orrs	r3, r2
    1eca:	9303      	str	r3, [sp, #12]
    1ecc:	4a02      	ldr	r2, [pc, #8]	; (1ed8 <Clock_Ip_SetScgVlprDivbus_TrustedCall+0x2c>)
    1ece:	9b03      	ldr	r3, [sp, #12]
    1ed0:	6193      	str	r3, [r2, #24]
    1ed2:	bf00      	nop
    1ed4:	b004      	add	sp, #16
    1ed6:	4770      	bx	lr
    1ed8:	40064000 	.word	0x40064000

00001edc <Clock_Ip_SetScgVlprDivslow_TrustedCall>:
    1edc:	b084      	sub	sp, #16
    1ede:	9001      	str	r0, [sp, #4]
    1ee0:	4b09      	ldr	r3, [pc, #36]	; (1f08 <Clock_Ip_SetScgVlprDivslow_TrustedCall+0x2c>)
    1ee2:	699b      	ldr	r3, [r3, #24]
    1ee4:	9303      	str	r3, [sp, #12]
    1ee6:	9b03      	ldr	r3, [sp, #12]
    1ee8:	f023 030f 	bic.w	r3, r3, #15
    1eec:	9303      	str	r3, [sp, #12]
    1eee:	9b01      	ldr	r3, [sp, #4]
    1ef0:	685b      	ldr	r3, [r3, #4]
    1ef2:	3b01      	subs	r3, #1
    1ef4:	9a03      	ldr	r2, [sp, #12]
    1ef6:	4313      	orrs	r3, r2
    1ef8:	9303      	str	r3, [sp, #12]
    1efa:	4a03      	ldr	r2, [pc, #12]	; (1f08 <Clock_Ip_SetScgVlprDivslow_TrustedCall+0x2c>)
    1efc:	9b03      	ldr	r3, [sp, #12]
    1efe:	6193      	str	r3, [r2, #24]
    1f00:	bf00      	nop
    1f02:	b004      	add	sp, #16
    1f04:	4770      	bx	lr
    1f06:	bf00      	nop
    1f08:	40064000 	.word	0x40064000

00001f0c <Clock_Ip_SetScgHsrunDivcore_TrustedCall>:
    1f0c:	b084      	sub	sp, #16
    1f0e:	9001      	str	r0, [sp, #4]
    1f10:	4b09      	ldr	r3, [pc, #36]	; (1f38 <Clock_Ip_SetScgHsrunDivcore_TrustedCall+0x2c>)
    1f12:	69db      	ldr	r3, [r3, #28]
    1f14:	9303      	str	r3, [sp, #12]
    1f16:	9b03      	ldr	r3, [sp, #12]
    1f18:	f423 2370 	bic.w	r3, r3, #983040	; 0xf0000
    1f1c:	9303      	str	r3, [sp, #12]
    1f1e:	9b01      	ldr	r3, [sp, #4]
    1f20:	685b      	ldr	r3, [r3, #4]
    1f22:	3b01      	subs	r3, #1
    1f24:	041b      	lsls	r3, r3, #16
    1f26:	9a03      	ldr	r2, [sp, #12]
    1f28:	4313      	orrs	r3, r2
    1f2a:	9303      	str	r3, [sp, #12]
    1f2c:	4a02      	ldr	r2, [pc, #8]	; (1f38 <Clock_Ip_SetScgHsrunDivcore_TrustedCall+0x2c>)
    1f2e:	9b03      	ldr	r3, [sp, #12]
    1f30:	61d3      	str	r3, [r2, #28]
    1f32:	bf00      	nop
    1f34:	b004      	add	sp, #16
    1f36:	4770      	bx	lr
    1f38:	40064000 	.word	0x40064000

00001f3c <Clock_Ip_SetScgHsrunDivbus_TrustedCall>:
    1f3c:	b084      	sub	sp, #16
    1f3e:	9001      	str	r0, [sp, #4]
    1f40:	4b09      	ldr	r3, [pc, #36]	; (1f68 <Clock_Ip_SetScgHsrunDivbus_TrustedCall+0x2c>)
    1f42:	69db      	ldr	r3, [r3, #28]
    1f44:	9303      	str	r3, [sp, #12]
    1f46:	9b03      	ldr	r3, [sp, #12]
    1f48:	f023 03f0 	bic.w	r3, r3, #240	; 0xf0
    1f4c:	9303      	str	r3, [sp, #12]
    1f4e:	9b01      	ldr	r3, [sp, #4]
    1f50:	685b      	ldr	r3, [r3, #4]
    1f52:	3b01      	subs	r3, #1
    1f54:	011b      	lsls	r3, r3, #4
    1f56:	9a03      	ldr	r2, [sp, #12]
    1f58:	4313      	orrs	r3, r2
    1f5a:	9303      	str	r3, [sp, #12]
    1f5c:	4a02      	ldr	r2, [pc, #8]	; (1f68 <Clock_Ip_SetScgHsrunDivbus_TrustedCall+0x2c>)
    1f5e:	9b03      	ldr	r3, [sp, #12]
    1f60:	61d3      	str	r3, [r2, #28]
    1f62:	bf00      	nop
    1f64:	b004      	add	sp, #16
    1f66:	4770      	bx	lr
    1f68:	40064000 	.word	0x40064000

00001f6c <Clock_Ip_SetScgHsrunDivslow_TrustedCall>:
    1f6c:	b084      	sub	sp, #16
    1f6e:	9001      	str	r0, [sp, #4]
    1f70:	4b09      	ldr	r3, [pc, #36]	; (1f98 <Clock_Ip_SetScgHsrunDivslow_TrustedCall+0x2c>)
    1f72:	69db      	ldr	r3, [r3, #28]
    1f74:	9303      	str	r3, [sp, #12]
    1f76:	9b03      	ldr	r3, [sp, #12]
    1f78:	f023 030f 	bic.w	r3, r3, #15
    1f7c:	9303      	str	r3, [sp, #12]
    1f7e:	9b01      	ldr	r3, [sp, #4]
    1f80:	685b      	ldr	r3, [r3, #4]
    1f82:	3b01      	subs	r3, #1
    1f84:	9a03      	ldr	r2, [sp, #12]
    1f86:	4313      	orrs	r3, r2
    1f88:	9303      	str	r3, [sp, #12]
    1f8a:	4a03      	ldr	r2, [pc, #12]	; (1f98 <Clock_Ip_SetScgHsrunDivslow_TrustedCall+0x2c>)
    1f8c:	9b03      	ldr	r3, [sp, #12]
    1f8e:	61d3      	str	r3, [r2, #28]
    1f90:	bf00      	nop
    1f92:	b004      	add	sp, #16
    1f94:	4770      	bx	lr
    1f96:	bf00      	nop
    1f98:	40064000 	.word	0x40064000

00001f9c <Clock_Ip_SetSimClkoutDiv_TrustedCall>:
    1f9c:	b084      	sub	sp, #16
    1f9e:	9001      	str	r0, [sp, #4]
    1fa0:	4b0a      	ldr	r3, [pc, #40]	; (1fcc <Clock_Ip_SetSimClkoutDiv_TrustedCall+0x30>)
    1fa2:	685b      	ldr	r3, [r3, #4]
    1fa4:	9303      	str	r3, [sp, #12]
    1fa6:	9b03      	ldr	r3, [sp, #12]
    1fa8:	f423 63e0 	bic.w	r3, r3, #1792	; 0x700
    1fac:	9303      	str	r3, [sp, #12]
    1fae:	9b01      	ldr	r3, [sp, #4]
    1fb0:	685b      	ldr	r3, [r3, #4]
    1fb2:	3b01      	subs	r3, #1
    1fb4:	021b      	lsls	r3, r3, #8
    1fb6:	f403 63e0 	and.w	r3, r3, #1792	; 0x700
    1fba:	9a03      	ldr	r2, [sp, #12]
    1fbc:	4313      	orrs	r3, r2
    1fbe:	9303      	str	r3, [sp, #12]
    1fc0:	4a02      	ldr	r2, [pc, #8]	; (1fcc <Clock_Ip_SetSimClkoutDiv_TrustedCall+0x30>)
    1fc2:	9b03      	ldr	r3, [sp, #12]
    1fc4:	6053      	str	r3, [r2, #4]
    1fc6:	bf00      	nop
    1fc8:	b004      	add	sp, #16
    1fca:	4770      	bx	lr
    1fcc:	40048000 	.word	0x40048000

00001fd0 <Clock_Ip_SetPccPcdDivFrac_TrustedCall>:
    1fd0:	b084      	sub	sp, #16
    1fd2:	9001      	str	r0, [sp, #4]
    1fd4:	4919      	ldr	r1, [pc, #100]	; (203c <Clock_Ip_SetPccPcdDivFrac_TrustedCall+0x6c>)
    1fd6:	9b01      	ldr	r3, [sp, #4]
    1fd8:	681a      	ldr	r2, [r3, #0]
    1fda:	4819      	ldr	r0, [pc, #100]	; (2040 <Clock_Ip_SetPccPcdDivFrac_TrustedCall+0x70>)
    1fdc:	4613      	mov	r3, r2
    1fde:	00db      	lsls	r3, r3, #3
    1fe0:	4413      	add	r3, r2
    1fe2:	4403      	add	r3, r0
    1fe4:	3305      	adds	r3, #5
    1fe6:	781b      	ldrb	r3, [r3, #0]
    1fe8:	f851 3023 	ldr.w	r3, [r1, r3, lsl #2]
    1fec:	9303      	str	r3, [sp, #12]
    1fee:	9b03      	ldr	r3, [sp, #12]
    1ff0:	f023 030f 	bic.w	r3, r3, #15
    1ff4:	9303      	str	r3, [sp, #12]
    1ff6:	9b01      	ldr	r3, [sp, #4]
    1ff8:	685b      	ldr	r3, [r3, #4]
    1ffa:	3b01      	subs	r3, #1
    1ffc:	f003 0307 	and.w	r3, r3, #7
    2000:	9a03      	ldr	r2, [sp, #12]
    2002:	4313      	orrs	r3, r2
    2004:	9303      	str	r3, [sp, #12]
    2006:	9b01      	ldr	r3, [sp, #4]
    2008:	7a1b      	ldrb	r3, [r3, #8]
    200a:	3b01      	subs	r3, #1
    200c:	00db      	lsls	r3, r3, #3
    200e:	f003 0308 	and.w	r3, r3, #8
    2012:	9a03      	ldr	r2, [sp, #12]
    2014:	4313      	orrs	r3, r2
    2016:	9303      	str	r3, [sp, #12]
    2018:	4908      	ldr	r1, [pc, #32]	; (203c <Clock_Ip_SetPccPcdDivFrac_TrustedCall+0x6c>)
    201a:	9b01      	ldr	r3, [sp, #4]
    201c:	681a      	ldr	r2, [r3, #0]
    201e:	4808      	ldr	r0, [pc, #32]	; (2040 <Clock_Ip_SetPccPcdDivFrac_TrustedCall+0x70>)
    2020:	4613      	mov	r3, r2
    2022:	00db      	lsls	r3, r3, #3
    2024:	4413      	add	r3, r2
    2026:	4403      	add	r3, r0
    2028:	3305      	adds	r3, #5
    202a:	781b      	ldrb	r3, [r3, #0]
    202c:	461a      	mov	r2, r3
    202e:	9b03      	ldr	r3, [sp, #12]
    2030:	f841 3022 	str.w	r3, [r1, r2, lsl #2]
    2034:	bf00      	nop
    2036:	b004      	add	sp, #16
    2038:	4770      	bx	lr
    203a:	bf00      	nop
    203c:	40065000 	.word	0x40065000
    2040:	0000b3f4 	.word	0x0000b3f4

00002044 <Clock_Ip_SetSimTraceDivMul_TrustedCall>:
    2044:	b084      	sub	sp, #16
    2046:	9001      	str	r0, [sp, #4]
    2048:	4b10      	ldr	r3, [pc, #64]	; (208c <Clock_Ip_SetSimTraceDivMul_TrustedCall+0x48>)
    204a:	6e9b      	ldr	r3, [r3, #104]	; 0x68
    204c:	4a0f      	ldr	r2, [pc, #60]	; (208c <Clock_Ip_SetSimTraceDivMul_TrustedCall+0x48>)
    204e:	f023 5380 	bic.w	r3, r3, #268435456	; 0x10000000
    2052:	6693      	str	r3, [r2, #104]	; 0x68
    2054:	4b0d      	ldr	r3, [pc, #52]	; (208c <Clock_Ip_SetSimTraceDivMul_TrustedCall+0x48>)
    2056:	6e9b      	ldr	r3, [r3, #104]	; 0x68
    2058:	9303      	str	r3, [sp, #12]
    205a:	9b03      	ldr	r3, [sp, #12]
    205c:	f023 030f 	bic.w	r3, r3, #15
    2060:	9303      	str	r3, [sp, #12]
    2062:	9b01      	ldr	r3, [sp, #4]
    2064:	685b      	ldr	r3, [r3, #4]
    2066:	3b01      	subs	r3, #1
    2068:	005b      	lsls	r3, r3, #1
    206a:	f003 020e 	and.w	r2, r3, #14
    206e:	9b01      	ldr	r3, [sp, #4]
    2070:	7a1b      	ldrb	r3, [r3, #8]
    2072:	3b01      	subs	r3, #1
    2074:	f003 0301 	and.w	r3, r3, #1
    2078:	4313      	orrs	r3, r2
    207a:	9a03      	ldr	r2, [sp, #12]
    207c:	4313      	orrs	r3, r2
    207e:	9303      	str	r3, [sp, #12]
    2080:	4a02      	ldr	r2, [pc, #8]	; (208c <Clock_Ip_SetSimTraceDivMul_TrustedCall+0x48>)
    2082:	9b03      	ldr	r3, [sp, #12]
    2084:	6693      	str	r3, [r2, #104]	; 0x68
    2086:	bf00      	nop
    2088:	b004      	add	sp, #16
    208a:	4770      	bx	lr
    208c:	40048000 	.word	0x40048000

00002090 <Clock_Ip_Callback_DividerTriggerEmpty>:
    2090:	b082      	sub	sp, #8
    2092:	9001      	str	r0, [sp, #4]
    2094:	bf00      	nop
    2096:	b002      	add	sp, #8
    2098:	4770      	bx	lr
	...

0000209c <Clock_Ip_ExternalOscillatorEmpty>:
    209c:	b082      	sub	sp, #8
    209e:	9001      	str	r0, [sp, #4]
    20a0:	bf00      	nop
    20a2:	b002      	add	sp, #8
    20a4:	4770      	bx	lr

000020a6 <Clock_Ip_DisableClockIpExternalOscillatorEmpty>:
    20a6:	b082      	sub	sp, #8
    20a8:	9001      	str	r0, [sp, #4]
    20aa:	bf00      	nop
    20ac:	b002      	add	sp, #8
    20ae:	4770      	bx	lr

000020b0 <Clock_Ip_ResetSOSC>:
    20b0:	b500      	push	{lr}
    20b2:	b083      	sub	sp, #12
    20b4:	9001      	str	r0, [sp, #4]
    20b6:	9b01      	ldr	r3, [sp, #4]
    20b8:	2b00      	cmp	r3, #0
    20ba:	d002      	beq.n	20c2 <Clock_Ip_ResetSOSC+0x12>
    20bc:	9801      	ldr	r0, [sp, #4]
    20be:	f000 f86a 	bl	2196 <Clock_Ip_ResetSOSC_TrustedCall>
    20c2:	bf00      	nop
    20c4:	b003      	add	sp, #12
    20c6:	f85d fb04 	ldr.w	pc, [sp], #4

000020ca <Clock_Ip_SetSOSC>:
    20ca:	b500      	push	{lr}
    20cc:	b083      	sub	sp, #12
    20ce:	9001      	str	r0, [sp, #4]
    20d0:	9b01      	ldr	r3, [sp, #4]
    20d2:	2b00      	cmp	r3, #0
    20d4:	d002      	beq.n	20dc <Clock_Ip_SetSOSC+0x12>
    20d6:	9801      	ldr	r0, [sp, #4]
    20d8:	f000 f884 	bl	21e4 <Clock_Ip_SetSOSC_TrustedCall>
    20dc:	bf00      	nop
    20de:	b003      	add	sp, #12
    20e0:	f85d fb04 	ldr.w	pc, [sp], #4

000020e4 <Clock_Ip_CompleteSOSC>:
    20e4:	b500      	push	{lr}
    20e6:	b089      	sub	sp, #36	; 0x24
    20e8:	9001      	str	r0, [sp, #4]
    20ea:	2300      	movs	r3, #0
    20ec:	f88d 301f 	strb.w	r3, [sp, #31]
    20f0:	9b01      	ldr	r3, [sp, #4]
    20f2:	2b00      	cmp	r3, #0
    20f4:	d031      	beq.n	215a <Clock_Ip_CompleteSOSC+0x76>
    20f6:	4b1b      	ldr	r3, [pc, #108]	; (2164 <Clock_Ip_CompleteSOSC+0x80>)
    20f8:	f8d3 3100 	ldr.w	r3, [r3, #256]	; 0x100
    20fc:	f003 0301 	and.w	r3, r3, #1
    2100:	2b00      	cmp	r3, #0
    2102:	d02a      	beq.n	215a <Clock_Ip_CompleteSOSC+0x76>
    2104:	aa03      	add	r2, sp, #12
    2106:	a904      	add	r1, sp, #16
    2108:	a805      	add	r0, sp, #20
    210a:	f24c 3350 	movw	r3, #50000	; 0xc350
    210e:	f7ff fd1d 	bl	1b4c <Clock_Ip_StartTimeout>
    2112:	4b14      	ldr	r3, [pc, #80]	; (2164 <Clock_Ip_CompleteSOSC+0x80>)
    2114:	f8d3 3100 	ldr.w	r3, [r3, #256]	; 0x100
    2118:	0e1b      	lsrs	r3, r3, #24
    211a:	f003 0301 	and.w	r3, r3, #1
    211e:	9306      	str	r3, [sp, #24]
    2120:	9a03      	ldr	r2, [sp, #12]
    2122:	a904      	add	r1, sp, #16
    2124:	ab05      	add	r3, sp, #20
    2126:	4618      	mov	r0, r3
    2128:	f7ff fd2a 	bl	1b80 <Clock_Ip_TimeoutExpired>
    212c:	4603      	mov	r3, r0
    212e:	f88d 301f 	strb.w	r3, [sp, #31]
    2132:	9b06      	ldr	r3, [sp, #24]
    2134:	2b00      	cmp	r3, #0
    2136:	d106      	bne.n	2146 <Clock_Ip_CompleteSOSC+0x62>
    2138:	f89d 301f 	ldrb.w	r3, [sp, #31]
    213c:	f083 0301 	eor.w	r3, r3, #1
    2140:	b2db      	uxtb	r3, r3
    2142:	2b00      	cmp	r3, #0
    2144:	d1e5      	bne.n	2112 <Clock_Ip_CompleteSOSC+0x2e>
    2146:	f89d 301f 	ldrb.w	r3, [sp, #31]
    214a:	2b00      	cmp	r3, #0
    214c:	d005      	beq.n	215a <Clock_Ip_CompleteSOSC+0x76>
    214e:	9b01      	ldr	r3, [sp, #4]
    2150:	681b      	ldr	r3, [r3, #0]
    2152:	4619      	mov	r1, r3
    2154:	2001      	movs	r0, #1
    2156:	f7ff fce9 	bl	1b2c <Clock_Ip_ReportClockErrors>
    215a:	bf00      	nop
    215c:	b009      	add	sp, #36	; 0x24
    215e:	f85d fb04 	ldr.w	pc, [sp], #4
    2162:	bf00      	nop
    2164:	40064000 	.word	0x40064000

00002168 <Clock_Ip_DisableSOSC>:
    2168:	b500      	push	{lr}
    216a:	b083      	sub	sp, #12
    216c:	9001      	str	r0, [sp, #4]
    216e:	9801      	ldr	r0, [sp, #4]
    2170:	f000 f8c0 	bl	22f4 <Clock_Ip_DisableSOSC_TrustedCall>
    2174:	bf00      	nop
    2176:	b003      	add	sp, #12
    2178:	f85d fb04 	ldr.w	pc, [sp], #4

0000217c <Clock_Ip_EnableSOSC>:
    217c:	b500      	push	{lr}
    217e:	b083      	sub	sp, #12
    2180:	9001      	str	r0, [sp, #4]
    2182:	9b01      	ldr	r3, [sp, #4]
    2184:	2b00      	cmp	r3, #0
    2186:	d002      	beq.n	218e <Clock_Ip_EnableSOSC+0x12>
    2188:	9801      	ldr	r0, [sp, #4]
    218a:	f000 f8c3 	bl	2314 <Clock_Ip_EnableSOSC_TrustedCall>
    218e:	bf00      	nop
    2190:	b003      	add	sp, #12
    2192:	f85d fb04 	ldr.w	pc, [sp], #4

00002196 <Clock_Ip_ResetSOSC_TrustedCall>:
    2196:	b082      	sub	sp, #8
    2198:	9001      	str	r0, [sp, #4]
    219a:	4b11      	ldr	r3, [pc, #68]	; (21e0 <Clock_Ip_ResetSOSC_TrustedCall+0x4a>)
    219c:	f8d3 3100 	ldr.w	r3, [r3, #256]	; 0x100
    21a0:	4a0f      	ldr	r2, [pc, #60]	; (21e0 <Clock_Ip_ResetSOSC_TrustedCall+0x4a>)
    21a2:	f423 0300 	bic.w	r3, r3, #8388608	; 0x800000
    21a6:	f8c2 3100 	str.w	r3, [r2, #256]	; 0x100
    21aa:	4b0d      	ldr	r3, [pc, #52]	; (21e0 <Clock_Ip_ResetSOSC_TrustedCall+0x4a>)
    21ac:	f8d3 3100 	ldr.w	r3, [r3, #256]	; 0x100
    21b0:	4a0b      	ldr	r2, [pc, #44]	; (21e0 <Clock_Ip_ResetSOSC_TrustedCall+0x4a>)
    21b2:	f423 3380 	bic.w	r3, r3, #65536	; 0x10000
    21b6:	f8c2 3100 	str.w	r3, [r2, #256]	; 0x100
    21ba:	4b09      	ldr	r3, [pc, #36]	; (21e0 <Clock_Ip_ResetSOSC_TrustedCall+0x4a>)
    21bc:	f8d3 3100 	ldr.w	r3, [r3, #256]	; 0x100
    21c0:	4a07      	ldr	r2, [pc, #28]	; (21e0 <Clock_Ip_ResetSOSC_TrustedCall+0x4a>)
    21c2:	f423 3300 	bic.w	r3, r3, #131072	; 0x20000
    21c6:	f8c2 3100 	str.w	r3, [r2, #256]	; 0x100
    21ca:	4b05      	ldr	r3, [pc, #20]	; (21e0 <Clock_Ip_ResetSOSC_TrustedCall+0x4a>)
    21cc:	f8d3 3100 	ldr.w	r3, [r3, #256]	; 0x100
    21d0:	4a03      	ldr	r2, [pc, #12]	; (21e0 <Clock_Ip_ResetSOSC_TrustedCall+0x4a>)
    21d2:	f023 0301 	bic.w	r3, r3, #1
    21d6:	f8c2 3100 	str.w	r3, [r2, #256]	; 0x100
    21da:	bf00      	nop
    21dc:	b002      	add	sp, #8
    21de:	4770      	bx	lr
    21e0:	40064000 	.word	0x40064000

000021e4 <Clock_Ip_SetSOSC_TrustedCall>:
    21e4:	b082      	sub	sp, #8
    21e6:	9001      	str	r0, [sp, #4]
    21e8:	9b01      	ldr	r3, [sp, #4]
    21ea:	891b      	ldrh	r3, [r3, #8]
    21ec:	2b01      	cmp	r3, #1
    21ee:	d174      	bne.n	22da <Clock_Ip_SetSOSC_TrustedCall+0xf6>
    21f0:	9b01      	ldr	r3, [sp, #4]
    21f2:	7bdb      	ldrb	r3, [r3, #15]
    21f4:	2b00      	cmp	r3, #0
    21f6:	d002      	beq.n	21fe <Clock_Ip_SetSOSC_TrustedCall+0x1a>
    21f8:	2b01      	cmp	r3, #1
    21fa:	d009      	beq.n	2210 <Clock_Ip_SetSOSC_TrustedCall+0x2c>
    21fc:	e011      	b.n	2222 <Clock_Ip_SetSOSC_TrustedCall+0x3e>
    21fe:	4b39      	ldr	r3, [pc, #228]	; (22e4 <Clock_Ip_SetSOSC_TrustedCall+0x100>)
    2200:	f8d3 3108 	ldr.w	r3, [r3, #264]	; 0x108
    2204:	4a37      	ldr	r2, [pc, #220]	; (22e4 <Clock_Ip_SetSOSC_TrustedCall+0x100>)
    2206:	f023 0308 	bic.w	r3, r3, #8
    220a:	f8c2 3108 	str.w	r3, [r2, #264]	; 0x108
    220e:	e008      	b.n	2222 <Clock_Ip_SetSOSC_TrustedCall+0x3e>
    2210:	4b34      	ldr	r3, [pc, #208]	; (22e4 <Clock_Ip_SetSOSC_TrustedCall+0x100>)
    2212:	f8d3 3108 	ldr.w	r3, [r3, #264]	; 0x108
    2216:	4a33      	ldr	r2, [pc, #204]	; (22e4 <Clock_Ip_SetSOSC_TrustedCall+0x100>)
    2218:	f043 0308 	orr.w	r3, r3, #8
    221c:	f8c2 3108 	str.w	r3, [r2, #264]	; 0x108
    2220:	bf00      	nop
    2222:	4b30      	ldr	r3, [pc, #192]	; (22e4 <Clock_Ip_SetSOSC_TrustedCall+0x100>)
    2224:	f8d3 3108 	ldr.w	r3, [r3, #264]	; 0x108
    2228:	4a2e      	ldr	r2, [pc, #184]	; (22e4 <Clock_Ip_SetSOSC_TrustedCall+0x100>)
    222a:	f023 0330 	bic.w	r3, r3, #48	; 0x30
    222e:	f8c2 3108 	str.w	r3, [r2, #264]	; 0x108
    2232:	9b01      	ldr	r3, [sp, #4]
    2234:	685b      	ldr	r3, [r3, #4]
    2236:	4a2c      	ldr	r2, [pc, #176]	; (22e8 <Clock_Ip_SetSOSC_TrustedCall+0x104>)
    2238:	4293      	cmp	r3, r2
    223a:	d90d      	bls.n	2258 <Clock_Ip_SetSOSC_TrustedCall+0x74>
    223c:	9b01      	ldr	r3, [sp, #4]
    223e:	685b      	ldr	r3, [r3, #4]
    2240:	4a2a      	ldr	r2, [pc, #168]	; (22ec <Clock_Ip_SetSOSC_TrustedCall+0x108>)
    2242:	4293      	cmp	r3, r2
    2244:	d208      	bcs.n	2258 <Clock_Ip_SetSOSC_TrustedCall+0x74>
    2246:	4b27      	ldr	r3, [pc, #156]	; (22e4 <Clock_Ip_SetSOSC_TrustedCall+0x100>)
    2248:	f8d3 3108 	ldr.w	r3, [r3, #264]	; 0x108
    224c:	4a25      	ldr	r2, [pc, #148]	; (22e4 <Clock_Ip_SetSOSC_TrustedCall+0x100>)
    224e:	f043 0320 	orr.w	r3, r3, #32
    2252:	f8c2 3108 	str.w	r3, [r2, #264]	; 0x108
    2256:	e007      	b.n	2268 <Clock_Ip_SetSOSC_TrustedCall+0x84>
    2258:	4b22      	ldr	r3, [pc, #136]	; (22e4 <Clock_Ip_SetSOSC_TrustedCall+0x100>)
    225a:	f8d3 3108 	ldr.w	r3, [r3, #264]	; 0x108
    225e:	4a21      	ldr	r2, [pc, #132]	; (22e4 <Clock_Ip_SetSOSC_TrustedCall+0x100>)
    2260:	f043 0330 	orr.w	r3, r3, #48	; 0x30
    2264:	f8c2 3108 	str.w	r3, [r2, #264]	; 0x108
    2268:	9b01      	ldr	r3, [sp, #4]
    226a:	7b1b      	ldrb	r3, [r3, #12]
    226c:	2b00      	cmp	r3, #0
    226e:	d108      	bne.n	2282 <Clock_Ip_SetSOSC_TrustedCall+0x9e>
    2270:	4b1c      	ldr	r3, [pc, #112]	; (22e4 <Clock_Ip_SetSOSC_TrustedCall+0x100>)
    2272:	f8d3 3108 	ldr.w	r3, [r3, #264]	; 0x108
    2276:	4a1b      	ldr	r2, [pc, #108]	; (22e4 <Clock_Ip_SetSOSC_TrustedCall+0x100>)
    2278:	f043 0304 	orr.w	r3, r3, #4
    227c:	f8c2 3108 	str.w	r3, [r2, #264]	; 0x108
    2280:	e007      	b.n	2292 <Clock_Ip_SetSOSC_TrustedCall+0xae>
    2282:	4b18      	ldr	r3, [pc, #96]	; (22e4 <Clock_Ip_SetSOSC_TrustedCall+0x100>)
    2284:	f8d3 3108 	ldr.w	r3, [r3, #264]	; 0x108
    2288:	4a16      	ldr	r2, [pc, #88]	; (22e4 <Clock_Ip_SetSOSC_TrustedCall+0x100>)
    228a:	f023 0304 	bic.w	r3, r3, #4
    228e:	f8c2 3108 	str.w	r3, [r2, #264]	; 0x108
    2292:	9b01      	ldr	r3, [sp, #4]
    2294:	7c1b      	ldrb	r3, [r3, #16]
    2296:	2b02      	cmp	r3, #2
    2298:	d011      	beq.n	22be <Clock_Ip_SetSOSC_TrustedCall+0xda>
    229a:	2b02      	cmp	r3, #2
    229c:	dc14      	bgt.n	22c8 <Clock_Ip_SetSOSC_TrustedCall+0xe4>
    229e:	2b00      	cmp	r3, #0
    22a0:	d002      	beq.n	22a8 <Clock_Ip_SetSOSC_TrustedCall+0xc4>
    22a2:	2b01      	cmp	r3, #1
    22a4:	d005      	beq.n	22b2 <Clock_Ip_SetSOSC_TrustedCall+0xce>
    22a6:	e00f      	b.n	22c8 <Clock_Ip_SetSOSC_TrustedCall+0xe4>
    22a8:	4b0e      	ldr	r3, [pc, #56]	; (22e4 <Clock_Ip_SetSOSC_TrustedCall+0x100>)
    22aa:	2201      	movs	r2, #1
    22ac:	f8c3 2100 	str.w	r2, [r3, #256]	; 0x100
    22b0:	e014      	b.n	22dc <Clock_Ip_SetSOSC_TrustedCall+0xf8>
    22b2:	4b0c      	ldr	r3, [pc, #48]	; (22e4 <Clock_Ip_SetSOSC_TrustedCall+0x100>)
    22b4:	f04f 1201 	mov.w	r2, #65537	; 0x10001
    22b8:	f8c3 2100 	str.w	r2, [r3, #256]	; 0x100
    22bc:	e00e      	b.n	22dc <Clock_Ip_SetSOSC_TrustedCall+0xf8>
    22be:	4b09      	ldr	r3, [pc, #36]	; (22e4 <Clock_Ip_SetSOSC_TrustedCall+0x100>)
    22c0:	4a0b      	ldr	r2, [pc, #44]	; (22f0 <Clock_Ip_SetSOSC_TrustedCall+0x10c>)
    22c2:	f8c3 2100 	str.w	r2, [r3, #256]	; 0x100
    22c6:	e009      	b.n	22dc <Clock_Ip_SetSOSC_TrustedCall+0xf8>
    22c8:	4b06      	ldr	r3, [pc, #24]	; (22e4 <Clock_Ip_SetSOSC_TrustedCall+0x100>)
    22ca:	f8d3 3100 	ldr.w	r3, [r3, #256]	; 0x100
    22ce:	4a05      	ldr	r2, [pc, #20]	; (22e4 <Clock_Ip_SetSOSC_TrustedCall+0x100>)
    22d0:	f043 0301 	orr.w	r3, r3, #1
    22d4:	f8c2 3100 	str.w	r3, [r2, #256]	; 0x100
    22d8:	e000      	b.n	22dc <Clock_Ip_SetSOSC_TrustedCall+0xf8>
    22da:	bf00      	nop
    22dc:	bf00      	nop
    22de:	b002      	add	sp, #8
    22e0:	4770      	bx	lr
    22e2:	bf00      	nop
    22e4:	40064000 	.word	0x40064000
    22e8:	003d08ff 	.word	0x003d08ff
    22ec:	007a1200 	.word	0x007a1200
    22f0:	00030001 	.word	0x00030001

000022f4 <Clock_Ip_DisableSOSC_TrustedCall>:
    22f4:	b082      	sub	sp, #8
    22f6:	9001      	str	r0, [sp, #4]
    22f8:	4b05      	ldr	r3, [pc, #20]	; (2310 <Clock_Ip_DisableSOSC_TrustedCall+0x1c>)
    22fa:	f8d3 3100 	ldr.w	r3, [r3, #256]	; 0x100
    22fe:	4a04      	ldr	r2, [pc, #16]	; (2310 <Clock_Ip_DisableSOSC_TrustedCall+0x1c>)
    2300:	f023 0301 	bic.w	r3, r3, #1
    2304:	f8c2 3100 	str.w	r3, [r2, #256]	; 0x100
    2308:	bf00      	nop
    230a:	b002      	add	sp, #8
    230c:	4770      	bx	lr
    230e:	bf00      	nop
    2310:	40064000 	.word	0x40064000

00002314 <Clock_Ip_EnableSOSC_TrustedCall>:
    2314:	b082      	sub	sp, #8
    2316:	9001      	str	r0, [sp, #4]
    2318:	9b01      	ldr	r3, [sp, #4]
    231a:	891b      	ldrh	r3, [r3, #8]
    231c:	2b01      	cmp	r3, #1
    231e:	d107      	bne.n	2330 <Clock_Ip_EnableSOSC_TrustedCall+0x1c>
    2320:	4b05      	ldr	r3, [pc, #20]	; (2338 <Clock_Ip_EnableSOSC_TrustedCall+0x24>)
    2322:	f8d3 3100 	ldr.w	r3, [r3, #256]	; 0x100
    2326:	4a04      	ldr	r2, [pc, #16]	; (2338 <Clock_Ip_EnableSOSC_TrustedCall+0x24>)
    2328:	f043 0301 	orr.w	r3, r3, #1
    232c:	f8c2 3100 	str.w	r3, [r2, #256]	; 0x100
    2330:	bf00      	nop
    2332:	b002      	add	sp, #8
    2334:	4770      	bx	lr
    2336:	bf00      	nop
    2338:	40064000 	.word	0x40064000

0000233c <Clock_Ip_CallbackFracDivEmpty>:
    233c:	b082      	sub	sp, #8
    233e:	9001      	str	r0, [sp, #4]
    2340:	bf00      	nop
    2342:	b002      	add	sp, #8
    2344:	4770      	bx	lr

00002346 <Clock_Ip_CallbackFracDivEmptyComplete>:
    2346:	b082      	sub	sp, #8
    2348:	9001      	str	r0, [sp, #4]
    234a:	2300      	movs	r3, #0
    234c:	4618      	mov	r0, r3
    234e:	b002      	add	sp, #8
    2350:	4770      	bx	lr

00002352 <Clock_Ip_SetExternalSignalFrequency>:
    2352:	b082      	sub	sp, #8
    2354:	9001      	str	r0, [sp, #4]
    2356:	9100      	str	r1, [sp, #0]
    2358:	bf00      	nop
    235a:	b002      	add	sp, #8
    235c:	4770      	bx	lr
	...

00002360 <Clock_Ip_ClockSetGateEmpty>:
    2360:	b082      	sub	sp, #8
    2362:	9001      	str	r0, [sp, #4]
    2364:	bf00      	nop
    2366:	b002      	add	sp, #8
    2368:	4770      	bx	lr

0000236a <Clock_Ip_ClockUpdateGateEmpty>:
    236a:	b082      	sub	sp, #8
    236c:	9001      	str	r0, [sp, #4]
    236e:	460b      	mov	r3, r1
    2370:	f88d 3003 	strb.w	r3, [sp, #3]
    2374:	bf00      	nop
    2376:	b002      	add	sp, #8
    2378:	4770      	bx	lr

0000237a <Clock_Ip_ClockSetSimLPO1KEnable>:
    237a:	b500      	push	{lr}
    237c:	b083      	sub	sp, #12
    237e:	9001      	str	r0, [sp, #4]
    2380:	9b01      	ldr	r3, [sp, #4]
    2382:	2b00      	cmp	r3, #0
    2384:	d002      	beq.n	238c <Clock_Ip_ClockSetSimLPO1KEnable+0x12>
    2386:	9801      	ldr	r0, [sp, #4]
    2388:	f000 f8e7 	bl	255a <Clock_Ip_ClockSetSimLPO1KEnable_TrustedCall>
    238c:	bf00      	nop
    238e:	b003      	add	sp, #12
    2390:	f85d fb04 	ldr.w	pc, [sp], #4

00002394 <Clock_Ip_ClockUpdateSimLPO1KEnable>:
    2394:	b500      	push	{lr}
    2396:	b085      	sub	sp, #20
    2398:	9001      	str	r0, [sp, #4]
    239a:	460b      	mov	r3, r1
    239c:	f88d 3003 	strb.w	r3, [sp, #3]
    23a0:	9b01      	ldr	r3, [sp, #4]
    23a2:	9302      	str	r3, [sp, #8]
    23a4:	f89d 3003 	ldrb.w	r3, [sp, #3]
    23a8:	2b00      	cmp	r3, #0
    23aa:	d003      	beq.n	23b4 <Clock_Ip_ClockUpdateSimLPO1KEnable+0x20>
    23ac:	2300      	movs	r3, #0
    23ae:	f8ad 300c 	strh.w	r3, [sp, #12]
    23b2:	e002      	b.n	23ba <Clock_Ip_ClockUpdateSimLPO1KEnable+0x26>
    23b4:	2301      	movs	r3, #1
    23b6:	f8ad 300c 	strh.w	r3, [sp, #12]
    23ba:	ab02      	add	r3, sp, #8
    23bc:	4618      	mov	r0, r3
    23be:	f7ff ffdc 	bl	237a <Clock_Ip_ClockSetSimLPO1KEnable>
    23c2:	bf00      	nop
    23c4:	b005      	add	sp, #20
    23c6:	f85d fb04 	ldr.w	pc, [sp], #4

000023ca <Clock_Ip_ClockSetSimLPO32KEnable>:
    23ca:	b500      	push	{lr}
    23cc:	b083      	sub	sp, #12
    23ce:	9001      	str	r0, [sp, #4]
    23d0:	9b01      	ldr	r3, [sp, #4]
    23d2:	2b00      	cmp	r3, #0
    23d4:	d002      	beq.n	23dc <Clock_Ip_ClockSetSimLPO32KEnable+0x12>
    23d6:	9801      	ldr	r0, [sp, #4]
    23d8:	f000 f8d6 	bl	2588 <Clock_Ip_ClockSetSimLPO32KEnable_TrustedCall>
    23dc:	bf00      	nop
    23de:	b003      	add	sp, #12
    23e0:	f85d fb04 	ldr.w	pc, [sp], #4

000023e4 <Clock_Ip_ClockUpdateSimLPO32KEnable>:
    23e4:	b500      	push	{lr}
    23e6:	b085      	sub	sp, #20
    23e8:	9001      	str	r0, [sp, #4]
    23ea:	460b      	mov	r3, r1
    23ec:	f88d 3003 	strb.w	r3, [sp, #3]
    23f0:	9b01      	ldr	r3, [sp, #4]
    23f2:	9302      	str	r3, [sp, #8]
    23f4:	f89d 3003 	ldrb.w	r3, [sp, #3]
    23f8:	2b00      	cmp	r3, #0
    23fa:	d003      	beq.n	2404 <Clock_Ip_ClockUpdateSimLPO32KEnable+0x20>
    23fc:	2300      	movs	r3, #0
    23fe:	f8ad 300c 	strh.w	r3, [sp, #12]
    2402:	e002      	b.n	240a <Clock_Ip_ClockUpdateSimLPO32KEnable+0x26>
    2404:	2301      	movs	r3, #1
    2406:	f8ad 300c 	strh.w	r3, [sp, #12]
    240a:	ab02      	add	r3, sp, #8
    240c:	4618      	mov	r0, r3
    240e:	f7ff ffdc 	bl	23ca <Clock_Ip_ClockSetSimLPO32KEnable>
    2412:	bf00      	nop
    2414:	b005      	add	sp, #20
    2416:	f85d fb04 	ldr.w	pc, [sp], #4

0000241a <Clock_Ip_ClockSetSimClkoutEnable>:
    241a:	b500      	push	{lr}
    241c:	b083      	sub	sp, #12
    241e:	9001      	str	r0, [sp, #4]
    2420:	9b01      	ldr	r3, [sp, #4]
    2422:	2b00      	cmp	r3, #0
    2424:	d002      	beq.n	242c <Clock_Ip_ClockSetSimClkoutEnable+0x12>
    2426:	9801      	ldr	r0, [sp, #4]
    2428:	f000 f8c6 	bl	25b8 <Clock_Ip_ClockSetSimClkoutEnable_TrustedCall>
    242c:	bf00      	nop
    242e:	b003      	add	sp, #12
    2430:	f85d fb04 	ldr.w	pc, [sp], #4

00002434 <Clock_Ip_ClockUpdateSimClkoutEnable>:
    2434:	b500      	push	{lr}
    2436:	b085      	sub	sp, #20
    2438:	9001      	str	r0, [sp, #4]
    243a:	460b      	mov	r3, r1
    243c:	f88d 3003 	strb.w	r3, [sp, #3]
    2440:	9b01      	ldr	r3, [sp, #4]
    2442:	9302      	str	r3, [sp, #8]
    2444:	f89d 3003 	ldrb.w	r3, [sp, #3]
    2448:	2b00      	cmp	r3, #0
    244a:	d003      	beq.n	2454 <Clock_Ip_ClockUpdateSimClkoutEnable+0x20>
    244c:	2300      	movs	r3, #0
    244e:	f8ad 300c 	strh.w	r3, [sp, #12]
    2452:	e002      	b.n	245a <Clock_Ip_ClockUpdateSimClkoutEnable+0x26>
    2454:	2301      	movs	r3, #1
    2456:	f8ad 300c 	strh.w	r3, [sp, #12]
    245a:	ab02      	add	r3, sp, #8
    245c:	4618      	mov	r0, r3
    245e:	f7ff ffdc 	bl	241a <Clock_Ip_ClockSetSimClkoutEnable>
    2462:	bf00      	nop
    2464:	b005      	add	sp, #20
    2466:	f85d fb04 	ldr.w	pc, [sp], #4

0000246a <Clock_Ip_ClockSetPccCgcEnable>:
    246a:	b500      	push	{lr}
    246c:	b083      	sub	sp, #12
    246e:	9001      	str	r0, [sp, #4]
    2470:	9b01      	ldr	r3, [sp, #4]
    2472:	2b00      	cmp	r3, #0
    2474:	d002      	beq.n	247c <Clock_Ip_ClockSetPccCgcEnable+0x12>
    2476:	9801      	ldr	r0, [sp, #4]
    2478:	f000 f8b6 	bl	25e8 <Clock_Ip_ClockSetPccCgcEnable_TrustedCall>
    247c:	bf00      	nop
    247e:	b003      	add	sp, #12
    2480:	f85d fb04 	ldr.w	pc, [sp], #4

00002484 <Clock_Ip_ClockUpdatePccCgcEnable>:
    2484:	b500      	push	{lr}
    2486:	b085      	sub	sp, #20
    2488:	9001      	str	r0, [sp, #4]
    248a:	460b      	mov	r3, r1
    248c:	f88d 3003 	strb.w	r3, [sp, #3]
    2490:	9b01      	ldr	r3, [sp, #4]
    2492:	9302      	str	r3, [sp, #8]
    2494:	f89d 3003 	ldrb.w	r3, [sp, #3]
    2498:	2b00      	cmp	r3, #0
    249a:	d003      	beq.n	24a4 <Clock_Ip_ClockUpdatePccCgcEnable+0x20>
    249c:	2300      	movs	r3, #0
    249e:	f8ad 300c 	strh.w	r3, [sp, #12]
    24a2:	e002      	b.n	24aa <Clock_Ip_ClockUpdatePccCgcEnable+0x26>
    24a4:	2301      	movs	r3, #1
    24a6:	f8ad 300c 	strh.w	r3, [sp, #12]
    24aa:	ab02      	add	r3, sp, #8
    24ac:	4618      	mov	r0, r3
    24ae:	f7ff ffdc 	bl	246a <Clock_Ip_ClockSetPccCgcEnable>
    24b2:	bf00      	nop
    24b4:	b005      	add	sp, #20
    24b6:	f85d fb04 	ldr.w	pc, [sp], #4

000024ba <Clock_Ip_ClockSetSimGate>:
    24ba:	b500      	push	{lr}
    24bc:	b083      	sub	sp, #12
    24be:	9001      	str	r0, [sp, #4]
    24c0:	9b01      	ldr	r3, [sp, #4]
    24c2:	2b00      	cmp	r3, #0
    24c4:	d002      	beq.n	24cc <Clock_Ip_ClockSetSimGate+0x12>
    24c6:	9801      	ldr	r0, [sp, #4]
    24c8:	f000 f8bc 	bl	2644 <Clock_Ip_ClockSetSimGate_TrustedCall>
    24cc:	bf00      	nop
    24ce:	b003      	add	sp, #12
    24d0:	f85d fb04 	ldr.w	pc, [sp], #4

000024d4 <Clock_Ip_ClockUpdateSimGate>:
    24d4:	b500      	push	{lr}
    24d6:	b085      	sub	sp, #20
    24d8:	9001      	str	r0, [sp, #4]
    24da:	460b      	mov	r3, r1
    24dc:	f88d 3003 	strb.w	r3, [sp, #3]
    24e0:	9b01      	ldr	r3, [sp, #4]
    24e2:	9302      	str	r3, [sp, #8]
    24e4:	f89d 3003 	ldrb.w	r3, [sp, #3]
    24e8:	2b00      	cmp	r3, #0
    24ea:	d003      	beq.n	24f4 <Clock_Ip_ClockUpdateSimGate+0x20>
    24ec:	2300      	movs	r3, #0
    24ee:	f8ad 300c 	strh.w	r3, [sp, #12]
    24f2:	e002      	b.n	24fa <Clock_Ip_ClockUpdateSimGate+0x26>
    24f4:	2301      	movs	r3, #1
    24f6:	f8ad 300c 	strh.w	r3, [sp, #12]
    24fa:	ab02      	add	r3, sp, #8
    24fc:	4618      	mov	r0, r3
    24fe:	f7ff ffdc 	bl	24ba <Clock_Ip_ClockSetSimGate>
    2502:	bf00      	nop
    2504:	b005      	add	sp, #20
    2506:	f85d fb04 	ldr.w	pc, [sp], #4

0000250a <Clock_Ip_ClockSetSimTraceEnable>:
    250a:	b500      	push	{lr}
    250c:	b083      	sub	sp, #12
    250e:	9001      	str	r0, [sp, #4]
    2510:	9b01      	ldr	r3, [sp, #4]
    2512:	2b00      	cmp	r3, #0
    2514:	d002      	beq.n	251c <Clock_Ip_ClockSetSimTraceEnable+0x12>
    2516:	9801      	ldr	r0, [sp, #4]
    2518:	f000 f8c0 	bl	269c <Clock_Ip_ClockSetSimTraceEnable_TrustedCall>
    251c:	bf00      	nop
    251e:	b003      	add	sp, #12
    2520:	f85d fb04 	ldr.w	pc, [sp], #4

00002524 <Clock_Ip_ClockUpdateSimTraceEnable>:
    2524:	b500      	push	{lr}
    2526:	b085      	sub	sp, #20
    2528:	9001      	str	r0, [sp, #4]
    252a:	460b      	mov	r3, r1
    252c:	f88d 3003 	strb.w	r3, [sp, #3]
    2530:	9b01      	ldr	r3, [sp, #4]
    2532:	9302      	str	r3, [sp, #8]
    2534:	f89d 3003 	ldrb.w	r3, [sp, #3]
    2538:	2b00      	cmp	r3, #0
    253a:	d003      	beq.n	2544 <Clock_Ip_ClockUpdateSimTraceEnable+0x20>
    253c:	2300      	movs	r3, #0
    253e:	f8ad 300c 	strh.w	r3, [sp, #12]
    2542:	e002      	b.n	254a <Clock_Ip_ClockUpdateSimTraceEnable+0x26>
    2544:	2301      	movs	r3, #1
    2546:	f8ad 300c 	strh.w	r3, [sp, #12]
    254a:	ab02      	add	r3, sp, #8
    254c:	4618      	mov	r0, r3
    254e:	f7ff ffdc 	bl	250a <Clock_Ip_ClockSetSimTraceEnable>
    2552:	bf00      	nop
    2554:	b005      	add	sp, #20
    2556:	f85d fb04 	ldr.w	pc, [sp], #4

0000255a <Clock_Ip_ClockSetSimLPO1KEnable_TrustedCall>:
    255a:	b084      	sub	sp, #16
    255c:	9001      	str	r0, [sp, #4]
    255e:	4b09      	ldr	r3, [pc, #36]	; (2584 <Clock_Ip_ClockSetSimLPO1KEnable_TrustedCall+0x2a>)
    2560:	691b      	ldr	r3, [r3, #16]
    2562:	9303      	str	r3, [sp, #12]
    2564:	9b03      	ldr	r3, [sp, #12]
    2566:	f023 0301 	bic.w	r3, r3, #1
    256a:	9303      	str	r3, [sp, #12]
    256c:	9b01      	ldr	r3, [sp, #4]
    256e:	889b      	ldrh	r3, [r3, #4]
    2570:	461a      	mov	r2, r3
    2572:	9b03      	ldr	r3, [sp, #12]
    2574:	4313      	orrs	r3, r2
    2576:	9303      	str	r3, [sp, #12]
    2578:	4a02      	ldr	r2, [pc, #8]	; (2584 <Clock_Ip_ClockSetSimLPO1KEnable_TrustedCall+0x2a>)
    257a:	9b03      	ldr	r3, [sp, #12]
    257c:	6113      	str	r3, [r2, #16]
    257e:	bf00      	nop
    2580:	b004      	add	sp, #16
    2582:	4770      	bx	lr
    2584:	40048000 	.word	0x40048000

00002588 <Clock_Ip_ClockSetSimLPO32KEnable_TrustedCall>:
    2588:	b084      	sub	sp, #16
    258a:	9001      	str	r0, [sp, #4]
    258c:	4b09      	ldr	r3, [pc, #36]	; (25b4 <Clock_Ip_ClockSetSimLPO32KEnable_TrustedCall+0x2c>)
    258e:	691b      	ldr	r3, [r3, #16]
    2590:	9303      	str	r3, [sp, #12]
    2592:	9b03      	ldr	r3, [sp, #12]
    2594:	f023 0302 	bic.w	r3, r3, #2
    2598:	9303      	str	r3, [sp, #12]
    259a:	9b01      	ldr	r3, [sp, #4]
    259c:	889b      	ldrh	r3, [r3, #4]
    259e:	005b      	lsls	r3, r3, #1
    25a0:	9a03      	ldr	r2, [sp, #12]
    25a2:	4313      	orrs	r3, r2
    25a4:	9303      	str	r3, [sp, #12]
    25a6:	4a03      	ldr	r2, [pc, #12]	; (25b4 <Clock_Ip_ClockSetSimLPO32KEnable_TrustedCall+0x2c>)
    25a8:	9b03      	ldr	r3, [sp, #12]
    25aa:	6113      	str	r3, [r2, #16]
    25ac:	bf00      	nop
    25ae:	b004      	add	sp, #16
    25b0:	4770      	bx	lr
    25b2:	bf00      	nop
    25b4:	40048000 	.word	0x40048000

000025b8 <Clock_Ip_ClockSetSimClkoutEnable_TrustedCall>:
    25b8:	b084      	sub	sp, #16
    25ba:	9001      	str	r0, [sp, #4]
    25bc:	4b09      	ldr	r3, [pc, #36]	; (25e4 <Clock_Ip_ClockSetSimClkoutEnable_TrustedCall+0x2c>)
    25be:	685b      	ldr	r3, [r3, #4]
    25c0:	9303      	str	r3, [sp, #12]
    25c2:	9b03      	ldr	r3, [sp, #12]
    25c4:	f423 6300 	bic.w	r3, r3, #2048	; 0x800
    25c8:	9303      	str	r3, [sp, #12]
    25ca:	9b01      	ldr	r3, [sp, #4]
    25cc:	889b      	ldrh	r3, [r3, #4]
    25ce:	02db      	lsls	r3, r3, #11
    25d0:	9a03      	ldr	r2, [sp, #12]
    25d2:	4313      	orrs	r3, r2
    25d4:	9303      	str	r3, [sp, #12]
    25d6:	4a03      	ldr	r2, [pc, #12]	; (25e4 <Clock_Ip_ClockSetSimClkoutEnable_TrustedCall+0x2c>)
    25d8:	9b03      	ldr	r3, [sp, #12]
    25da:	6053      	str	r3, [r2, #4]
    25dc:	bf00      	nop
    25de:	b004      	add	sp, #16
    25e0:	4770      	bx	lr
    25e2:	bf00      	nop
    25e4:	40048000 	.word	0x40048000

000025e8 <Clock_Ip_ClockSetPccCgcEnable_TrustedCall>:
    25e8:	b084      	sub	sp, #16
    25ea:	9001      	str	r0, [sp, #4]
    25ec:	4913      	ldr	r1, [pc, #76]	; (263c <Clock_Ip_ClockSetPccCgcEnable_TrustedCall+0x54>)
    25ee:	9b01      	ldr	r3, [sp, #4]
    25f0:	681a      	ldr	r2, [r3, #0]
    25f2:	4813      	ldr	r0, [pc, #76]	; (2640 <Clock_Ip_ClockSetPccCgcEnable_TrustedCall+0x58>)
    25f4:	4613      	mov	r3, r2
    25f6:	00db      	lsls	r3, r3, #3
    25f8:	4413      	add	r3, r2
    25fa:	4403      	add	r3, r0
    25fc:	3306      	adds	r3, #6
    25fe:	781b      	ldrb	r3, [r3, #0]
    2600:	f851 3023 	ldr.w	r3, [r1, r3, lsl #2]
    2604:	9303      	str	r3, [sp, #12]
    2606:	9b03      	ldr	r3, [sp, #12]
    2608:	f023 4380 	bic.w	r3, r3, #1073741824	; 0x40000000
    260c:	9303      	str	r3, [sp, #12]
    260e:	9b01      	ldr	r3, [sp, #4]
    2610:	889b      	ldrh	r3, [r3, #4]
    2612:	079b      	lsls	r3, r3, #30
    2614:	9a03      	ldr	r2, [sp, #12]
    2616:	4313      	orrs	r3, r2
    2618:	9303      	str	r3, [sp, #12]
    261a:	4908      	ldr	r1, [pc, #32]	; (263c <Clock_Ip_ClockSetPccCgcEnable_TrustedCall+0x54>)
    261c:	9b01      	ldr	r3, [sp, #4]
    261e:	681a      	ldr	r2, [r3, #0]
    2620:	4807      	ldr	r0, [pc, #28]	; (2640 <Clock_Ip_ClockSetPccCgcEnable_TrustedCall+0x58>)
    2622:	4613      	mov	r3, r2
    2624:	00db      	lsls	r3, r3, #3
    2626:	4413      	add	r3, r2
    2628:	4403      	add	r3, r0
    262a:	3306      	adds	r3, #6
    262c:	781b      	ldrb	r3, [r3, #0]
    262e:	461a      	mov	r2, r3
    2630:	9b03      	ldr	r3, [sp, #12]
    2632:	f841 3022 	str.w	r3, [r1, r2, lsl #2]
    2636:	bf00      	nop
    2638:	b004      	add	sp, #16
    263a:	4770      	bx	lr
    263c:	40065000 	.word	0x40065000
    2640:	0000b3f4 	.word	0x0000b3f4

00002644 <Clock_Ip_ClockSetSimGate_TrustedCall>:
    2644:	b086      	sub	sp, #24
    2646:	9001      	str	r0, [sp, #4]
    2648:	9b01      	ldr	r3, [sp, #4]
    264a:	889b      	ldrh	r3, [r3, #4]
    264c:	9305      	str	r3, [sp, #20]
    264e:	9b01      	ldr	r3, [sp, #4]
    2650:	681a      	ldr	r2, [r3, #0]
    2652:	4910      	ldr	r1, [pc, #64]	; (2694 <Clock_Ip_ClockSetSimGate_TrustedCall+0x50>)
    2654:	4613      	mov	r3, r2
    2656:	00db      	lsls	r3, r3, #3
    2658:	4413      	add	r3, r2
    265a:	440b      	add	r3, r1
    265c:	3306      	adds	r3, #6
    265e:	781b      	ldrb	r3, [r3, #0]
    2660:	9304      	str	r3, [sp, #16]
    2662:	4b0d      	ldr	r3, [pc, #52]	; (2698 <Clock_Ip_ClockSetSimGate_TrustedCall+0x54>)
    2664:	6c1b      	ldr	r3, [r3, #64]	; 0x40
    2666:	9303      	str	r3, [sp, #12]
    2668:	2201      	movs	r2, #1
    266a:	9b04      	ldr	r3, [sp, #16]
    266c:	fa02 f303 	lsl.w	r3, r2, r3
    2670:	43db      	mvns	r3, r3
    2672:	9a03      	ldr	r2, [sp, #12]
    2674:	4013      	ands	r3, r2
    2676:	9303      	str	r3, [sp, #12]
    2678:	9a05      	ldr	r2, [sp, #20]
    267a:	9b04      	ldr	r3, [sp, #16]
    267c:	fa02 f303 	lsl.w	r3, r2, r3
    2680:	9a03      	ldr	r2, [sp, #12]
    2682:	4313      	orrs	r3, r2
    2684:	9303      	str	r3, [sp, #12]
    2686:	4a04      	ldr	r2, [pc, #16]	; (2698 <Clock_Ip_ClockSetSimGate_TrustedCall+0x54>)
    2688:	9b03      	ldr	r3, [sp, #12]
    268a:	6413      	str	r3, [r2, #64]	; 0x40
    268c:	bf00      	nop
    268e:	b006      	add	sp, #24
    2690:	4770      	bx	lr
    2692:	bf00      	nop
    2694:	0000b3f4 	.word	0x0000b3f4
    2698:	40048000 	.word	0x40048000

0000269c <Clock_Ip_ClockSetSimTraceEnable_TrustedCall>:
    269c:	b084      	sub	sp, #16
    269e:	9001      	str	r0, [sp, #4]
    26a0:	4b0a      	ldr	r3, [pc, #40]	; (26cc <Clock_Ip_ClockSetSimTraceEnable_TrustedCall+0x30>)
    26a2:	6e9b      	ldr	r3, [r3, #104]	; 0x68
    26a4:	9303      	str	r3, [sp, #12]
    26a6:	9b01      	ldr	r3, [sp, #4]
    26a8:	889b      	ldrh	r3, [r3, #4]
    26aa:	2b01      	cmp	r3, #1
    26ac:	d104      	bne.n	26b8 <Clock_Ip_ClockSetSimTraceEnable_TrustedCall+0x1c>
    26ae:	9b03      	ldr	r3, [sp, #12]
    26b0:	f043 5380 	orr.w	r3, r3, #268435456	; 0x10000000
    26b4:	9303      	str	r3, [sp, #12]
    26b6:	e003      	b.n	26c0 <Clock_Ip_ClockSetSimTraceEnable_TrustedCall+0x24>
    26b8:	9b03      	ldr	r3, [sp, #12]
    26ba:	f023 5380 	bic.w	r3, r3, #268435456	; 0x10000000
    26be:	9303      	str	r3, [sp, #12]
    26c0:	4a02      	ldr	r2, [pc, #8]	; (26cc <Clock_Ip_ClockSetSimTraceEnable_TrustedCall+0x30>)
    26c2:	9b03      	ldr	r3, [sp, #12]
    26c4:	6693      	str	r3, [r2, #104]	; 0x68
    26c6:	bf00      	nop
    26c8:	b004      	add	sp, #16
    26ca:	4770      	bx	lr
    26cc:	40048000 	.word	0x40048000

000026d0 <Clock_Ip_InternalOscillatorEmpty>:
    26d0:	b082      	sub	sp, #8
    26d2:	9001      	str	r0, [sp, #4]
    26d4:	bf00      	nop
    26d6:	b002      	add	sp, #8
    26d8:	4770      	bx	lr

000026da <Clock_Ip_InternalOscillatorEmpty_Disable>:
    26da:	b082      	sub	sp, #8
    26dc:	9001      	str	r0, [sp, #4]
    26de:	bf00      	nop
    26e0:	b002      	add	sp, #8
    26e2:	4770      	bx	lr

000026e4 <Clock_Ip_SetSirc>:
    26e4:	b500      	push	{lr}
    26e6:	b083      	sub	sp, #12
    26e8:	9001      	str	r0, [sp, #4]
    26ea:	9b01      	ldr	r3, [sp, #4]
    26ec:	2b00      	cmp	r3, #0
    26ee:	d002      	beq.n	26f6 <Clock_Ip_SetSirc+0x12>
    26f0:	9801      	ldr	r0, [sp, #4]
    26f2:	f000 f8d1 	bl	2898 <Clock_Ip_SetSirc_TrustedCall>
    26f6:	bf00      	nop
    26f8:	b003      	add	sp, #12
    26fa:	f85d fb04 	ldr.w	pc, [sp], #4

000026fe <Clock_Ip_EnableSirc>:
    26fe:	b500      	push	{lr}
    2700:	b083      	sub	sp, #12
    2702:	9001      	str	r0, [sp, #4]
    2704:	9b01      	ldr	r3, [sp, #4]
    2706:	2b00      	cmp	r3, #0
    2708:	d002      	beq.n	2710 <Clock_Ip_EnableSirc+0x12>
    270a:	9801      	ldr	r0, [sp, #4]
    270c:	f000 f950 	bl	29b0 <Clock_Ip_EnableSirc_TrustedCall>
    2710:	bf00      	nop
    2712:	b003      	add	sp, #12
    2714:	f85d fb04 	ldr.w	pc, [sp], #4

00002718 <Clock_Ip_DisableSirc>:
    2718:	b500      	push	{lr}
    271a:	b083      	sub	sp, #12
    271c:	9001      	str	r0, [sp, #4]
    271e:	9801      	ldr	r0, [sp, #4]
    2720:	f000 f98e 	bl	2a40 <Clock_Ip_DisableSirc_TrustedCall>
    2724:	bf00      	nop
    2726:	b003      	add	sp, #12
    2728:	f85d fb04 	ldr.w	pc, [sp], #4

0000272c <Clock_Ip_SetSircVlp>:
    272c:	b500      	push	{lr}
    272e:	b083      	sub	sp, #12
    2730:	9001      	str	r0, [sp, #4]
    2732:	9b01      	ldr	r3, [sp, #4]
    2734:	2b00      	cmp	r3, #0
    2736:	d002      	beq.n	273e <Clock_Ip_SetSircVlp+0x12>
    2738:	9801      	ldr	r0, [sp, #4]
    273a:	f000 f999 	bl	2a70 <Clock_Ip_SetSircVlp_TrustedCall>
    273e:	bf00      	nop
    2740:	b003      	add	sp, #12
    2742:	f85d fb04 	ldr.w	pc, [sp], #4

00002746 <Clock_Ip_EnableSircVlp>:
    2746:	b500      	push	{lr}
    2748:	b083      	sub	sp, #12
    274a:	9001      	str	r0, [sp, #4]
    274c:	9b01      	ldr	r3, [sp, #4]
    274e:	2b00      	cmp	r3, #0
    2750:	d002      	beq.n	2758 <Clock_Ip_EnableSircVlp+0x12>
    2752:	9801      	ldr	r0, [sp, #4]
    2754:	f000 f9b0 	bl	2ab8 <Clock_Ip_EnableSircVlp_TrustedCall>
    2758:	bf00      	nop
    275a:	b003      	add	sp, #12
    275c:	f85d fb04 	ldr.w	pc, [sp], #4

00002760 <Clock_Ip_DisableSircVlp>:
    2760:	b500      	push	{lr}
    2762:	b083      	sub	sp, #12
    2764:	9001      	str	r0, [sp, #4]
    2766:	9801      	ldr	r0, [sp, #4]
    2768:	f000 f9ba 	bl	2ae0 <Clock_Ip_DisableSircVlp_TrustedCall>
    276c:	bf00      	nop
    276e:	b003      	add	sp, #12
    2770:	f85d fb04 	ldr.w	pc, [sp], #4

00002774 <Clock_Ip_SetSircStop>:
    2774:	b500      	push	{lr}
    2776:	b083      	sub	sp, #12
    2778:	9001      	str	r0, [sp, #4]
    277a:	9b01      	ldr	r3, [sp, #4]
    277c:	2b00      	cmp	r3, #0
    277e:	d002      	beq.n	2786 <Clock_Ip_SetSircStop+0x12>
    2780:	9801      	ldr	r0, [sp, #4]
    2782:	f000 f9bd 	bl	2b00 <Clock_Ip_SetSircStop_TrustedCall>
    2786:	bf00      	nop
    2788:	b003      	add	sp, #12
    278a:	f85d fb04 	ldr.w	pc, [sp], #4

0000278e <Clock_Ip_EnableSircStop>:
    278e:	b500      	push	{lr}
    2790:	b083      	sub	sp, #12
    2792:	9001      	str	r0, [sp, #4]
    2794:	9b01      	ldr	r3, [sp, #4]
    2796:	2b00      	cmp	r3, #0
    2798:	d002      	beq.n	27a0 <Clock_Ip_EnableSircStop+0x12>
    279a:	9801      	ldr	r0, [sp, #4]
    279c:	f000 f9d4 	bl	2b48 <Clock_Ip_EnableSircStop_TrustedCall>
    27a0:	bf00      	nop
    27a2:	b003      	add	sp, #12
    27a4:	f85d fb04 	ldr.w	pc, [sp], #4

000027a8 <Clock_Ip_DisableSircStop>:
    27a8:	b500      	push	{lr}
    27aa:	b083      	sub	sp, #12
    27ac:	9001      	str	r0, [sp, #4]
    27ae:	9801      	ldr	r0, [sp, #4]
    27b0:	f000 f9de 	bl	2b70 <Clock_Ip_DisableSircStop_TrustedCall>
    27b4:	bf00      	nop
    27b6:	b003      	add	sp, #12
    27b8:	f85d fb04 	ldr.w	pc, [sp], #4

000027bc <SetInputSouceSytemClock>:
    27bc:	b500      	push	{lr}
    27be:	b089      	sub	sp, #36	; 0x24
    27c0:	9001      	str	r0, [sp, #4]
    27c2:	2300      	movs	r3, #0
    27c4:	f88d 301f 	strb.w	r3, [sp, #31]
    27c8:	4b20      	ldr	r3, [pc, #128]	; (284c <SetInputSouceSytemClock+0x90>)
    27ca:	695b      	ldr	r3, [r3, #20]
    27cc:	9306      	str	r3, [sp, #24]
    27ce:	9b06      	ldr	r3, [sp, #24]
    27d0:	f023 6370 	bic.w	r3, r3, #251658240	; 0xf000000
    27d4:	9306      	str	r3, [sp, #24]
    27d6:	9b01      	ldr	r3, [sp, #4]
    27d8:	061b      	lsls	r3, r3, #24
    27da:	9a06      	ldr	r2, [sp, #24]
    27dc:	4313      	orrs	r3, r2
    27de:	9306      	str	r3, [sp, #24]
    27e0:	4a1a      	ldr	r2, [pc, #104]	; (284c <SetInputSouceSytemClock+0x90>)
    27e2:	9b06      	ldr	r3, [sp, #24]
    27e4:	6153      	str	r3, [r2, #20]
    27e6:	aa02      	add	r2, sp, #8
    27e8:	a903      	add	r1, sp, #12
    27ea:	a804      	add	r0, sp, #16
    27ec:	f24c 3350 	movw	r3, #50000	; 0xc350
    27f0:	f7ff f9ac 	bl	1b4c <Clock_Ip_StartTimeout>
    27f4:	4b15      	ldr	r3, [pc, #84]	; (284c <SetInputSouceSytemClock+0x90>)
    27f6:	691b      	ldr	r3, [r3, #16]
    27f8:	0e1b      	lsrs	r3, r3, #24
    27fa:	f003 030f 	and.w	r3, r3, #15
    27fe:	9a01      	ldr	r2, [sp, #4]
    2800:	429a      	cmp	r2, r3
    2802:	bf0c      	ite	eq
    2804:	2301      	moveq	r3, #1
    2806:	2300      	movne	r3, #0
    2808:	b2db      	uxtb	r3, r3
    280a:	9305      	str	r3, [sp, #20]
    280c:	9a02      	ldr	r2, [sp, #8]
    280e:	a903      	add	r1, sp, #12
    2810:	ab04      	add	r3, sp, #16
    2812:	4618      	mov	r0, r3
    2814:	f7ff f9b4 	bl	1b80 <Clock_Ip_TimeoutExpired>
    2818:	4603      	mov	r3, r0
    281a:	f88d 301f 	strb.w	r3, [sp, #31]
    281e:	9b05      	ldr	r3, [sp, #20]
    2820:	2b00      	cmp	r3, #0
    2822:	d106      	bne.n	2832 <SetInputSouceSytemClock+0x76>
    2824:	f89d 301f 	ldrb.w	r3, [sp, #31]
    2828:	f083 0301 	eor.w	r3, r3, #1
    282c:	b2db      	uxtb	r3, r3
    282e:	2b00      	cmp	r3, #0
    2830:	d1e0      	bne.n	27f4 <SetInputSouceSytemClock+0x38>
    2832:	f89d 301f 	ldrb.w	r3, [sp, #31]
    2836:	2b00      	cmp	r3, #0
    2838:	d003      	beq.n	2842 <SetInputSouceSytemClock+0x86>
    283a:	2105      	movs	r1, #5
    283c:	2001      	movs	r0, #1
    283e:	f7ff f975 	bl	1b2c <Clock_Ip_ReportClockErrors>
    2842:	bf00      	nop
    2844:	b009      	add	sp, #36	; 0x24
    2846:	f85d fb04 	ldr.w	pc, [sp], #4
    284a:	bf00      	nop
    284c:	40064000 	.word	0x40064000

00002850 <Clock_Ip_SetFirc>:
    2850:	b500      	push	{lr}
    2852:	b083      	sub	sp, #12
    2854:	9001      	str	r0, [sp, #4]
    2856:	9b01      	ldr	r3, [sp, #4]
    2858:	2b00      	cmp	r3, #0
    285a:	d002      	beq.n	2862 <Clock_Ip_SetFirc+0x12>
    285c:	9801      	ldr	r0, [sp, #4]
    285e:	f000 f997 	bl	2b90 <Clock_Ip_SetFirc_TrustedCall>
    2862:	bf00      	nop
    2864:	b003      	add	sp, #12
    2866:	f85d fb04 	ldr.w	pc, [sp], #4

0000286a <Clock_Ip_EnableFirc>:
    286a:	b500      	push	{lr}
    286c:	b083      	sub	sp, #12
    286e:	9001      	str	r0, [sp, #4]
    2870:	9b01      	ldr	r3, [sp, #4]
    2872:	2b00      	cmp	r3, #0
    2874:	d002      	beq.n	287c <Clock_Ip_EnableFirc+0x12>
    2876:	9801      	ldr	r0, [sp, #4]
    2878:	f000 fa7e 	bl	2d78 <Clock_Ip_EnableFirc_TrustedCall>
    287c:	bf00      	nop
    287e:	b003      	add	sp, #12
    2880:	f85d fb04 	ldr.w	pc, [sp], #4

00002884 <Clock_Ip_DisableFirc>:
    2884:	b500      	push	{lr}
    2886:	b083      	sub	sp, #12
    2888:	9001      	str	r0, [sp, #4]
    288a:	9801      	ldr	r0, [sp, #4]
    288c:	f000 fab8 	bl	2e00 <Clock_Ip_DisableFirc_TrustedCall>
    2890:	bf00      	nop
    2892:	b003      	add	sp, #12
    2894:	f85d fb04 	ldr.w	pc, [sp], #4

00002898 <Clock_Ip_SetSirc_TrustedCall>:
    2898:	b500      	push	{lr}
    289a:	b08b      	sub	sp, #44	; 0x2c
    289c:	9001      	str	r0, [sp, #4]
    289e:	2300      	movs	r3, #0
    28a0:	f88d 3027 	strb.w	r3, [sp, #39]	; 0x27
    28a4:	9b01      	ldr	r3, [sp, #4]
    28a6:	2b00      	cmp	r3, #0
    28a8:	d10b      	bne.n	28c2 <Clock_Ip_SetSirc_TrustedCall+0x2a>
    28aa:	2305      	movs	r3, #5
    28ac:	9302      	str	r3, [sp, #8]
    28ae:	2301      	movs	r3, #1
    28b0:	f88d 300f 	strb.w	r3, [sp, #15]
    28b4:	2301      	movs	r3, #1
    28b6:	f8ad 300c 	strh.w	r3, [sp, #12]
    28ba:	2301      	movs	r3, #1
    28bc:	f88d 3010 	strb.w	r3, [sp, #16]
    28c0:	e00e      	b.n	28e0 <Clock_Ip_SetSirc_TrustedCall+0x48>
    28c2:	9b01      	ldr	r3, [sp, #4]
    28c4:	681b      	ldr	r3, [r3, #0]
    28c6:	9302      	str	r3, [sp, #8]
    28c8:	9b01      	ldr	r3, [sp, #4]
    28ca:	79db      	ldrb	r3, [r3, #7]
    28cc:	f88d 300f 	strb.w	r3, [sp, #15]
    28d0:	9b01      	ldr	r3, [sp, #4]
    28d2:	889b      	ldrh	r3, [r3, #4]
    28d4:	f8ad 300c 	strh.w	r3, [sp, #12]
    28d8:	9b01      	ldr	r3, [sp, #4]
    28da:	7a1b      	ldrb	r3, [r3, #8]
    28dc:	f88d 3010 	strb.w	r3, [sp, #16]
    28e0:	4b32      	ldr	r3, [pc, #200]	; (29ac <Clock_Ip_SetSirc_TrustedCall+0x114>)
    28e2:	f8d3 3200 	ldr.w	r3, [r3, #512]	; 0x200
    28e6:	4a31      	ldr	r2, [pc, #196]	; (29ac <Clock_Ip_SetSirc_TrustedCall+0x114>)
    28e8:	f423 0300 	bic.w	r3, r3, #8388608	; 0x800000
    28ec:	f8c2 3200 	str.w	r3, [r2, #512]	; 0x200
    28f0:	4b2e      	ldr	r3, [pc, #184]	; (29ac <Clock_Ip_SetSirc_TrustedCall+0x114>)
    28f2:	f8d3 3200 	ldr.w	r3, [r3, #512]	; 0x200
    28f6:	4a2d      	ldr	r2, [pc, #180]	; (29ac <Clock_Ip_SetSirc_TrustedCall+0x114>)
    28f8:	f023 0301 	bic.w	r3, r3, #1
    28fc:	f8c2 3200 	str.w	r3, [r2, #512]	; 0x200
    2900:	4b2a      	ldr	r3, [pc, #168]	; (29ac <Clock_Ip_SetSirc_TrustedCall+0x114>)
    2902:	f8d3 3200 	ldr.w	r3, [r3, #512]	; 0x200
    2906:	4a29      	ldr	r2, [pc, #164]	; (29ac <Clock_Ip_SetSirc_TrustedCall+0x114>)
    2908:	f023 0304 	bic.w	r3, r3, #4
    290c:	f8c2 3200 	str.w	r3, [r2, #512]	; 0x200
    2910:	f8bd 300c 	ldrh.w	r3, [sp, #12]
    2914:	2b01      	cmp	r3, #1
    2916:	d144      	bne.n	29a2 <Clock_Ip_SetSirc_TrustedCall+0x10a>
    2918:	f89d 300f 	ldrb.w	r3, [sp, #15]
    291c:	4a23      	ldr	r2, [pc, #140]	; (29ac <Clock_Ip_SetSirc_TrustedCall+0x114>)
    291e:	f003 0301 	and.w	r3, r3, #1
    2922:	f8c2 3208 	str.w	r3, [r2, #520]	; 0x208
    2926:	4b21      	ldr	r3, [pc, #132]	; (29ac <Clock_Ip_SetSirc_TrustedCall+0x114>)
    2928:	f8d3 3200 	ldr.w	r3, [r3, #512]	; 0x200
    292c:	4a1f      	ldr	r2, [pc, #124]	; (29ac <Clock_Ip_SetSirc_TrustedCall+0x114>)
    292e:	f043 0301 	orr.w	r3, r3, #1
    2932:	f8c2 3200 	str.w	r3, [r2, #512]	; 0x200
    2936:	4b1d      	ldr	r3, [pc, #116]	; (29ac <Clock_Ip_SetSirc_TrustedCall+0x114>)
    2938:	f8d3 2200 	ldr.w	r2, [r3, #512]	; 0x200
    293c:	f89d 3010 	ldrb.w	r3, [sp, #16]
    2940:	009b      	lsls	r3, r3, #2
    2942:	f003 0304 	and.w	r3, r3, #4
    2946:	4919      	ldr	r1, [pc, #100]	; (29ac <Clock_Ip_SetSirc_TrustedCall+0x114>)
    2948:	4313      	orrs	r3, r2
    294a:	f8c1 3200 	str.w	r3, [r1, #512]	; 0x200
    294e:	aa05      	add	r2, sp, #20
    2950:	a906      	add	r1, sp, #24
    2952:	a807      	add	r0, sp, #28
    2954:	f24c 3350 	movw	r3, #50000	; 0xc350
    2958:	f7ff f8f8 	bl	1b4c <Clock_Ip_StartTimeout>
    295c:	4b13      	ldr	r3, [pc, #76]	; (29ac <Clock_Ip_SetSirc_TrustedCall+0x114>)
    295e:	f8d3 3200 	ldr.w	r3, [r3, #512]	; 0x200
    2962:	0e1b      	lsrs	r3, r3, #24
    2964:	f003 0301 	and.w	r3, r3, #1
    2968:	9308      	str	r3, [sp, #32]
    296a:	9a05      	ldr	r2, [sp, #20]
    296c:	a906      	add	r1, sp, #24
    296e:	ab07      	add	r3, sp, #28
    2970:	4618      	mov	r0, r3
    2972:	f7ff f905 	bl	1b80 <Clock_Ip_TimeoutExpired>
    2976:	4603      	mov	r3, r0
    2978:	f88d 3027 	strb.w	r3, [sp, #39]	; 0x27
    297c:	9b08      	ldr	r3, [sp, #32]
    297e:	2b00      	cmp	r3, #0
    2980:	d106      	bne.n	2990 <Clock_Ip_SetSirc_TrustedCall+0xf8>
    2982:	f89d 3027 	ldrb.w	r3, [sp, #39]	; 0x27
    2986:	f083 0301 	eor.w	r3, r3, #1
    298a:	b2db      	uxtb	r3, r3
    298c:	2b00      	cmp	r3, #0
    298e:	d1e5      	bne.n	295c <Clock_Ip_SetSirc_TrustedCall+0xc4>
    2990:	f89d 3027 	ldrb.w	r3, [sp, #39]	; 0x27
    2994:	2b00      	cmp	r3, #0
    2996:	d004      	beq.n	29a2 <Clock_Ip_SetSirc_TrustedCall+0x10a>
    2998:	9b02      	ldr	r3, [sp, #8]
    299a:	4619      	mov	r1, r3
    299c:	2001      	movs	r0, #1
    299e:	f7ff f8c5 	bl	1b2c <Clock_Ip_ReportClockErrors>
    29a2:	bf00      	nop
    29a4:	b00b      	add	sp, #44	; 0x2c
    29a6:	f85d fb04 	ldr.w	pc, [sp], #4
    29aa:	bf00      	nop
    29ac:	40064000 	.word	0x40064000

000029b0 <Clock_Ip_EnableSirc_TrustedCall>:
    29b0:	b500      	push	{lr}
    29b2:	b089      	sub	sp, #36	; 0x24
    29b4:	9001      	str	r0, [sp, #4]
    29b6:	2300      	movs	r3, #0
    29b8:	f88d 301f 	strb.w	r3, [sp, #31]
    29bc:	4b1f      	ldr	r3, [pc, #124]	; (2a3c <Clock_Ip_EnableSirc_TrustedCall+0x8c>)
    29be:	f8d3 3200 	ldr.w	r3, [r3, #512]	; 0x200
    29c2:	4a1e      	ldr	r2, [pc, #120]	; (2a3c <Clock_Ip_EnableSirc_TrustedCall+0x8c>)
    29c4:	f043 0301 	orr.w	r3, r3, #1
    29c8:	f8c2 3200 	str.w	r3, [r2, #512]	; 0x200
    29cc:	4b1b      	ldr	r3, [pc, #108]	; (2a3c <Clock_Ip_EnableSirc_TrustedCall+0x8c>)
    29ce:	f8d3 3200 	ldr.w	r3, [r3, #512]	; 0x200
    29d2:	4a1a      	ldr	r2, [pc, #104]	; (2a3c <Clock_Ip_EnableSirc_TrustedCall+0x8c>)
    29d4:	f043 0304 	orr.w	r3, r3, #4
    29d8:	f8c2 3200 	str.w	r3, [r2, #512]	; 0x200
    29dc:	aa03      	add	r2, sp, #12
    29de:	a904      	add	r1, sp, #16
    29e0:	a805      	add	r0, sp, #20
    29e2:	f24c 3350 	movw	r3, #50000	; 0xc350
    29e6:	f7ff f8b1 	bl	1b4c <Clock_Ip_StartTimeout>
    29ea:	4b14      	ldr	r3, [pc, #80]	; (2a3c <Clock_Ip_EnableSirc_TrustedCall+0x8c>)
    29ec:	f8d3 3200 	ldr.w	r3, [r3, #512]	; 0x200
    29f0:	0e1b      	lsrs	r3, r3, #24
    29f2:	f003 0301 	and.w	r3, r3, #1
    29f6:	9306      	str	r3, [sp, #24]
    29f8:	9a03      	ldr	r2, [sp, #12]
    29fa:	a904      	add	r1, sp, #16
    29fc:	ab05      	add	r3, sp, #20
    29fe:	4618      	mov	r0, r3
    2a00:	f7ff f8be 	bl	1b80 <Clock_Ip_TimeoutExpired>
    2a04:	4603      	mov	r3, r0
    2a06:	f88d 301f 	strb.w	r3, [sp, #31]
    2a0a:	9b06      	ldr	r3, [sp, #24]
    2a0c:	2b00      	cmp	r3, #0
    2a0e:	d106      	bne.n	2a1e <Clock_Ip_EnableSirc_TrustedCall+0x6e>
    2a10:	f89d 301f 	ldrb.w	r3, [sp, #31]
    2a14:	f083 0301 	eor.w	r3, r3, #1
    2a18:	b2db      	uxtb	r3, r3
    2a1a:	2b00      	cmp	r3, #0
    2a1c:	d1e5      	bne.n	29ea <Clock_Ip_EnableSirc_TrustedCall+0x3a>
    2a1e:	f89d 301f 	ldrb.w	r3, [sp, #31]
    2a22:	2b00      	cmp	r3, #0
    2a24:	d005      	beq.n	2a32 <Clock_Ip_EnableSirc_TrustedCall+0x82>
    2a26:	9b01      	ldr	r3, [sp, #4]
    2a28:	681b      	ldr	r3, [r3, #0]
    2a2a:	4619      	mov	r1, r3
    2a2c:	2001      	movs	r0, #1
    2a2e:	f7ff f87d 	bl	1b2c <Clock_Ip_ReportClockErrors>
    2a32:	bf00      	nop
    2a34:	b009      	add	sp, #36	; 0x24
    2a36:	f85d fb04 	ldr.w	pc, [sp], #4
    2a3a:	bf00      	nop
    2a3c:	40064000 	.word	0x40064000

00002a40 <Clock_Ip_DisableSirc_TrustedCall>:
    2a40:	b082      	sub	sp, #8
    2a42:	9001      	str	r0, [sp, #4]
    2a44:	4b09      	ldr	r3, [pc, #36]	; (2a6c <Clock_Ip_DisableSirc_TrustedCall+0x2c>)
    2a46:	f8d3 3200 	ldr.w	r3, [r3, #512]	; 0x200
    2a4a:	4a08      	ldr	r2, [pc, #32]	; (2a6c <Clock_Ip_DisableSirc_TrustedCall+0x2c>)
    2a4c:	f023 0301 	bic.w	r3, r3, #1
    2a50:	f8c2 3200 	str.w	r3, [r2, #512]	; 0x200
    2a54:	4b05      	ldr	r3, [pc, #20]	; (2a6c <Clock_Ip_DisableSirc_TrustedCall+0x2c>)
    2a56:	f8d3 3200 	ldr.w	r3, [r3, #512]	; 0x200
    2a5a:	4a04      	ldr	r2, [pc, #16]	; (2a6c <Clock_Ip_DisableSirc_TrustedCall+0x2c>)
    2a5c:	f023 0304 	bic.w	r3, r3, #4
    2a60:	f8c2 3200 	str.w	r3, [r2, #512]	; 0x200
    2a64:	bf00      	nop
    2a66:	b002      	add	sp, #8
    2a68:	4770      	bx	lr
    2a6a:	bf00      	nop
    2a6c:	40064000 	.word	0x40064000

00002a70 <Clock_Ip_SetSircVlp_TrustedCall>:
    2a70:	b082      	sub	sp, #8
    2a72:	9001      	str	r0, [sp, #4]
    2a74:	4b0f      	ldr	r3, [pc, #60]	; (2ab4 <Clock_Ip_SetSircVlp_TrustedCall+0x44>)
    2a76:	f8d3 3200 	ldr.w	r3, [r3, #512]	; 0x200
    2a7a:	4a0e      	ldr	r2, [pc, #56]	; (2ab4 <Clock_Ip_SetSircVlp_TrustedCall+0x44>)
    2a7c:	f423 0300 	bic.w	r3, r3, #8388608	; 0x800000
    2a80:	f8c2 3200 	str.w	r3, [r2, #512]	; 0x200
    2a84:	4b0b      	ldr	r3, [pc, #44]	; (2ab4 <Clock_Ip_SetSircVlp_TrustedCall+0x44>)
    2a86:	f8d3 3200 	ldr.w	r3, [r3, #512]	; 0x200
    2a8a:	4a0a      	ldr	r2, [pc, #40]	; (2ab4 <Clock_Ip_SetSircVlp_TrustedCall+0x44>)
    2a8c:	f023 0304 	bic.w	r3, r3, #4
    2a90:	f8c2 3200 	str.w	r3, [r2, #512]	; 0x200
    2a94:	4b07      	ldr	r3, [pc, #28]	; (2ab4 <Clock_Ip_SetSircVlp_TrustedCall+0x44>)
    2a96:	f8d3 2200 	ldr.w	r2, [r3, #512]	; 0x200
    2a9a:	9b01      	ldr	r3, [sp, #4]
    2a9c:	7a1b      	ldrb	r3, [r3, #8]
    2a9e:	009b      	lsls	r3, r3, #2
    2aa0:	f003 0304 	and.w	r3, r3, #4
    2aa4:	4903      	ldr	r1, [pc, #12]	; (2ab4 <Clock_Ip_SetSircVlp_TrustedCall+0x44>)
    2aa6:	4313      	orrs	r3, r2
    2aa8:	f8c1 3200 	str.w	r3, [r1, #512]	; 0x200
    2aac:	bf00      	nop
    2aae:	b002      	add	sp, #8
    2ab0:	4770      	bx	lr
    2ab2:	bf00      	nop
    2ab4:	40064000 	.word	0x40064000

00002ab8 <Clock_Ip_EnableSircVlp_TrustedCall>:
    2ab8:	b082      	sub	sp, #8
    2aba:	9001      	str	r0, [sp, #4]
    2abc:	9b01      	ldr	r3, [sp, #4]
    2abe:	889b      	ldrh	r3, [r3, #4]
    2ac0:	2b01      	cmp	r3, #1
    2ac2:	d107      	bne.n	2ad4 <Clock_Ip_EnableSircVlp_TrustedCall+0x1c>
    2ac4:	4b05      	ldr	r3, [pc, #20]	; (2adc <Clock_Ip_EnableSircVlp_TrustedCall+0x24>)
    2ac6:	f8d3 3200 	ldr.w	r3, [r3, #512]	; 0x200
    2aca:	4a04      	ldr	r2, [pc, #16]	; (2adc <Clock_Ip_EnableSircVlp_TrustedCall+0x24>)
    2acc:	f043 0304 	orr.w	r3, r3, #4
    2ad0:	f8c2 3200 	str.w	r3, [r2, #512]	; 0x200
    2ad4:	bf00      	nop
    2ad6:	b002      	add	sp, #8
    2ad8:	4770      	bx	lr
    2ada:	bf00      	nop
    2adc:	40064000 	.word	0x40064000

00002ae0 <Clock_Ip_DisableSircVlp_TrustedCall>:
    2ae0:	b082      	sub	sp, #8
    2ae2:	9001      	str	r0, [sp, #4]
    2ae4:	4b05      	ldr	r3, [pc, #20]	; (2afc <Clock_Ip_DisableSircVlp_TrustedCall+0x1c>)
    2ae6:	f8d3 3200 	ldr.w	r3, [r3, #512]	; 0x200
    2aea:	4a04      	ldr	r2, [pc, #16]	; (2afc <Clock_Ip_DisableSircVlp_TrustedCall+0x1c>)
    2aec:	f023 0304 	bic.w	r3, r3, #4
    2af0:	f8c2 3200 	str.w	r3, [r2, #512]	; 0x200
    2af4:	bf00      	nop
    2af6:	b002      	add	sp, #8
    2af8:	4770      	bx	lr
    2afa:	bf00      	nop
    2afc:	40064000 	.word	0x40064000

00002b00 <Clock_Ip_SetSircStop_TrustedCall>:
    2b00:	b082      	sub	sp, #8
    2b02:	9001      	str	r0, [sp, #4]
    2b04:	4b0f      	ldr	r3, [pc, #60]	; (2b44 <Clock_Ip_SetSircStop_TrustedCall+0x44>)
    2b06:	f8d3 3200 	ldr.w	r3, [r3, #512]	; 0x200
    2b0a:	4a0e      	ldr	r2, [pc, #56]	; (2b44 <Clock_Ip_SetSircStop_TrustedCall+0x44>)
    2b0c:	f423 0300 	bic.w	r3, r3, #8388608	; 0x800000
    2b10:	f8c2 3200 	str.w	r3, [r2, #512]	; 0x200
    2b14:	4b0b      	ldr	r3, [pc, #44]	; (2b44 <Clock_Ip_SetSircStop_TrustedCall+0x44>)
    2b16:	f8d3 3200 	ldr.w	r3, [r3, #512]	; 0x200
    2b1a:	4a0a      	ldr	r2, [pc, #40]	; (2b44 <Clock_Ip_SetSircStop_TrustedCall+0x44>)
    2b1c:	f023 0302 	bic.w	r3, r3, #2
    2b20:	f8c2 3200 	str.w	r3, [r2, #512]	; 0x200
    2b24:	4b07      	ldr	r3, [pc, #28]	; (2b44 <Clock_Ip_SetSircStop_TrustedCall+0x44>)
    2b26:	f8d3 2200 	ldr.w	r2, [r3, #512]	; 0x200
    2b2a:	9b01      	ldr	r3, [sp, #4]
    2b2c:	7a5b      	ldrb	r3, [r3, #9]
    2b2e:	005b      	lsls	r3, r3, #1
    2b30:	f003 0302 	and.w	r3, r3, #2
    2b34:	4903      	ldr	r1, [pc, #12]	; (2b44 <Clock_Ip_SetSircStop_TrustedCall+0x44>)
    2b36:	4313      	orrs	r3, r2
    2b38:	f8c1 3200 	str.w	r3, [r1, #512]	; 0x200
    2b3c:	bf00      	nop
    2b3e:	b002      	add	sp, #8
    2b40:	4770      	bx	lr
    2b42:	bf00      	nop
    2b44:	40064000 	.word	0x40064000

00002b48 <Clock_Ip_EnableSircStop_TrustedCall>:
    2b48:	b082      	sub	sp, #8
    2b4a:	9001      	str	r0, [sp, #4]
    2b4c:	9b01      	ldr	r3, [sp, #4]
    2b4e:	889b      	ldrh	r3, [r3, #4]
    2b50:	2b01      	cmp	r3, #1
    2b52:	d107      	bne.n	2b64 <Clock_Ip_EnableSircStop_TrustedCall+0x1c>
    2b54:	4b05      	ldr	r3, [pc, #20]	; (2b6c <Clock_Ip_EnableSircStop_TrustedCall+0x24>)
    2b56:	f8d3 3200 	ldr.w	r3, [r3, #512]	; 0x200
    2b5a:	4a04      	ldr	r2, [pc, #16]	; (2b6c <Clock_Ip_EnableSircStop_TrustedCall+0x24>)
    2b5c:	f043 0302 	orr.w	r3, r3, #2
    2b60:	f8c2 3200 	str.w	r3, [r2, #512]	; 0x200
    2b64:	bf00      	nop
    2b66:	b002      	add	sp, #8
    2b68:	4770      	bx	lr
    2b6a:	bf00      	nop
    2b6c:	40064000 	.word	0x40064000

00002b70 <Clock_Ip_DisableSircStop_TrustedCall>:
    2b70:	b082      	sub	sp, #8
    2b72:	9001      	str	r0, [sp, #4]
    2b74:	4b05      	ldr	r3, [pc, #20]	; (2b8c <Clock_Ip_DisableSircStop_TrustedCall+0x1c>)
    2b76:	f8d3 3200 	ldr.w	r3, [r3, #512]	; 0x200
    2b7a:	4a04      	ldr	r2, [pc, #16]	; (2b8c <Clock_Ip_DisableSircStop_TrustedCall+0x1c>)
    2b7c:	f023 0302 	bic.w	r3, r3, #2
    2b80:	f8c2 3200 	str.w	r3, [r2, #512]	; 0x200
    2b84:	bf00      	nop
    2b86:	b002      	add	sp, #8
    2b88:	4770      	bx	lr
    2b8a:	bf00      	nop
    2b8c:	40064000 	.word	0x40064000

00002b90 <Clock_Ip_SetFirc_TrustedCall>:
    2b90:	b500      	push	{lr}
    2b92:	b08b      	sub	sp, #44	; 0x2c
    2b94:	9001      	str	r0, [sp, #4]
    2b96:	9b01      	ldr	r3, [sp, #4]
    2b98:	681a      	ldr	r2, [r3, #0]
    2b9a:	4975      	ldr	r1, [pc, #468]	; (2d70 <Clock_Ip_SetFirc_TrustedCall+0x1e0>)
    2b9c:	4613      	mov	r3, r2
    2b9e:	00db      	lsls	r3, r3, #3
    2ba0:	4413      	add	r3, r2
    2ba2:	440b      	add	r3, r1
    2ba4:	781b      	ldrb	r3, [r3, #0]
    2ba6:	9308      	str	r3, [sp, #32]
    2ba8:	2300      	movs	r3, #0
    2baa:	f88d 301f 	strb.w	r3, [sp, #31]
    2bae:	2300      	movs	r3, #0
    2bb0:	f88d 3027 	strb.w	r3, [sp, #39]	; 0x27
    2bb4:	4b6f      	ldr	r3, [pc, #444]	; (2d74 <Clock_Ip_SetFirc_TrustedCall+0x1e4>)
    2bb6:	f8d3 3300 	ldr.w	r3, [r3, #768]	; 0x300
    2bba:	4a6e      	ldr	r2, [pc, #440]	; (2d74 <Clock_Ip_SetFirc_TrustedCall+0x1e4>)
    2bbc:	f423 0300 	bic.w	r3, r3, #8388608	; 0x800000
    2bc0:	f8c2 3300 	str.w	r3, [r2, #768]	; 0x300
    2bc4:	4b6b      	ldr	r3, [pc, #428]	; (2d74 <Clock_Ip_SetFirc_TrustedCall+0x1e4>)
    2bc6:	f8d3 3300 	ldr.w	r3, [r3, #768]	; 0x300
    2bca:	f003 7300 	and.w	r3, r3, #33554432	; 0x2000000
    2bce:	2b00      	cmp	r3, #0
    2bd0:	d07d      	beq.n	2cce <Clock_Ip_SetFirc_TrustedCall+0x13e>
    2bd2:	9b01      	ldr	r3, [sp, #4]
    2bd4:	79db      	ldrb	r3, [r3, #7]
    2bd6:	461a      	mov	r2, r3
    2bd8:	4b66      	ldr	r3, [pc, #408]	; (2d74 <Clock_Ip_SetFirc_TrustedCall+0x1e4>)
    2bda:	f8d3 3308 	ldr.w	r3, [r3, #776]	; 0x308
    2bde:	f003 0303 	and.w	r3, r3, #3
    2be2:	429a      	cmp	r2, r3
    2be4:	d10b      	bne.n	2bfe <Clock_Ip_SetFirc_TrustedCall+0x6e>
    2be6:	9b01      	ldr	r3, [sp, #4]
    2be8:	799b      	ldrb	r3, [r3, #6]
    2bea:	461a      	mov	r2, r3
    2bec:	4b61      	ldr	r3, [pc, #388]	; (2d74 <Clock_Ip_SetFirc_TrustedCall+0x1e4>)
    2bee:	f8d3 3300 	ldr.w	r3, [r3, #768]	; 0x300
    2bf2:	08db      	lsrs	r3, r3, #3
    2bf4:	f003 0301 	and.w	r3, r3, #1
    2bf8:	429a      	cmp	r2, r3
    2bfa:	f000 80b4 	beq.w	2d66 <Clock_Ip_SetFirc_TrustedCall+0x1d6>
    2bfe:	4b5d      	ldr	r3, [pc, #372]	; (2d74 <Clock_Ip_SetFirc_TrustedCall+0x1e4>)
    2c00:	f8d3 3200 	ldr.w	r3, [r3, #512]	; 0x200
    2c04:	f003 0301 	and.w	r3, r3, #1
    2c08:	2b00      	cmp	r3, #0
    2c0a:	d105      	bne.n	2c18 <Clock_Ip_SetFirc_TrustedCall+0x88>
    2c0c:	2301      	movs	r3, #1
    2c0e:	f88d 3027 	strb.w	r3, [sp, #39]	; 0x27
    2c12:	2000      	movs	r0, #0
    2c14:	f7ff fd66 	bl	26e4 <Clock_Ip_SetSirc>
    2c18:	2002      	movs	r0, #2
    2c1a:	f7ff fdcf 	bl	27bc <SetInputSouceSytemClock>
    2c1e:	4b55      	ldr	r3, [pc, #340]	; (2d74 <Clock_Ip_SetFirc_TrustedCall+0x1e4>)
    2c20:	f8d3 3300 	ldr.w	r3, [r3, #768]	; 0x300
    2c24:	4a53      	ldr	r2, [pc, #332]	; (2d74 <Clock_Ip_SetFirc_TrustedCall+0x1e4>)
    2c26:	f023 0301 	bic.w	r3, r3, #1
    2c2a:	f8c2 3300 	str.w	r3, [r2, #768]	; 0x300
    2c2e:	9b01      	ldr	r3, [sp, #4]
    2c30:	889b      	ldrh	r3, [r3, #4]
    2c32:	2b01      	cmp	r3, #1
    2c34:	f040 8097 	bne.w	2d66 <Clock_Ip_SetFirc_TrustedCall+0x1d6>
    2c38:	9b01      	ldr	r3, [sp, #4]
    2c3a:	79db      	ldrb	r3, [r3, #7]
    2c3c:	4a4d      	ldr	r2, [pc, #308]	; (2d74 <Clock_Ip_SetFirc_TrustedCall+0x1e4>)
    2c3e:	f003 0303 	and.w	r3, r3, #3
    2c42:	f8c2 3308 	str.w	r3, [r2, #776]	; 0x308
    2c46:	4b4b      	ldr	r3, [pc, #300]	; (2d74 <Clock_Ip_SetFirc_TrustedCall+0x1e4>)
    2c48:	f8d3 2300 	ldr.w	r2, [r3, #768]	; 0x300
    2c4c:	9b01      	ldr	r3, [sp, #4]
    2c4e:	799b      	ldrb	r3, [r3, #6]
    2c50:	00db      	lsls	r3, r3, #3
    2c52:	f003 0308 	and.w	r3, r3, #8
    2c56:	4313      	orrs	r3, r2
    2c58:	4a46      	ldr	r2, [pc, #280]	; (2d74 <Clock_Ip_SetFirc_TrustedCall+0x1e4>)
    2c5a:	f043 0301 	orr.w	r3, r3, #1
    2c5e:	f8c2 3300 	str.w	r3, [r2, #768]	; 0x300
    2c62:	aa03      	add	r2, sp, #12
    2c64:	a904      	add	r1, sp, #16
    2c66:	a805      	add	r0, sp, #20
    2c68:	f24c 3350 	movw	r3, #50000	; 0xc350
    2c6c:	f7fe ff6e 	bl	1b4c <Clock_Ip_StartTimeout>
    2c70:	4b40      	ldr	r3, [pc, #256]	; (2d74 <Clock_Ip_SetFirc_TrustedCall+0x1e4>)
    2c72:	f8d3 3300 	ldr.w	r3, [r3, #768]	; 0x300
    2c76:	0e1b      	lsrs	r3, r3, #24
    2c78:	f003 0301 	and.w	r3, r3, #1
    2c7c:	9306      	str	r3, [sp, #24]
    2c7e:	9a03      	ldr	r2, [sp, #12]
    2c80:	a904      	add	r1, sp, #16
    2c82:	ab05      	add	r3, sp, #20
    2c84:	4618      	mov	r0, r3
    2c86:	f7fe ff7b 	bl	1b80 <Clock_Ip_TimeoutExpired>
    2c8a:	4603      	mov	r3, r0
    2c8c:	f88d 301f 	strb.w	r3, [sp, #31]
    2c90:	9b06      	ldr	r3, [sp, #24]
    2c92:	2b00      	cmp	r3, #0
    2c94:	d106      	bne.n	2ca4 <Clock_Ip_SetFirc_TrustedCall+0x114>
    2c96:	f89d 301f 	ldrb.w	r3, [sp, #31]
    2c9a:	f083 0301 	eor.w	r3, r3, #1
    2c9e:	b2db      	uxtb	r3, r3
    2ca0:	2b00      	cmp	r3, #0
    2ca2:	d1e5      	bne.n	2c70 <Clock_Ip_SetFirc_TrustedCall+0xe0>
    2ca4:	f89d 301f 	ldrb.w	r3, [sp, #31]
    2ca8:	2b00      	cmp	r3, #0
    2caa:	d005      	beq.n	2cb8 <Clock_Ip_SetFirc_TrustedCall+0x128>
    2cac:	9b01      	ldr	r3, [sp, #4]
    2cae:	681b      	ldr	r3, [r3, #0]
    2cb0:	4619      	mov	r1, r3
    2cb2:	2001      	movs	r0, #1
    2cb4:	f7fe ff3a 	bl	1b2c <Clock_Ip_ReportClockErrors>
    2cb8:	2003      	movs	r0, #3
    2cba:	f7ff fd7f 	bl	27bc <SetInputSouceSytemClock>
    2cbe:	f89d 3027 	ldrb.w	r3, [sp, #39]	; 0x27
    2cc2:	2b00      	cmp	r3, #0
    2cc4:	d04f      	beq.n	2d66 <Clock_Ip_SetFirc_TrustedCall+0x1d6>
    2cc6:	2002      	movs	r0, #2
    2cc8:	f7ff fd26 	bl	2718 <Clock_Ip_DisableSirc>
    2ccc:	e04b      	b.n	2d66 <Clock_Ip_SetFirc_TrustedCall+0x1d6>
    2cce:	4b29      	ldr	r3, [pc, #164]	; (2d74 <Clock_Ip_SetFirc_TrustedCall+0x1e4>)
    2cd0:	f8d3 3300 	ldr.w	r3, [r3, #768]	; 0x300
    2cd4:	4a27      	ldr	r2, [pc, #156]	; (2d74 <Clock_Ip_SetFirc_TrustedCall+0x1e4>)
    2cd6:	f023 0301 	bic.w	r3, r3, #1
    2cda:	f8c2 3300 	str.w	r3, [r2, #768]	; 0x300
    2cde:	9b01      	ldr	r3, [sp, #4]
    2ce0:	889b      	ldrh	r3, [r3, #4]
    2ce2:	2b01      	cmp	r3, #1
    2ce4:	d13f      	bne.n	2d66 <Clock_Ip_SetFirc_TrustedCall+0x1d6>
    2ce6:	9b01      	ldr	r3, [sp, #4]
    2ce8:	79db      	ldrb	r3, [r3, #7]
    2cea:	4a22      	ldr	r2, [pc, #136]	; (2d74 <Clock_Ip_SetFirc_TrustedCall+0x1e4>)
    2cec:	f003 0303 	and.w	r3, r3, #3
    2cf0:	f8c2 3308 	str.w	r3, [r2, #776]	; 0x308
    2cf4:	4b1f      	ldr	r3, [pc, #124]	; (2d74 <Clock_Ip_SetFirc_TrustedCall+0x1e4>)
    2cf6:	f8d3 2300 	ldr.w	r2, [r3, #768]	; 0x300
    2cfa:	9b01      	ldr	r3, [sp, #4]
    2cfc:	799b      	ldrb	r3, [r3, #6]
    2cfe:	00db      	lsls	r3, r3, #3
    2d00:	f003 0308 	and.w	r3, r3, #8
    2d04:	4313      	orrs	r3, r2
    2d06:	4a1b      	ldr	r2, [pc, #108]	; (2d74 <Clock_Ip_SetFirc_TrustedCall+0x1e4>)
    2d08:	f043 0301 	orr.w	r3, r3, #1
    2d0c:	f8c2 3300 	str.w	r3, [r2, #768]	; 0x300
    2d10:	aa03      	add	r2, sp, #12
    2d12:	a904      	add	r1, sp, #16
    2d14:	a805      	add	r0, sp, #20
    2d16:	f24c 3350 	movw	r3, #50000	; 0xc350
    2d1a:	f7fe ff17 	bl	1b4c <Clock_Ip_StartTimeout>
    2d1e:	4b15      	ldr	r3, [pc, #84]	; (2d74 <Clock_Ip_SetFirc_TrustedCall+0x1e4>)
    2d20:	f8d3 3300 	ldr.w	r3, [r3, #768]	; 0x300
    2d24:	0e1b      	lsrs	r3, r3, #24
    2d26:	f003 0301 	and.w	r3, r3, #1
    2d2a:	9306      	str	r3, [sp, #24]
    2d2c:	9a03      	ldr	r2, [sp, #12]
    2d2e:	a904      	add	r1, sp, #16
    2d30:	ab05      	add	r3, sp, #20
    2d32:	4618      	mov	r0, r3
    2d34:	f7fe ff24 	bl	1b80 <Clock_Ip_TimeoutExpired>
    2d38:	4603      	mov	r3, r0
    2d3a:	f88d 301f 	strb.w	r3, [sp, #31]
    2d3e:	9b06      	ldr	r3, [sp, #24]
    2d40:	2b00      	cmp	r3, #0
    2d42:	d106      	bne.n	2d52 <Clock_Ip_SetFirc_TrustedCall+0x1c2>
    2d44:	f89d 301f 	ldrb.w	r3, [sp, #31]
    2d48:	f083 0301 	eor.w	r3, r3, #1
    2d4c:	b2db      	uxtb	r3, r3
    2d4e:	2b00      	cmp	r3, #0
    2d50:	d1e5      	bne.n	2d1e <Clock_Ip_SetFirc_TrustedCall+0x18e>
    2d52:	f89d 301f 	ldrb.w	r3, [sp, #31]
    2d56:	2b00      	cmp	r3, #0
    2d58:	d005      	beq.n	2d66 <Clock_Ip_SetFirc_TrustedCall+0x1d6>
    2d5a:	9b01      	ldr	r3, [sp, #4]
    2d5c:	681b      	ldr	r3, [r3, #0]
    2d5e:	4619      	mov	r1, r3
    2d60:	2001      	movs	r0, #1
    2d62:	f7fe fee3 	bl	1b2c <Clock_Ip_ReportClockErrors>
    2d66:	bf00      	nop
    2d68:	b00b      	add	sp, #44	; 0x2c
    2d6a:	f85d fb04 	ldr.w	pc, [sp], #4
    2d6e:	bf00      	nop
    2d70:	0000b3f4 	.word	0x0000b3f4
    2d74:	40064000 	.word	0x40064000

00002d78 <Clock_Ip_EnableFirc_TrustedCall>:
    2d78:	b500      	push	{lr}
    2d7a:	b089      	sub	sp, #36	; 0x24
    2d7c:	9001      	str	r0, [sp, #4]
    2d7e:	2300      	movs	r3, #0
    2d80:	f88d 301f 	strb.w	r3, [sp, #31]
    2d84:	9b01      	ldr	r3, [sp, #4]
    2d86:	889b      	ldrh	r3, [r3, #4]
    2d88:	2b01      	cmp	r3, #1
    2d8a:	d132      	bne.n	2df2 <Clock_Ip_EnableFirc_TrustedCall+0x7a>
    2d8c:	4b1b      	ldr	r3, [pc, #108]	; (2dfc <Clock_Ip_EnableFirc_TrustedCall+0x84>)
    2d8e:	f8d3 3300 	ldr.w	r3, [r3, #768]	; 0x300
    2d92:	4a1a      	ldr	r2, [pc, #104]	; (2dfc <Clock_Ip_EnableFirc_TrustedCall+0x84>)
    2d94:	f043 0301 	orr.w	r3, r3, #1
    2d98:	f8c2 3300 	str.w	r3, [r2, #768]	; 0x300
    2d9c:	aa03      	add	r2, sp, #12
    2d9e:	a904      	add	r1, sp, #16
    2da0:	a805      	add	r0, sp, #20
    2da2:	f24c 3350 	movw	r3, #50000	; 0xc350
    2da6:	f7fe fed1 	bl	1b4c <Clock_Ip_StartTimeout>
    2daa:	4b14      	ldr	r3, [pc, #80]	; (2dfc <Clock_Ip_EnableFirc_TrustedCall+0x84>)
    2dac:	f8d3 3300 	ldr.w	r3, [r3, #768]	; 0x300
    2db0:	0e1b      	lsrs	r3, r3, #24
    2db2:	f003 0301 	and.w	r3, r3, #1
    2db6:	9306      	str	r3, [sp, #24]
    2db8:	9a03      	ldr	r2, [sp, #12]
    2dba:	a904      	add	r1, sp, #16
    2dbc:	ab05      	add	r3, sp, #20
    2dbe:	4618      	mov	r0, r3
    2dc0:	f7fe fede 	bl	1b80 <Clock_Ip_TimeoutExpired>
    2dc4:	4603      	mov	r3, r0
    2dc6:	f88d 301f 	strb.w	r3, [sp, #31]
    2dca:	9b06      	ldr	r3, [sp, #24]
    2dcc:	2b00      	cmp	r3, #0
    2dce:	d106      	bne.n	2dde <Clock_Ip_EnableFirc_TrustedCall+0x66>
    2dd0:	f89d 301f 	ldrb.w	r3, [sp, #31]
    2dd4:	f083 0301 	eor.w	r3, r3, #1
    2dd8:	b2db      	uxtb	r3, r3
    2dda:	2b00      	cmp	r3, #0
    2ddc:	d1e5      	bne.n	2daa <Clock_Ip_EnableFirc_TrustedCall+0x32>
    2dde:	f89d 301f 	ldrb.w	r3, [sp, #31]
    2de2:	2b00      	cmp	r3, #0
    2de4:	d005      	beq.n	2df2 <Clock_Ip_EnableFirc_TrustedCall+0x7a>
    2de6:	9b01      	ldr	r3, [sp, #4]
    2de8:	681b      	ldr	r3, [r3, #0]
    2dea:	4619      	mov	r1, r3
    2dec:	2001      	movs	r0, #1
    2dee:	f7fe fe9d 	bl	1b2c <Clock_Ip_ReportClockErrors>
    2df2:	bf00      	nop
    2df4:	b009      	add	sp, #36	; 0x24
    2df6:	f85d fb04 	ldr.w	pc, [sp], #4
    2dfa:	bf00      	nop
    2dfc:	40064000 	.word	0x40064000

00002e00 <Clock_Ip_DisableFirc_TrustedCall>:
    2e00:	b082      	sub	sp, #8
    2e02:	9001      	str	r0, [sp, #4]
    2e04:	4b05      	ldr	r3, [pc, #20]	; (2e1c <Clock_Ip_DisableFirc_TrustedCall+0x1c>)
    2e06:	f8d3 3300 	ldr.w	r3, [r3, #768]	; 0x300
    2e0a:	4a04      	ldr	r2, [pc, #16]	; (2e1c <Clock_Ip_DisableFirc_TrustedCall+0x1c>)
    2e0c:	f023 0301 	bic.w	r3, r3, #1
    2e10:	f8c2 3300 	str.w	r3, [r2, #768]	; 0x300
    2e14:	bf00      	nop
    2e16:	b002      	add	sp, #8
    2e18:	4770      	bx	lr
    2e1a:	bf00      	nop
    2e1c:	40064000 	.word	0x40064000

00002e20 <Clock_Ip_ClockMonitorEmpty>:
    2e20:	b082      	sub	sp, #8
    2e22:	9001      	str	r0, [sp, #4]
    2e24:	bf00      	nop
    2e26:	b002      	add	sp, #8
    2e28:	4770      	bx	lr

00002e2a <Clock_Ip_ClockMonitorEmpty_Set>:
    2e2a:	b082      	sub	sp, #8
    2e2c:	9001      	str	r0, [sp, #4]
    2e2e:	9100      	str	r1, [sp, #0]
    2e30:	bf00      	nop
    2e32:	b002      	add	sp, #8
    2e34:	4770      	bx	lr

00002e36 <Clock_Ip_ClockMonitorEmpty_Disable>:
    2e36:	b082      	sub	sp, #8
    2e38:	9001      	str	r0, [sp, #4]
    2e3a:	bf00      	nop
    2e3c:	b002      	add	sp, #8
    2e3e:	4770      	bx	lr

00002e40 <Clock_Ip_CallbackPllEmpty>:
    2e40:	b082      	sub	sp, #8
    2e42:	9001      	str	r0, [sp, #4]
    2e44:	bf00      	nop
    2e46:	b002      	add	sp, #8
    2e48:	4770      	bx	lr

00002e4a <Clock_Ip_CallbackPllEmptyComplete>:
    2e4a:	b082      	sub	sp, #8
    2e4c:	9001      	str	r0, [sp, #4]
    2e4e:	2302      	movs	r3, #2
    2e50:	4618      	mov	r0, r3
    2e52:	b002      	add	sp, #8
    2e54:	4770      	bx	lr

00002e56 <Clock_Ip_CallbackPllEmptyDisable>:
    2e56:	b082      	sub	sp, #8
    2e58:	9001      	str	r0, [sp, #4]
    2e5a:	bf00      	nop
    2e5c:	b002      	add	sp, #8
    2e5e:	4770      	bx	lr

00002e60 <Clock_Ip_ResetSpll>:
    2e60:	b500      	push	{lr}
    2e62:	b083      	sub	sp, #12
    2e64:	9001      	str	r0, [sp, #4]
    2e66:	9b01      	ldr	r3, [sp, #4]
    2e68:	2b00      	cmp	r3, #0
    2e6a:	d002      	beq.n	2e72 <Clock_Ip_ResetSpll+0x12>
    2e6c:	9801      	ldr	r0, [sp, #4]
    2e6e:	f000 f870 	bl	2f52 <Clock_Ip_ResetSpll_TrustedCall>
    2e72:	bf00      	nop
    2e74:	b003      	add	sp, #12
    2e76:	f85d fb04 	ldr.w	pc, [sp], #4

00002e7a <Clock_Ip_SetSpll>:
    2e7a:	b500      	push	{lr}
    2e7c:	b083      	sub	sp, #12
    2e7e:	9001      	str	r0, [sp, #4]
    2e80:	9b01      	ldr	r3, [sp, #4]
    2e82:	2b00      	cmp	r3, #0
    2e84:	d002      	beq.n	2e8c <Clock_Ip_SetSpll+0x12>
    2e86:	9801      	ldr	r0, [sp, #4]
    2e88:	f000 f89a 	bl	2fc0 <Clock_Ip_SetSpll_TrustedCall>
    2e8c:	bf00      	nop
    2e8e:	b003      	add	sp, #12
    2e90:	f85d fb04 	ldr.w	pc, [sp], #4

00002e94 <Clock_Ip_CompleteSpll>:
    2e94:	b500      	push	{lr}
    2e96:	b089      	sub	sp, #36	; 0x24
    2e98:	9001      	str	r0, [sp, #4]
    2e9a:	2301      	movs	r3, #1
    2e9c:	9307      	str	r3, [sp, #28]
    2e9e:	2300      	movs	r3, #0
    2ea0:	f88d 301b 	strb.w	r3, [sp, #27]
    2ea4:	4b1e      	ldr	r3, [pc, #120]	; (2f20 <Clock_Ip_CompleteSpll+0x8c>)
    2ea6:	f8d3 3600 	ldr.w	r3, [r3, #1536]	; 0x600
    2eaa:	f003 0301 	and.w	r3, r3, #1
    2eae:	2b00      	cmp	r3, #0
    2eb0:	d02f      	beq.n	2f12 <Clock_Ip_CompleteSpll+0x7e>
    2eb2:	aa02      	add	r2, sp, #8
    2eb4:	a903      	add	r1, sp, #12
    2eb6:	a804      	add	r0, sp, #16
    2eb8:	f24c 3350 	movw	r3, #50000	; 0xc350
    2ebc:	f7fe fe46 	bl	1b4c <Clock_Ip_StartTimeout>
    2ec0:	4b17      	ldr	r3, [pc, #92]	; (2f20 <Clock_Ip_CompleteSpll+0x8c>)
    2ec2:	f8d3 3600 	ldr.w	r3, [r3, #1536]	; 0x600
    2ec6:	0e1b      	lsrs	r3, r3, #24
    2ec8:	f003 0301 	and.w	r3, r3, #1
    2ecc:	9305      	str	r3, [sp, #20]
    2ece:	9a02      	ldr	r2, [sp, #8]
    2ed0:	a903      	add	r1, sp, #12
    2ed2:	ab04      	add	r3, sp, #16
    2ed4:	4618      	mov	r0, r3
    2ed6:	f7fe fe53 	bl	1b80 <Clock_Ip_TimeoutExpired>
    2eda:	4603      	mov	r3, r0
    2edc:	f88d 301b 	strb.w	r3, [sp, #27]
    2ee0:	9b05      	ldr	r3, [sp, #20]
    2ee2:	2b00      	cmp	r3, #0
    2ee4:	d106      	bne.n	2ef4 <Clock_Ip_CompleteSpll+0x60>
    2ee6:	f89d 301b 	ldrb.w	r3, [sp, #27]
    2eea:	f083 0301 	eor.w	r3, r3, #1
    2eee:	b2db      	uxtb	r3, r3
    2ef0:	2b00      	cmp	r3, #0
    2ef2:	d1e5      	bne.n	2ec0 <Clock_Ip_CompleteSpll+0x2c>
    2ef4:	f89d 301b 	ldrb.w	r3, [sp, #27]
    2ef8:	f083 0301 	eor.w	r3, r3, #1
    2efc:	b2db      	uxtb	r3, r3
    2efe:	2b00      	cmp	r3, #0
    2f00:	d002      	beq.n	2f08 <Clock_Ip_CompleteSpll+0x74>
    2f02:	2302      	movs	r3, #2
    2f04:	9307      	str	r3, [sp, #28]
    2f06:	e006      	b.n	2f16 <Clock_Ip_CompleteSpll+0x82>
    2f08:	9901      	ldr	r1, [sp, #4]
    2f0a:	2001      	movs	r0, #1
    2f0c:	f7fe fe0e 	bl	1b2c <Clock_Ip_ReportClockErrors>
    2f10:	e001      	b.n	2f16 <Clock_Ip_CompleteSpll+0x82>
    2f12:	2300      	movs	r3, #0
    2f14:	9307      	str	r3, [sp, #28]
    2f16:	9b07      	ldr	r3, [sp, #28]
    2f18:	4618      	mov	r0, r3
    2f1a:	b009      	add	sp, #36	; 0x24
    2f1c:	f85d fb04 	ldr.w	pc, [sp], #4
    2f20:	40064000 	.word	0x40064000

00002f24 <Clock_Ip_DisableSpll>:
    2f24:	b500      	push	{lr}
    2f26:	b083      	sub	sp, #12
    2f28:	9001      	str	r0, [sp, #4]
    2f2a:	9801      	ldr	r0, [sp, #4]
    2f2c:	f000 f886 	bl	303c <Clock_Ip_DisableSpll_TrustedCall>
    2f30:	bf00      	nop
    2f32:	b003      	add	sp, #12
    2f34:	f85d fb04 	ldr.w	pc, [sp], #4

00002f38 <Clock_Ip_EnableSpll>:
    2f38:	b500      	push	{lr}
    2f3a:	b083      	sub	sp, #12
    2f3c:	9001      	str	r0, [sp, #4]
    2f3e:	9b01      	ldr	r3, [sp, #4]
    2f40:	2b00      	cmp	r3, #0
    2f42:	d002      	beq.n	2f4a <Clock_Ip_EnableSpll+0x12>
    2f44:	9801      	ldr	r0, [sp, #4]
    2f46:	f000 f891 	bl	306c <Clock_Ip_EnableSpll_TrustedCall>
    2f4a:	bf00      	nop
    2f4c:	b003      	add	sp, #12
    2f4e:	f85d fb04 	ldr.w	pc, [sp], #4

00002f52 <Clock_Ip_ResetSpll_TrustedCall>:
    2f52:	b082      	sub	sp, #8
    2f54:	9001      	str	r0, [sp, #4]
    2f56:	4b19      	ldr	r3, [pc, #100]	; (2fbc <Clock_Ip_ResetSpll_TrustedCall+0x6a>)
    2f58:	f8d3 3600 	ldr.w	r3, [r3, #1536]	; 0x600
    2f5c:	4a17      	ldr	r2, [pc, #92]	; (2fbc <Clock_Ip_ResetSpll_TrustedCall+0x6a>)
    2f5e:	f423 0300 	bic.w	r3, r3, #8388608	; 0x800000
    2f62:	f8c2 3600 	str.w	r3, [r2, #1536]	; 0x600
    2f66:	4b15      	ldr	r3, [pc, #84]	; (2fbc <Clock_Ip_ResetSpll_TrustedCall+0x6a>)
    2f68:	f8d3 3600 	ldr.w	r3, [r3, #1536]	; 0x600
    2f6c:	4a13      	ldr	r2, [pc, #76]	; (2fbc <Clock_Ip_ResetSpll_TrustedCall+0x6a>)
    2f6e:	f423 3380 	bic.w	r3, r3, #65536	; 0x10000
    2f72:	f8c2 3600 	str.w	r3, [r2, #1536]	; 0x600
    2f76:	4b11      	ldr	r3, [pc, #68]	; (2fbc <Clock_Ip_ResetSpll_TrustedCall+0x6a>)
    2f78:	f8d3 3600 	ldr.w	r3, [r3, #1536]	; 0x600
    2f7c:	4a0f      	ldr	r2, [pc, #60]	; (2fbc <Clock_Ip_ResetSpll_TrustedCall+0x6a>)
    2f7e:	f423 3300 	bic.w	r3, r3, #131072	; 0x20000
    2f82:	f8c2 3600 	str.w	r3, [r2, #1536]	; 0x600
    2f86:	4b0d      	ldr	r3, [pc, #52]	; (2fbc <Clock_Ip_ResetSpll_TrustedCall+0x6a>)
    2f88:	f8d3 3600 	ldr.w	r3, [r3, #1536]	; 0x600
    2f8c:	4a0b      	ldr	r2, [pc, #44]	; (2fbc <Clock_Ip_ResetSpll_TrustedCall+0x6a>)
    2f8e:	f023 0301 	bic.w	r3, r3, #1
    2f92:	f8c2 3600 	str.w	r3, [r2, #1536]	; 0x600
    2f96:	4b09      	ldr	r3, [pc, #36]	; (2fbc <Clock_Ip_ResetSpll_TrustedCall+0x6a>)
    2f98:	f8d3 3608 	ldr.w	r3, [r3, #1544]	; 0x608
    2f9c:	4a07      	ldr	r2, [pc, #28]	; (2fbc <Clock_Ip_ResetSpll_TrustedCall+0x6a>)
    2f9e:	f423 63e0 	bic.w	r3, r3, #1792	; 0x700
    2fa2:	f8c2 3608 	str.w	r3, [r2, #1544]	; 0x608
    2fa6:	4b05      	ldr	r3, [pc, #20]	; (2fbc <Clock_Ip_ResetSpll_TrustedCall+0x6a>)
    2fa8:	f8d3 3608 	ldr.w	r3, [r3, #1544]	; 0x608
    2fac:	4a03      	ldr	r2, [pc, #12]	; (2fbc <Clock_Ip_ResetSpll_TrustedCall+0x6a>)
    2fae:	f423 13f8 	bic.w	r3, r3, #2031616	; 0x1f0000
    2fb2:	f8c2 3608 	str.w	r3, [r2, #1544]	; 0x608
    2fb6:	bf00      	nop
    2fb8:	b002      	add	sp, #8
    2fba:	4770      	bx	lr
    2fbc:	40064000 	.word	0x40064000

00002fc0 <Clock_Ip_SetSpll_TrustedCall>:
    2fc0:	b082      	sub	sp, #8
    2fc2:	9001      	str	r0, [sp, #4]
    2fc4:	9b01      	ldr	r3, [sp, #4]
    2fc6:	889b      	ldrh	r3, [r3, #4]
    2fc8:	2b01      	cmp	r3, #1
    2fca:	d12f      	bne.n	302c <Clock_Ip_SetSpll_TrustedCall+0x6c>
    2fcc:	4b1a      	ldr	r3, [pc, #104]	; (3038 <Clock_Ip_SetSpll_TrustedCall+0x78>)
    2fce:	f8d3 2608 	ldr.w	r2, [r3, #1544]	; 0x608
    2fd2:	9b01      	ldr	r3, [sp, #4]
    2fd4:	7b5b      	ldrb	r3, [r3, #13]
    2fd6:	3b01      	subs	r3, #1
    2fd8:	021b      	lsls	r3, r3, #8
    2fda:	f403 61e0 	and.w	r1, r3, #1792	; 0x700
    2fde:	9b01      	ldr	r3, [sp, #4]
    2fe0:	7d1b      	ldrb	r3, [r3, #20]
    2fe2:	3b10      	subs	r3, #16
    2fe4:	041b      	lsls	r3, r3, #16
    2fe6:	f403 13f8 	and.w	r3, r3, #2031616	; 0x1f0000
    2fea:	430b      	orrs	r3, r1
    2fec:	4912      	ldr	r1, [pc, #72]	; (3038 <Clock_Ip_SetSpll_TrustedCall+0x78>)
    2fee:	4313      	orrs	r3, r2
    2ff0:	f8c1 3608 	str.w	r3, [r1, #1544]	; 0x608
    2ff4:	9b01      	ldr	r3, [sp, #4]
    2ff6:	7fdb      	ldrb	r3, [r3, #31]
    2ff8:	2b02      	cmp	r3, #2
    2ffa:	d011      	beq.n	3020 <Clock_Ip_SetSpll_TrustedCall+0x60>
    2ffc:	2b02      	cmp	r3, #2
    2ffe:	dc17      	bgt.n	3030 <Clock_Ip_SetSpll_TrustedCall+0x70>
    3000:	2b00      	cmp	r3, #0
    3002:	d002      	beq.n	300a <Clock_Ip_SetSpll_TrustedCall+0x4a>
    3004:	2b01      	cmp	r3, #1
    3006:	d005      	beq.n	3014 <Clock_Ip_SetSpll_TrustedCall+0x54>
    3008:	e012      	b.n	3030 <Clock_Ip_SetSpll_TrustedCall+0x70>
    300a:	4b0b      	ldr	r3, [pc, #44]	; (3038 <Clock_Ip_SetSpll_TrustedCall+0x78>)
    300c:	2200      	movs	r2, #0
    300e:	f8c3 2600 	str.w	r2, [r3, #1536]	; 0x600
    3012:	e00e      	b.n	3032 <Clock_Ip_SetSpll_TrustedCall+0x72>
    3014:	4b08      	ldr	r3, [pc, #32]	; (3038 <Clock_Ip_SetSpll_TrustedCall+0x78>)
    3016:	f44f 3280 	mov.w	r2, #65536	; 0x10000
    301a:	f8c3 2600 	str.w	r2, [r3, #1536]	; 0x600
    301e:	e008      	b.n	3032 <Clock_Ip_SetSpll_TrustedCall+0x72>
    3020:	4b05      	ldr	r3, [pc, #20]	; (3038 <Clock_Ip_SetSpll_TrustedCall+0x78>)
    3022:	f44f 3240 	mov.w	r2, #196608	; 0x30000
    3026:	f8c3 2600 	str.w	r2, [r3, #1536]	; 0x600
    302a:	e002      	b.n	3032 <Clock_Ip_SetSpll_TrustedCall+0x72>
    302c:	bf00      	nop
    302e:	e000      	b.n	3032 <Clock_Ip_SetSpll_TrustedCall+0x72>
    3030:	bf00      	nop
    3032:	bf00      	nop
    3034:	b002      	add	sp, #8
    3036:	4770      	bx	lr
    3038:	40064000 	.word	0x40064000

0000303c <Clock_Ip_DisableSpll_TrustedCall>:
    303c:	b082      	sub	sp, #8
    303e:	9001      	str	r0, [sp, #4]
    3040:	4b09      	ldr	r3, [pc, #36]	; (3068 <Clock_Ip_DisableSpll_TrustedCall+0x2c>)
    3042:	f8d3 3600 	ldr.w	r3, [r3, #1536]	; 0x600
    3046:	4a08      	ldr	r2, [pc, #32]	; (3068 <Clock_Ip_DisableSpll_TrustedCall+0x2c>)
    3048:	f423 0300 	bic.w	r3, r3, #8388608	; 0x800000
    304c:	f8c2 3600 	str.w	r3, [r2, #1536]	; 0x600
    3050:	4b05      	ldr	r3, [pc, #20]	; (3068 <Clock_Ip_DisableSpll_TrustedCall+0x2c>)
    3052:	f8d3 3600 	ldr.w	r3, [r3, #1536]	; 0x600
    3056:	4a04      	ldr	r2, [pc, #16]	; (3068 <Clock_Ip_DisableSpll_TrustedCall+0x2c>)
    3058:	f023 0301 	bic.w	r3, r3, #1
    305c:	f8c2 3600 	str.w	r3, [r2, #1536]	; 0x600
    3060:	bf00      	nop
    3062:	b002      	add	sp, #8
    3064:	4770      	bx	lr
    3066:	bf00      	nop
    3068:	40064000 	.word	0x40064000

0000306c <Clock_Ip_EnableSpll_TrustedCall>:
    306c:	b082      	sub	sp, #8
    306e:	9001      	str	r0, [sp, #4]
    3070:	9b01      	ldr	r3, [sp, #4]
    3072:	889b      	ldrh	r3, [r3, #4]
    3074:	2b01      	cmp	r3, #1
    3076:	d107      	bne.n	3088 <Clock_Ip_EnableSpll_TrustedCall+0x1c>
    3078:	4b05      	ldr	r3, [pc, #20]	; (3090 <Clock_Ip_EnableSpll_TrustedCall+0x24>)
    307a:	f8d3 3600 	ldr.w	r3, [r3, #1536]	; 0x600
    307e:	4a04      	ldr	r2, [pc, #16]	; (3090 <Clock_Ip_EnableSpll_TrustedCall+0x24>)
    3080:	f043 0301 	orr.w	r3, r3, #1
    3084:	f8c2 3600 	str.w	r3, [r2, #1536]	; 0x600
    3088:	bf00      	nop
    308a:	b002      	add	sp, #8
    308c:	4770      	bx	lr
    308e:	bf00      	nop
    3090:	40064000 	.word	0x40064000

00003094 <Clock_Ip_ProgressiveFrequencyClockSwitchEmpty>:
    3094:	b082      	sub	sp, #8
    3096:	9001      	str	r0, [sp, #4]
    3098:	9100      	str	r1, [sp, #0]
    309a:	bf00      	nop
    309c:	b002      	add	sp, #8
    309e:	4770      	bx	lr

000030a0 <Clock_Ip_CallbackSelectorEmpty>:
    30a0:	b082      	sub	sp, #8
    30a2:	9001      	str	r0, [sp, #4]
    30a4:	bf00      	nop
    30a6:	b002      	add	sp, #8
    30a8:	4770      	bx	lr

000030aa <Clock_Ip_ResetScgRunSel>:
    30aa:	b500      	push	{lr}
    30ac:	b083      	sub	sp, #12
    30ae:	9001      	str	r0, [sp, #4]
    30b0:	9b01      	ldr	r3, [sp, #4]
    30b2:	2b00      	cmp	r3, #0
    30b4:	d002      	beq.n	30bc <Clock_Ip_ResetScgRunSel+0x12>
    30b6:	9801      	ldr	r0, [sp, #4]
    30b8:	f000 f8ee 	bl	3298 <Clock_Ip_ResetScgRunSel_TrustedCall>
    30bc:	bf00      	nop
    30be:	b003      	add	sp, #12
    30c0:	f85d fb04 	ldr.w	pc, [sp], #4

000030c4 <Clock_Ip_SetScgRunSel>:
    30c4:	b500      	push	{lr}
    30c6:	b083      	sub	sp, #12
    30c8:	9001      	str	r0, [sp, #4]
    30ca:	9b01      	ldr	r3, [sp, #4]
    30cc:	2b00      	cmp	r3, #0
    30ce:	d002      	beq.n	30d6 <Clock_Ip_SetScgRunSel+0x12>
    30d0:	9801      	ldr	r0, [sp, #4]
    30d2:	f000 f8ff 	bl	32d4 <Clock_Ip_SetScgRunSel_TrustedCall>
    30d6:	bf00      	nop
    30d8:	b003      	add	sp, #12
    30da:	f85d fb04 	ldr.w	pc, [sp], #4

000030de <Clock_Ip_SetScgVlprSel>:
    30de:	b500      	push	{lr}
    30e0:	b083      	sub	sp, #12
    30e2:	9001      	str	r0, [sp, #4]
    30e4:	9b01      	ldr	r3, [sp, #4]
    30e6:	2b00      	cmp	r3, #0
    30e8:	d002      	beq.n	30f0 <Clock_Ip_SetScgVlprSel+0x12>
    30ea:	9801      	ldr	r0, [sp, #4]
    30ec:	f000 f912 	bl	3314 <Clock_Ip_SetScgVlprSel_TrustedCall>
    30f0:	bf00      	nop
    30f2:	b003      	add	sp, #12
    30f4:	f85d fb04 	ldr.w	pc, [sp], #4

000030f8 <Clock_Ip_ResetScgHsrunSel>:
    30f8:	b500      	push	{lr}
    30fa:	b083      	sub	sp, #12
    30fc:	9001      	str	r0, [sp, #4]
    30fe:	9b01      	ldr	r3, [sp, #4]
    3100:	2b00      	cmp	r3, #0
    3102:	d002      	beq.n	310a <Clock_Ip_ResetScgHsrunSel+0x12>
    3104:	9801      	ldr	r0, [sp, #4]
    3106:	f000 f925 	bl	3354 <Clock_Ip_ResetScgHsrunSel_TrustedCall>
    310a:	bf00      	nop
    310c:	b003      	add	sp, #12
    310e:	f85d fb04 	ldr.w	pc, [sp], #4

00003112 <Clock_Ip_SetScgHsrunSel>:
    3112:	b500      	push	{lr}
    3114:	b083      	sub	sp, #12
    3116:	9001      	str	r0, [sp, #4]
    3118:	9b01      	ldr	r3, [sp, #4]
    311a:	2b00      	cmp	r3, #0
    311c:	d002      	beq.n	3124 <Clock_Ip_SetScgHsrunSel+0x12>
    311e:	9801      	ldr	r0, [sp, #4]
    3120:	f000 f936 	bl	3390 <Clock_Ip_SetScgHsrunSel_TrustedCall>
    3124:	bf00      	nop
    3126:	b003      	add	sp, #12
    3128:	f85d fb04 	ldr.w	pc, [sp], #4

0000312c <Clock_Ip_ResetSimRtcSel>:
    312c:	b500      	push	{lr}
    312e:	b083      	sub	sp, #12
    3130:	9001      	str	r0, [sp, #4]
    3132:	9b01      	ldr	r3, [sp, #4]
    3134:	2b00      	cmp	r3, #0
    3136:	d002      	beq.n	313e <Clock_Ip_ResetSimRtcSel+0x12>
    3138:	9801      	ldr	r0, [sp, #4]
    313a:	f000 f949 	bl	33d0 <Clock_Ip_ResetSimRtcSel_TrustedCall>
    313e:	bf00      	nop
    3140:	b003      	add	sp, #12
    3142:	f85d fb04 	ldr.w	pc, [sp], #4

00003146 <Clock_Ip_SetSimRtcSel>:
    3146:	b500      	push	{lr}
    3148:	b083      	sub	sp, #12
    314a:	9001      	str	r0, [sp, #4]
    314c:	9b01      	ldr	r3, [sp, #4]
    314e:	2b00      	cmp	r3, #0
    3150:	d002      	beq.n	3158 <Clock_Ip_SetSimRtcSel+0x12>
    3152:	9801      	ldr	r0, [sp, #4]
    3154:	f000 f958 	bl	3408 <Clock_Ip_SetSimRtcSel_TrustedCall>
    3158:	bf00      	nop
    315a:	b003      	add	sp, #12
    315c:	f85d fb04 	ldr.w	pc, [sp], #4

00003160 <Clock_Ip_ResetSimLpoSel>:
    3160:	b500      	push	{lr}
    3162:	b083      	sub	sp, #12
    3164:	9001      	str	r0, [sp, #4]
    3166:	9b01      	ldr	r3, [sp, #4]
    3168:	2b00      	cmp	r3, #0
    316a:	d002      	beq.n	3172 <Clock_Ip_ResetSimLpoSel+0x12>
    316c:	9801      	ldr	r0, [sp, #4]
    316e:	f000 f969 	bl	3444 <Clock_Ip_ResetSimLpoSel_TrustedCall>
    3172:	bf00      	nop
    3174:	b003      	add	sp, #12
    3176:	f85d fb04 	ldr.w	pc, [sp], #4

0000317a <Clock_Ip_SetSimLpoSel>:
    317a:	b500      	push	{lr}
    317c:	b083      	sub	sp, #12
    317e:	9001      	str	r0, [sp, #4]
    3180:	9b01      	ldr	r3, [sp, #4]
    3182:	2b00      	cmp	r3, #0
    3184:	d002      	beq.n	318c <Clock_Ip_SetSimLpoSel+0x12>
    3186:	9801      	ldr	r0, [sp, #4]
    3188:	f000 f978 	bl	347c <Clock_Ip_SetSimLpoSel_TrustedCall>
    318c:	bf00      	nop
    318e:	b003      	add	sp, #12
    3190:	f85d fb04 	ldr.w	pc, [sp], #4

00003194 <Clock_Ip_ResetScgClkoutSel>:
    3194:	b500      	push	{lr}
    3196:	b083      	sub	sp, #12
    3198:	9001      	str	r0, [sp, #4]
    319a:	9b01      	ldr	r3, [sp, #4]
    319c:	2b00      	cmp	r3, #0
    319e:	d002      	beq.n	31a6 <Clock_Ip_ResetScgClkoutSel+0x12>
    31a0:	9801      	ldr	r0, [sp, #4]
    31a2:	f000 f989 	bl	34b8 <Clock_Ip_ResetScgClkoutSel_TrustedCall>
    31a6:	bf00      	nop
    31a8:	b003      	add	sp, #12
    31aa:	f85d fb04 	ldr.w	pc, [sp], #4

000031ae <Clock_Ip_SetScgClkoutSel>:
    31ae:	b500      	push	{lr}
    31b0:	b083      	sub	sp, #12
    31b2:	9001      	str	r0, [sp, #4]
    31b4:	9b01      	ldr	r3, [sp, #4]
    31b6:	2b00      	cmp	r3, #0
    31b8:	d002      	beq.n	31c0 <Clock_Ip_SetScgClkoutSel+0x12>
    31ba:	9801      	ldr	r0, [sp, #4]
    31bc:	f000 f998 	bl	34f0 <Clock_Ip_SetScgClkoutSel_TrustedCall>
    31c0:	bf00      	nop
    31c2:	b003      	add	sp, #12
    31c4:	f85d fb04 	ldr.w	pc, [sp], #4

000031c8 <Clock_Ip_ResetSimFtmoptSel>:
    31c8:	b500      	push	{lr}
    31ca:	b083      	sub	sp, #12
    31cc:	9001      	str	r0, [sp, #4]
    31ce:	9b01      	ldr	r3, [sp, #4]
    31d0:	2b00      	cmp	r3, #0
    31d2:	d002      	beq.n	31da <Clock_Ip_ResetSimFtmoptSel+0x12>
    31d4:	9801      	ldr	r0, [sp, #4]
    31d6:	f000 f9a9 	bl	352c <Clock_Ip_ResetSimFtmoptSel_TrustedCall>
    31da:	bf00      	nop
    31dc:	b003      	add	sp, #12
    31de:	f85d fb04 	ldr.w	pc, [sp], #4

000031e2 <Clock_Ip_SetSimFtmoptSel>:
    31e2:	b500      	push	{lr}
    31e4:	b083      	sub	sp, #12
    31e6:	9001      	str	r0, [sp, #4]
    31e8:	9b01      	ldr	r3, [sp, #4]
    31ea:	2b00      	cmp	r3, #0
    31ec:	d002      	beq.n	31f4 <Clock_Ip_SetSimFtmoptSel+0x12>
    31ee:	9801      	ldr	r0, [sp, #4]
    31f0:	f000 f9e6 	bl	35c0 <Clock_Ip_SetSimFtmoptSel_TrustedCall>
    31f4:	bf00      	nop
    31f6:	b003      	add	sp, #12
    31f8:	f85d fb04 	ldr.w	pc, [sp], #4

000031fc <Clock_Ip_ResetSimClkoutSel>:
    31fc:	b500      	push	{lr}
    31fe:	b083      	sub	sp, #12
    3200:	9001      	str	r0, [sp, #4]
    3202:	9b01      	ldr	r3, [sp, #4]
    3204:	2b00      	cmp	r3, #0
    3206:	d002      	beq.n	320e <Clock_Ip_ResetSimClkoutSel+0x12>
    3208:	9801      	ldr	r0, [sp, #4]
    320a:	f000 fa25 	bl	3658 <Clock_Ip_ResetSimClkoutSel_TrustedCall>
    320e:	bf00      	nop
    3210:	b003      	add	sp, #12
    3212:	f85d fb04 	ldr.w	pc, [sp], #4

00003216 <Clock_Ip_SetSimClkoutSel>:
    3216:	b500      	push	{lr}
    3218:	b083      	sub	sp, #12
    321a:	9001      	str	r0, [sp, #4]
    321c:	9b01      	ldr	r3, [sp, #4]
    321e:	2b00      	cmp	r3, #0
    3220:	d002      	beq.n	3228 <Clock_Ip_SetSimClkoutSel+0x12>
    3222:	9801      	ldr	r0, [sp, #4]
    3224:	f000 fa2a 	bl	367c <Clock_Ip_SetSimClkoutSel_TrustedCall>
    3228:	bf00      	nop
    322a:	b003      	add	sp, #12
    322c:	f85d fb04 	ldr.w	pc, [sp], #4

00003230 <Clock_Ip_ResetPccPcsSelect>:
    3230:	b500      	push	{lr}
    3232:	b083      	sub	sp, #12
    3234:	9001      	str	r0, [sp, #4]
    3236:	9b01      	ldr	r3, [sp, #4]
    3238:	2b00      	cmp	r3, #0
    323a:	d002      	beq.n	3242 <Clock_Ip_ResetPccPcsSelect+0x12>
    323c:	9801      	ldr	r0, [sp, #4]
    323e:	f000 fa3b 	bl	36b8 <Clock_Ip_ResetPccPcsSelect_TrustedCall>
    3242:	bf00      	nop
    3244:	b003      	add	sp, #12
    3246:	f85d fb04 	ldr.w	pc, [sp], #4

0000324a <Clock_Ip_SetPccPcsSelect>:
    324a:	b500      	push	{lr}
    324c:	b083      	sub	sp, #12
    324e:	9001      	str	r0, [sp, #4]
    3250:	9b01      	ldr	r3, [sp, #4]
    3252:	2b00      	cmp	r3, #0
    3254:	d002      	beq.n	325c <Clock_Ip_SetPccPcsSelect+0x12>
    3256:	9801      	ldr	r0, [sp, #4]
    3258:	f000 fa56 	bl	3708 <Clock_Ip_SetPccPcsSelect_TrustedCall>
    325c:	bf00      	nop
    325e:	b003      	add	sp, #12
    3260:	f85d fb04 	ldr.w	pc, [sp], #4

00003264 <Clock_Ip_ResetSimTraceSel>:
    3264:	b500      	push	{lr}
    3266:	b083      	sub	sp, #12
    3268:	9001      	str	r0, [sp, #4]
    326a:	9b01      	ldr	r3, [sp, #4]
    326c:	2b00      	cmp	r3, #0
    326e:	d002      	beq.n	3276 <Clock_Ip_ResetSimTraceSel+0x12>
    3270:	9801      	ldr	r0, [sp, #4]
    3272:	f000 fa79 	bl	3768 <Clock_Ip_ResetSimTraceSel_TrustedCall>
    3276:	bf00      	nop
    3278:	b003      	add	sp, #12
    327a:	f85d fb04 	ldr.w	pc, [sp], #4

0000327e <Clock_Ip_SetSimTraceSel>:
    327e:	b500      	push	{lr}
    3280:	b083      	sub	sp, #12
    3282:	9001      	str	r0, [sp, #4]
    3284:	9b01      	ldr	r3, [sp, #4]
    3286:	2b00      	cmp	r3, #0
    3288:	d002      	beq.n	3290 <Clock_Ip_SetSimTraceSel+0x12>
    328a:	9801      	ldr	r0, [sp, #4]
    328c:	f000 fa8a 	bl	37a4 <Clock_Ip_SetSimTraceSel_TrustedCall>
    3290:	bf00      	nop
    3292:	b003      	add	sp, #12
    3294:	f85d fb04 	ldr.w	pc, [sp], #4

00003298 <Clock_Ip_ResetScgRunSel_TrustedCall>:
    3298:	b084      	sub	sp, #16
    329a:	9001      	str	r0, [sp, #4]
    329c:	4b0b      	ldr	r3, [pc, #44]	; (32cc <Clock_Ip_ResetScgRunSel_TrustedCall+0x34>)
    329e:	795b      	ldrb	r3, [r3, #5]
    32a0:	9303      	str	r3, [sp, #12]
    32a2:	4b0b      	ldr	r3, [pc, #44]	; (32d0 <Clock_Ip_ResetScgRunSel_TrustedCall+0x38>)
    32a4:	695b      	ldr	r3, [r3, #20]
    32a6:	9302      	str	r3, [sp, #8]
    32a8:	9b02      	ldr	r3, [sp, #8]
    32aa:	f023 6370 	bic.w	r3, r3, #251658240	; 0xf000000
    32ae:	9302      	str	r3, [sp, #8]
    32b0:	9b03      	ldr	r3, [sp, #12]
    32b2:	061b      	lsls	r3, r3, #24
    32b4:	f003 6370 	and.w	r3, r3, #251658240	; 0xf000000
    32b8:	9a02      	ldr	r2, [sp, #8]
    32ba:	4313      	orrs	r3, r2
    32bc:	9302      	str	r3, [sp, #8]
    32be:	4a04      	ldr	r2, [pc, #16]	; (32d0 <Clock_Ip_ResetScgRunSel_TrustedCall+0x38>)
    32c0:	9b02      	ldr	r3, [sp, #8]
    32c2:	6153      	str	r3, [r2, #20]
    32c4:	bf00      	nop
    32c6:	b004      	add	sp, #16
    32c8:	4770      	bx	lr
    32ca:	bf00      	nop
    32cc:	0000b75c 	.word	0x0000b75c
    32d0:	40064000 	.word	0x40064000

000032d4 <Clock_Ip_SetScgRunSel_TrustedCall>:
    32d4:	b084      	sub	sp, #16
    32d6:	9001      	str	r0, [sp, #4]
    32d8:	9b01      	ldr	r3, [sp, #4]
    32da:	685b      	ldr	r3, [r3, #4]
    32dc:	4a0b      	ldr	r2, [pc, #44]	; (330c <Clock_Ip_SetScgRunSel_TrustedCall+0x38>)
    32de:	5cd3      	ldrb	r3, [r2, r3]
    32e0:	9303      	str	r3, [sp, #12]
    32e2:	4b0b      	ldr	r3, [pc, #44]	; (3310 <Clock_Ip_SetScgRunSel_TrustedCall+0x3c>)
    32e4:	695b      	ldr	r3, [r3, #20]
    32e6:	9302      	str	r3, [sp, #8]
    32e8:	9b02      	ldr	r3, [sp, #8]
    32ea:	f023 6370 	bic.w	r3, r3, #251658240	; 0xf000000
    32ee:	9302      	str	r3, [sp, #8]
    32f0:	9b03      	ldr	r3, [sp, #12]
    32f2:	061b      	lsls	r3, r3, #24
    32f4:	f003 6370 	and.w	r3, r3, #251658240	; 0xf000000
    32f8:	9a02      	ldr	r2, [sp, #8]
    32fa:	4313      	orrs	r3, r2
    32fc:	9302      	str	r3, [sp, #8]
    32fe:	4a04      	ldr	r2, [pc, #16]	; (3310 <Clock_Ip_SetScgRunSel_TrustedCall+0x3c>)
    3300:	9b02      	ldr	r3, [sp, #8]
    3302:	6153      	str	r3, [r2, #20]
    3304:	bf00      	nop
    3306:	b004      	add	sp, #16
    3308:	4770      	bx	lr
    330a:	bf00      	nop
    330c:	0000b75c 	.word	0x0000b75c
    3310:	40064000 	.word	0x40064000

00003314 <Clock_Ip_SetScgVlprSel_TrustedCall>:
    3314:	b084      	sub	sp, #16
    3316:	9001      	str	r0, [sp, #4]
    3318:	9b01      	ldr	r3, [sp, #4]
    331a:	685b      	ldr	r3, [r3, #4]
    331c:	4a0b      	ldr	r2, [pc, #44]	; (334c <Clock_Ip_SetScgVlprSel_TrustedCall+0x38>)
    331e:	5cd3      	ldrb	r3, [r2, r3]
    3320:	9303      	str	r3, [sp, #12]
    3322:	4b0b      	ldr	r3, [pc, #44]	; (3350 <Clock_Ip_SetScgVlprSel_TrustedCall+0x3c>)
    3324:	699b      	ldr	r3, [r3, #24]
    3326:	9302      	str	r3, [sp, #8]
    3328:	9b02      	ldr	r3, [sp, #8]
    332a:	f023 6370 	bic.w	r3, r3, #251658240	; 0xf000000
    332e:	9302      	str	r3, [sp, #8]
    3330:	9b03      	ldr	r3, [sp, #12]
    3332:	061b      	lsls	r3, r3, #24
    3334:	f003 6370 	and.w	r3, r3, #251658240	; 0xf000000
    3338:	9a02      	ldr	r2, [sp, #8]
    333a:	4313      	orrs	r3, r2
    333c:	9302      	str	r3, [sp, #8]
    333e:	4a04      	ldr	r2, [pc, #16]	; (3350 <Clock_Ip_SetScgVlprSel_TrustedCall+0x3c>)
    3340:	9b02      	ldr	r3, [sp, #8]
    3342:	6193      	str	r3, [r2, #24]
    3344:	bf00      	nop
    3346:	b004      	add	sp, #16
    3348:	4770      	bx	lr
    334a:	bf00      	nop
    334c:	0000b75c 	.word	0x0000b75c
    3350:	40064000 	.word	0x40064000

00003354 <Clock_Ip_ResetScgHsrunSel_TrustedCall>:
    3354:	b084      	sub	sp, #16
    3356:	9001      	str	r0, [sp, #4]
    3358:	4b0b      	ldr	r3, [pc, #44]	; (3388 <Clock_Ip_ResetScgHsrunSel_TrustedCall+0x34>)
    335a:	795b      	ldrb	r3, [r3, #5]
    335c:	9303      	str	r3, [sp, #12]
    335e:	4b0b      	ldr	r3, [pc, #44]	; (338c <Clock_Ip_ResetScgHsrunSel_TrustedCall+0x38>)
    3360:	69db      	ldr	r3, [r3, #28]
    3362:	9302      	str	r3, [sp, #8]
    3364:	9b02      	ldr	r3, [sp, #8]
    3366:	f023 6370 	bic.w	r3, r3, #251658240	; 0xf000000
    336a:	9302      	str	r3, [sp, #8]
    336c:	9b03      	ldr	r3, [sp, #12]
    336e:	061b      	lsls	r3, r3, #24
    3370:	f003 6370 	and.w	r3, r3, #251658240	; 0xf000000
    3374:	9a02      	ldr	r2, [sp, #8]
    3376:	4313      	orrs	r3, r2
    3378:	9302      	str	r3, [sp, #8]
    337a:	4a04      	ldr	r2, [pc, #16]	; (338c <Clock_Ip_ResetScgHsrunSel_TrustedCall+0x38>)
    337c:	9b02      	ldr	r3, [sp, #8]
    337e:	61d3      	str	r3, [r2, #28]
    3380:	bf00      	nop
    3382:	b004      	add	sp, #16
    3384:	4770      	bx	lr
    3386:	bf00      	nop
    3388:	0000b75c 	.word	0x0000b75c
    338c:	40064000 	.word	0x40064000

00003390 <Clock_Ip_SetScgHsrunSel_TrustedCall>:
    3390:	b084      	sub	sp, #16
    3392:	9001      	str	r0, [sp, #4]
    3394:	9b01      	ldr	r3, [sp, #4]
    3396:	685b      	ldr	r3, [r3, #4]
    3398:	4a0b      	ldr	r2, [pc, #44]	; (33c8 <Clock_Ip_SetScgHsrunSel_TrustedCall+0x38>)
    339a:	5cd3      	ldrb	r3, [r2, r3]
    339c:	9303      	str	r3, [sp, #12]
    339e:	4b0b      	ldr	r3, [pc, #44]	; (33cc <Clock_Ip_SetScgHsrunSel_TrustedCall+0x3c>)
    33a0:	69db      	ldr	r3, [r3, #28]
    33a2:	9302      	str	r3, [sp, #8]
    33a4:	9b02      	ldr	r3, [sp, #8]
    33a6:	f023 6370 	bic.w	r3, r3, #251658240	; 0xf000000
    33aa:	9302      	str	r3, [sp, #8]
    33ac:	9b03      	ldr	r3, [sp, #12]
    33ae:	061b      	lsls	r3, r3, #24
    33b0:	f003 6370 	and.w	r3, r3, #251658240	; 0xf000000
    33b4:	9a02      	ldr	r2, [sp, #8]
    33b6:	4313      	orrs	r3, r2
    33b8:	9302      	str	r3, [sp, #8]
    33ba:	4a04      	ldr	r2, [pc, #16]	; (33cc <Clock_Ip_SetScgHsrunSel_TrustedCall+0x3c>)
    33bc:	9b02      	ldr	r3, [sp, #8]
    33be:	61d3      	str	r3, [r2, #28]
    33c0:	bf00      	nop
    33c2:	b004      	add	sp, #16
    33c4:	4770      	bx	lr
    33c6:	bf00      	nop
    33c8:	0000b75c 	.word	0x0000b75c
    33cc:	40064000 	.word	0x40064000

000033d0 <Clock_Ip_ResetSimRtcSel_TrustedCall>:
    33d0:	b084      	sub	sp, #16
    33d2:	9001      	str	r0, [sp, #4]
    33d4:	4b0a      	ldr	r3, [pc, #40]	; (3400 <Clock_Ip_ResetSimRtcSel_TrustedCall+0x30>)
    33d6:	7b9b      	ldrb	r3, [r3, #14]
    33d8:	9303      	str	r3, [sp, #12]
    33da:	4b0a      	ldr	r3, [pc, #40]	; (3404 <Clock_Ip_ResetSimRtcSel_TrustedCall+0x34>)
    33dc:	691b      	ldr	r3, [r3, #16]
    33de:	9302      	str	r3, [sp, #8]
    33e0:	9b02      	ldr	r3, [sp, #8]
    33e2:	f023 0330 	bic.w	r3, r3, #48	; 0x30
    33e6:	9302      	str	r3, [sp, #8]
    33e8:	9b03      	ldr	r3, [sp, #12]
    33ea:	011b      	lsls	r3, r3, #4
    33ec:	9a02      	ldr	r2, [sp, #8]
    33ee:	4313      	orrs	r3, r2
    33f0:	9302      	str	r3, [sp, #8]
    33f2:	4a04      	ldr	r2, [pc, #16]	; (3404 <Clock_Ip_ResetSimRtcSel_TrustedCall+0x34>)
    33f4:	9b02      	ldr	r3, [sp, #8]
    33f6:	6113      	str	r3, [r2, #16]
    33f8:	bf00      	nop
    33fa:	b004      	add	sp, #16
    33fc:	4770      	bx	lr
    33fe:	bf00      	nop
    3400:	0000b704 	.word	0x0000b704
    3404:	40048000 	.word	0x40048000

00003408 <Clock_Ip_SetSimRtcSel_TrustedCall>:
    3408:	b084      	sub	sp, #16
    340a:	9001      	str	r0, [sp, #4]
    340c:	9b01      	ldr	r3, [sp, #4]
    340e:	685b      	ldr	r3, [r3, #4]
    3410:	4a0a      	ldr	r2, [pc, #40]	; (343c <Clock_Ip_SetSimRtcSel_TrustedCall+0x34>)
    3412:	5cd3      	ldrb	r3, [r2, r3]
    3414:	9303      	str	r3, [sp, #12]
    3416:	4b0a      	ldr	r3, [pc, #40]	; (3440 <Clock_Ip_SetSimRtcSel_TrustedCall+0x38>)
    3418:	691b      	ldr	r3, [r3, #16]
    341a:	9302      	str	r3, [sp, #8]
    341c:	9b02      	ldr	r3, [sp, #8]
    341e:	f023 0330 	bic.w	r3, r3, #48	; 0x30
    3422:	9302      	str	r3, [sp, #8]
    3424:	9b03      	ldr	r3, [sp, #12]
    3426:	011b      	lsls	r3, r3, #4
    3428:	9a02      	ldr	r2, [sp, #8]
    342a:	4313      	orrs	r3, r2
    342c:	9302      	str	r3, [sp, #8]
    342e:	4a04      	ldr	r2, [pc, #16]	; (3440 <Clock_Ip_SetSimRtcSel_TrustedCall+0x38>)
    3430:	9b02      	ldr	r3, [sp, #8]
    3432:	6113      	str	r3, [r2, #16]
    3434:	bf00      	nop
    3436:	b004      	add	sp, #16
    3438:	4770      	bx	lr
    343a:	bf00      	nop
    343c:	0000b704 	.word	0x0000b704
    3440:	40048000 	.word	0x40048000

00003444 <Clock_Ip_ResetSimLpoSel_TrustedCall>:
    3444:	b084      	sub	sp, #16
    3446:	9001      	str	r0, [sp, #4]
    3448:	4b0a      	ldr	r3, [pc, #40]	; (3474 <Clock_Ip_ResetSimLpoSel_TrustedCall+0x30>)
    344a:	785b      	ldrb	r3, [r3, #1]
    344c:	9303      	str	r3, [sp, #12]
    344e:	4b0a      	ldr	r3, [pc, #40]	; (3478 <Clock_Ip_ResetSimLpoSel_TrustedCall+0x34>)
    3450:	691b      	ldr	r3, [r3, #16]
    3452:	9302      	str	r3, [sp, #8]
    3454:	9b02      	ldr	r3, [sp, #8]
    3456:	f023 030c 	bic.w	r3, r3, #12
    345a:	9302      	str	r3, [sp, #8]
    345c:	9b03      	ldr	r3, [sp, #12]
    345e:	009b      	lsls	r3, r3, #2
    3460:	9a02      	ldr	r2, [sp, #8]
    3462:	4313      	orrs	r3, r2
    3464:	9302      	str	r3, [sp, #8]
    3466:	4a04      	ldr	r2, [pc, #16]	; (3478 <Clock_Ip_ResetSimLpoSel_TrustedCall+0x34>)
    3468:	9b02      	ldr	r3, [sp, #8]
    346a:	6113      	str	r3, [r2, #16]
    346c:	bf00      	nop
    346e:	b004      	add	sp, #16
    3470:	4770      	bx	lr
    3472:	bf00      	nop
    3474:	0000b7bc 	.word	0x0000b7bc
    3478:	40048000 	.word	0x40048000

0000347c <Clock_Ip_SetSimLpoSel_TrustedCall>:
    347c:	b084      	sub	sp, #16
    347e:	9001      	str	r0, [sp, #4]
    3480:	9b01      	ldr	r3, [sp, #4]
    3482:	685b      	ldr	r3, [r3, #4]
    3484:	4a0a      	ldr	r2, [pc, #40]	; (34b0 <Clock_Ip_SetSimLpoSel_TrustedCall+0x34>)
    3486:	5cd3      	ldrb	r3, [r2, r3]
    3488:	9303      	str	r3, [sp, #12]
    348a:	4b0a      	ldr	r3, [pc, #40]	; (34b4 <Clock_Ip_SetSimLpoSel_TrustedCall+0x38>)
    348c:	691b      	ldr	r3, [r3, #16]
    348e:	9302      	str	r3, [sp, #8]
    3490:	9b02      	ldr	r3, [sp, #8]
    3492:	f023 030c 	bic.w	r3, r3, #12
    3496:	9302      	str	r3, [sp, #8]
    3498:	9b03      	ldr	r3, [sp, #12]
    349a:	009b      	lsls	r3, r3, #2
    349c:	9a02      	ldr	r2, [sp, #8]
    349e:	4313      	orrs	r3, r2
    34a0:	9302      	str	r3, [sp, #8]
    34a2:	4a04      	ldr	r2, [pc, #16]	; (34b4 <Clock_Ip_SetSimLpoSel_TrustedCall+0x38>)
    34a4:	9b02      	ldr	r3, [sp, #8]
    34a6:	6113      	str	r3, [r2, #16]
    34a8:	bf00      	nop
    34aa:	b004      	add	sp, #16
    34ac:	4770      	bx	lr
    34ae:	bf00      	nop
    34b0:	0000b7bc 	.word	0x0000b7bc
    34b4:	40048000 	.word	0x40048000

000034b8 <Clock_Ip_ResetScgClkoutSel_TrustedCall>:
    34b8:	b084      	sub	sp, #16
    34ba:	9001      	str	r0, [sp, #4]
    34bc:	4b0a      	ldr	r3, [pc, #40]	; (34e8 <Clock_Ip_ResetScgClkoutSel_TrustedCall+0x30>)
    34be:	795b      	ldrb	r3, [r3, #5]
    34c0:	9303      	str	r3, [sp, #12]
    34c2:	4b0a      	ldr	r3, [pc, #40]	; (34ec <Clock_Ip_ResetScgClkoutSel_TrustedCall+0x34>)
    34c4:	6a1b      	ldr	r3, [r3, #32]
    34c6:	9302      	str	r3, [sp, #8]
    34c8:	9b02      	ldr	r3, [sp, #8]
    34ca:	f023 6370 	bic.w	r3, r3, #251658240	; 0xf000000
    34ce:	9302      	str	r3, [sp, #8]
    34d0:	9b03      	ldr	r3, [sp, #12]
    34d2:	061b      	lsls	r3, r3, #24
    34d4:	9a02      	ldr	r2, [sp, #8]
    34d6:	4313      	orrs	r3, r2
    34d8:	9302      	str	r3, [sp, #8]
    34da:	4a04      	ldr	r2, [pc, #16]	; (34ec <Clock_Ip_ResetScgClkoutSel_TrustedCall+0x34>)
    34dc:	9b02      	ldr	r3, [sp, #8]
    34de:	6213      	str	r3, [r2, #32]
    34e0:	bf00      	nop
    34e2:	b004      	add	sp, #16
    34e4:	4770      	bx	lr
    34e6:	bf00      	nop
    34e8:	0000b75c 	.word	0x0000b75c
    34ec:	40064000 	.word	0x40064000

000034f0 <Clock_Ip_SetScgClkoutSel_TrustedCall>:
    34f0:	b084      	sub	sp, #16
    34f2:	9001      	str	r0, [sp, #4]
    34f4:	9b01      	ldr	r3, [sp, #4]
    34f6:	685b      	ldr	r3, [r3, #4]
    34f8:	4a0a      	ldr	r2, [pc, #40]	; (3524 <Clock_Ip_SetScgClkoutSel_TrustedCall+0x34>)
    34fa:	5cd3      	ldrb	r3, [r2, r3]
    34fc:	9303      	str	r3, [sp, #12]
    34fe:	4b0a      	ldr	r3, [pc, #40]	; (3528 <Clock_Ip_SetScgClkoutSel_TrustedCall+0x38>)
    3500:	6a1b      	ldr	r3, [r3, #32]
    3502:	9302      	str	r3, [sp, #8]
    3504:	9b02      	ldr	r3, [sp, #8]
    3506:	f023 6370 	bic.w	r3, r3, #251658240	; 0xf000000
    350a:	9302      	str	r3, [sp, #8]
    350c:	9b03      	ldr	r3, [sp, #12]
    350e:	061b      	lsls	r3, r3, #24
    3510:	9a02      	ldr	r2, [sp, #8]
    3512:	4313      	orrs	r3, r2
    3514:	9302      	str	r3, [sp, #8]
    3516:	4a04      	ldr	r2, [pc, #16]	; (3528 <Clock_Ip_SetScgClkoutSel_TrustedCall+0x38>)
    3518:	9b02      	ldr	r3, [sp, #8]
    351a:	6213      	str	r3, [r2, #32]
    351c:	bf00      	nop
    351e:	b004      	add	sp, #16
    3520:	4770      	bx	lr
    3522:	bf00      	nop
    3524:	0000b75c 	.word	0x0000b75c
    3528:	40064000 	.word	0x40064000

0000352c <Clock_Ip_ResetSimFtmoptSel_TrustedCall>:
    352c:	b086      	sub	sp, #24
    352e:	9001      	str	r0, [sp, #4]
    3530:	4b20      	ldr	r3, [pc, #128]	; (35b4 <Clock_Ip_ResetSimFtmoptSel_TrustedCall+0x88>)
    3532:	795b      	ldrb	r3, [r3, #5]
    3534:	9304      	str	r3, [sp, #16]
    3536:	9b01      	ldr	r3, [sp, #4]
    3538:	681a      	ldr	r2, [r3, #0]
    353a:	491f      	ldr	r1, [pc, #124]	; (35b8 <Clock_Ip_ResetSimFtmoptSel_TrustedCall+0x8c>)
    353c:	4613      	mov	r3, r2
    353e:	00db      	lsls	r3, r3, #3
    3540:	4413      	add	r3, r2
    3542:	440b      	add	r3, r1
    3544:	781b      	ldrb	r3, [r3, #0]
    3546:	9303      	str	r3, [sp, #12]
    3548:	4b1c      	ldr	r3, [pc, #112]	; (35bc <Clock_Ip_ResetSimFtmoptSel_TrustedCall+0x90>)
    354a:	68db      	ldr	r3, [r3, #12]
    354c:	9305      	str	r3, [sp, #20]
    354e:	9b03      	ldr	r3, [sp, #12]
    3550:	2b03      	cmp	r3, #3
    3552:	d813      	bhi.n	357c <Clock_Ip_ResetSimFtmoptSel_TrustedCall+0x50>
    3554:	9b03      	ldr	r3, [sp, #12]
    3556:	005b      	lsls	r3, r3, #1
    3558:	3318      	adds	r3, #24
    355a:	2203      	movs	r2, #3
    355c:	fa02 f303 	lsl.w	r3, r2, r3
    3560:	43db      	mvns	r3, r3
    3562:	9a05      	ldr	r2, [sp, #20]
    3564:	4013      	ands	r3, r2
    3566:	9305      	str	r3, [sp, #20]
    3568:	9b03      	ldr	r3, [sp, #12]
    356a:	005b      	lsls	r3, r3, #1
    356c:	3318      	adds	r3, #24
    356e:	9a04      	ldr	r2, [sp, #16]
    3570:	fa02 f303 	lsl.w	r3, r2, r3
    3574:	9a05      	ldr	r2, [sp, #20]
    3576:	4313      	orrs	r3, r2
    3578:	9305      	str	r3, [sp, #20]
    357a:	e014      	b.n	35a6 <Clock_Ip_ResetSimFtmoptSel_TrustedCall+0x7a>
    357c:	9b03      	ldr	r3, [sp, #12]
    357e:	3b04      	subs	r3, #4
    3580:	005b      	lsls	r3, r3, #1
    3582:	3310      	adds	r3, #16
    3584:	2203      	movs	r2, #3
    3586:	fa02 f303 	lsl.w	r3, r2, r3
    358a:	43db      	mvns	r3, r3
    358c:	9a05      	ldr	r2, [sp, #20]
    358e:	4013      	ands	r3, r2
    3590:	9305      	str	r3, [sp, #20]
    3592:	9b03      	ldr	r3, [sp, #12]
    3594:	3b04      	subs	r3, #4
    3596:	005b      	lsls	r3, r3, #1
    3598:	3310      	adds	r3, #16
    359a:	9a04      	ldr	r2, [sp, #16]
    359c:	fa02 f303 	lsl.w	r3, r2, r3
    35a0:	9a05      	ldr	r2, [sp, #20]
    35a2:	4313      	orrs	r3, r2
    35a4:	9305      	str	r3, [sp, #20]
    35a6:	4a05      	ldr	r2, [pc, #20]	; (35bc <Clock_Ip_ResetSimFtmoptSel_TrustedCall+0x90>)
    35a8:	9b05      	ldr	r3, [sp, #20]
    35aa:	60d3      	str	r3, [r2, #12]
    35ac:	bf00      	nop
    35ae:	b006      	add	sp, #24
    35b0:	4770      	bx	lr
    35b2:	bf00      	nop
    35b4:	0000b704 	.word	0x0000b704
    35b8:	0000b3f4 	.word	0x0000b3f4
    35bc:	40048000 	.word	0x40048000

000035c0 <Clock_Ip_SetSimFtmoptSel_TrustedCall>:
    35c0:	b086      	sub	sp, #24
    35c2:	9001      	str	r0, [sp, #4]
    35c4:	9b01      	ldr	r3, [sp, #4]
    35c6:	685b      	ldr	r3, [r3, #4]
    35c8:	4a20      	ldr	r2, [pc, #128]	; (364c <Clock_Ip_SetSimFtmoptSel_TrustedCall+0x8c>)
    35ca:	5cd3      	ldrb	r3, [r2, r3]
    35cc:	9304      	str	r3, [sp, #16]
    35ce:	9b01      	ldr	r3, [sp, #4]
    35d0:	681a      	ldr	r2, [r3, #0]
    35d2:	491f      	ldr	r1, [pc, #124]	; (3650 <Clock_Ip_SetSimFtmoptSel_TrustedCall+0x90>)
    35d4:	4613      	mov	r3, r2
    35d6:	00db      	lsls	r3, r3, #3
    35d8:	4413      	add	r3, r2
    35da:	440b      	add	r3, r1
    35dc:	781b      	ldrb	r3, [r3, #0]
    35de:	9303      	str	r3, [sp, #12]
    35e0:	4b1c      	ldr	r3, [pc, #112]	; (3654 <Clock_Ip_SetSimFtmoptSel_TrustedCall+0x94>)
    35e2:	68db      	ldr	r3, [r3, #12]
    35e4:	9305      	str	r3, [sp, #20]
    35e6:	9b03      	ldr	r3, [sp, #12]
    35e8:	2b03      	cmp	r3, #3
    35ea:	d813      	bhi.n	3614 <Clock_Ip_SetSimFtmoptSel_TrustedCall+0x54>
    35ec:	9b03      	ldr	r3, [sp, #12]
    35ee:	005b      	lsls	r3, r3, #1
    35f0:	3318      	adds	r3, #24
    35f2:	2203      	movs	r2, #3
    35f4:	fa02 f303 	lsl.w	r3, r2, r3
    35f8:	43db      	mvns	r3, r3
    35fa:	9a05      	ldr	r2, [sp, #20]
    35fc:	4013      	ands	r3, r2
    35fe:	9305      	str	r3, [sp, #20]
    3600:	9b03      	ldr	r3, [sp, #12]
    3602:	005b      	lsls	r3, r3, #1
    3604:	3318      	adds	r3, #24
    3606:	9a04      	ldr	r2, [sp, #16]
    3608:	fa02 f303 	lsl.w	r3, r2, r3
    360c:	9a05      	ldr	r2, [sp, #20]
    360e:	4313      	orrs	r3, r2
    3610:	9305      	str	r3, [sp, #20]
    3612:	e014      	b.n	363e <Clock_Ip_SetSimFtmoptSel_TrustedCall+0x7e>
    3614:	9b03      	ldr	r3, [sp, #12]
    3616:	3b04      	subs	r3, #4
    3618:	005b      	lsls	r3, r3, #1
    361a:	3310      	adds	r3, #16
    361c:	2203      	movs	r2, #3
    361e:	fa02 f303 	lsl.w	r3, r2, r3
    3622:	43db      	mvns	r3, r3
    3624:	9a05      	ldr	r2, [sp, #20]
    3626:	4013      	ands	r3, r2
    3628:	9305      	str	r3, [sp, #20]
    362a:	9b03      	ldr	r3, [sp, #12]
    362c:	3b04      	subs	r3, #4
    362e:	005b      	lsls	r3, r3, #1
    3630:	3310      	adds	r3, #16
    3632:	9a04      	ldr	r2, [sp, #16]
    3634:	fa02 f303 	lsl.w	r3, r2, r3
    3638:	9a05      	ldr	r2, [sp, #20]
    363a:	4313      	orrs	r3, r2
    363c:	9305      	str	r3, [sp, #20]
    363e:	4a05      	ldr	r2, [pc, #20]	; (3654 <Clock_Ip_SetSimFtmoptSel_TrustedCall+0x94>)
    3640:	9b05      	ldr	r3, [sp, #20]
    3642:	60d3      	str	r3, [r2, #12]
    3644:	bf00      	nop
    3646:	b006      	add	sp, #24
    3648:	4770      	bx	lr
    364a:	bf00      	nop
    364c:	0000b704 	.word	0x0000b704
    3650:	0000b3f4 	.word	0x0000b3f4
    3654:	40048000 	.word	0x40048000

00003658 <Clock_Ip_ResetSimClkoutSel_TrustedCall>:
    3658:	b084      	sub	sp, #16
    365a:	9001      	str	r0, [sp, #4]
    365c:	4b06      	ldr	r3, [pc, #24]	; (3678 <Clock_Ip_ResetSimClkoutSel_TrustedCall+0x20>)
    365e:	685b      	ldr	r3, [r3, #4]
    3660:	9303      	str	r3, [sp, #12]
    3662:	9b03      	ldr	r3, [sp, #12]
    3664:	f423 630f 	bic.w	r3, r3, #2288	; 0x8f0
    3668:	9303      	str	r3, [sp, #12]
    366a:	4a03      	ldr	r2, [pc, #12]	; (3678 <Clock_Ip_ResetSimClkoutSel_TrustedCall+0x20>)
    366c:	9b03      	ldr	r3, [sp, #12]
    366e:	6053      	str	r3, [r2, #4]
    3670:	bf00      	nop
    3672:	b004      	add	sp, #16
    3674:	4770      	bx	lr
    3676:	bf00      	nop
    3678:	40048000 	.word	0x40048000

0000367c <Clock_Ip_SetSimClkoutSel_TrustedCall>:
    367c:	b084      	sub	sp, #16
    367e:	9001      	str	r0, [sp, #4]
    3680:	9b01      	ldr	r3, [sp, #4]
    3682:	685b      	ldr	r3, [r3, #4]
    3684:	4a0a      	ldr	r2, [pc, #40]	; (36b0 <Clock_Ip_SetSimClkoutSel_TrustedCall+0x34>)
    3686:	5cd3      	ldrb	r3, [r2, r3]
    3688:	9303      	str	r3, [sp, #12]
    368a:	4b0a      	ldr	r3, [pc, #40]	; (36b4 <Clock_Ip_SetSimClkoutSel_TrustedCall+0x38>)
    368c:	685b      	ldr	r3, [r3, #4]
    368e:	9302      	str	r3, [sp, #8]
    3690:	9b02      	ldr	r3, [sp, #8]
    3692:	f023 03f0 	bic.w	r3, r3, #240	; 0xf0
    3696:	9302      	str	r3, [sp, #8]
    3698:	9b03      	ldr	r3, [sp, #12]
    369a:	011b      	lsls	r3, r3, #4
    369c:	9a02      	ldr	r2, [sp, #8]
    369e:	4313      	orrs	r3, r2
    36a0:	9302      	str	r3, [sp, #8]
    36a2:	4a04      	ldr	r2, [pc, #16]	; (36b4 <Clock_Ip_SetSimClkoutSel_TrustedCall+0x38>)
    36a4:	9b02      	ldr	r3, [sp, #8]
    36a6:	6053      	str	r3, [r2, #4]
    36a8:	bf00      	nop
    36aa:	b004      	add	sp, #16
    36ac:	4770      	bx	lr
    36ae:	bf00      	nop
    36b0:	0000b704 	.word	0x0000b704
    36b4:	40048000 	.word	0x40048000

000036b8 <Clock_Ip_ResetPccPcsSelect_TrustedCall>:
    36b8:	b084      	sub	sp, #16
    36ba:	9001      	str	r0, [sp, #4]
    36bc:	9b01      	ldr	r3, [sp, #4]
    36be:	681a      	ldr	r2, [r3, #0]
    36c0:	490f      	ldr	r1, [pc, #60]	; (3700 <Clock_Ip_ResetPccPcsSelect_TrustedCall+0x48>)
    36c2:	4613      	mov	r3, r2
    36c4:	00db      	lsls	r3, r3, #3
    36c6:	4413      	add	r3, r2
    36c8:	440b      	add	r3, r1
    36ca:	3304      	adds	r3, #4
    36cc:	781b      	ldrb	r3, [r3, #0]
    36ce:	9303      	str	r3, [sp, #12]
    36d0:	4a0c      	ldr	r2, [pc, #48]	; (3704 <Clock_Ip_ResetPccPcsSelect_TrustedCall+0x4c>)
    36d2:	9b03      	ldr	r3, [sp, #12]
    36d4:	f852 3023 	ldr.w	r3, [r2, r3, lsl #2]
    36d8:	490a      	ldr	r1, [pc, #40]	; (3704 <Clock_Ip_ResetPccPcsSelect_TrustedCall+0x4c>)
    36da:	f023 4280 	bic.w	r2, r3, #1073741824	; 0x40000000
    36de:	9b03      	ldr	r3, [sp, #12]
    36e0:	f841 2023 	str.w	r2, [r1, r3, lsl #2]
    36e4:	4a07      	ldr	r2, [pc, #28]	; (3704 <Clock_Ip_ResetPccPcsSelect_TrustedCall+0x4c>)
    36e6:	9b03      	ldr	r3, [sp, #12]
    36e8:	f852 3023 	ldr.w	r3, [r2, r3, lsl #2]
    36ec:	4905      	ldr	r1, [pc, #20]	; (3704 <Clock_Ip_ResetPccPcsSelect_TrustedCall+0x4c>)
    36ee:	f023 62e0 	bic.w	r2, r3, #117440512	; 0x7000000
    36f2:	9b03      	ldr	r3, [sp, #12]
    36f4:	f841 2023 	str.w	r2, [r1, r3, lsl #2]
    36f8:	bf00      	nop
    36fa:	b004      	add	sp, #16
    36fc:	4770      	bx	lr
    36fe:	bf00      	nop
    3700:	0000b3f4 	.word	0x0000b3f4
    3704:	40065000 	.word	0x40065000

00003708 <Clock_Ip_SetPccPcsSelect_TrustedCall>:
    3708:	b086      	sub	sp, #24
    370a:	9001      	str	r0, [sp, #4]
    370c:	9b01      	ldr	r3, [sp, #4]
    370e:	681a      	ldr	r2, [r3, #0]
    3710:	4912      	ldr	r1, [pc, #72]	; (375c <Clock_Ip_SetPccPcsSelect_TrustedCall+0x54>)
    3712:	4613      	mov	r3, r2
    3714:	00db      	lsls	r3, r3, #3
    3716:	4413      	add	r3, r2
    3718:	440b      	add	r3, r1
    371a:	3304      	adds	r3, #4
    371c:	781b      	ldrb	r3, [r3, #0]
    371e:	9305      	str	r3, [sp, #20]
    3720:	9b01      	ldr	r3, [sp, #4]
    3722:	685b      	ldr	r3, [r3, #4]
    3724:	4a0e      	ldr	r2, [pc, #56]	; (3760 <Clock_Ip_SetPccPcsSelect_TrustedCall+0x58>)
    3726:	5cd3      	ldrb	r3, [r2, r3]
    3728:	9304      	str	r3, [sp, #16]
    372a:	4a0e      	ldr	r2, [pc, #56]	; (3764 <Clock_Ip_SetPccPcsSelect_TrustedCall+0x5c>)
    372c:	9b05      	ldr	r3, [sp, #20]
    372e:	f852 3023 	ldr.w	r3, [r2, r3, lsl #2]
    3732:	9303      	str	r3, [sp, #12]
    3734:	9b03      	ldr	r3, [sp, #12]
    3736:	f023 63e0 	bic.w	r3, r3, #117440512	; 0x7000000
    373a:	9303      	str	r3, [sp, #12]
    373c:	9b04      	ldr	r3, [sp, #16]
    373e:	061b      	lsls	r3, r3, #24
    3740:	f003 63e0 	and.w	r3, r3, #117440512	; 0x7000000
    3744:	9a03      	ldr	r2, [sp, #12]
    3746:	4313      	orrs	r3, r2
    3748:	9303      	str	r3, [sp, #12]
    374a:	4906      	ldr	r1, [pc, #24]	; (3764 <Clock_Ip_SetPccPcsSelect_TrustedCall+0x5c>)
    374c:	9b05      	ldr	r3, [sp, #20]
    374e:	9a03      	ldr	r2, [sp, #12]
    3750:	f841 2023 	str.w	r2, [r1, r3, lsl #2]
    3754:	bf00      	nop
    3756:	b006      	add	sp, #24
    3758:	4770      	bx	lr
    375a:	bf00      	nop
    375c:	0000b3f4 	.word	0x0000b3f4
    3760:	0000b78c 	.word	0x0000b78c
    3764:	40065000 	.word	0x40065000

00003768 <Clock_Ip_ResetSimTraceSel_TrustedCall>:
    3768:	b084      	sub	sp, #16
    376a:	9001      	str	r0, [sp, #4]
    376c:	4b0b      	ldr	r3, [pc, #44]	; (379c <Clock_Ip_ResetSimTraceSel_TrustedCall+0x34>)
    376e:	7f1b      	ldrb	r3, [r3, #28]
    3770:	9303      	str	r3, [sp, #12]
    3772:	4b0b      	ldr	r3, [pc, #44]	; (37a0 <Clock_Ip_ResetSimTraceSel_TrustedCall+0x38>)
    3774:	685b      	ldr	r3, [r3, #4]
    3776:	9302      	str	r3, [sp, #8]
    3778:	9b02      	ldr	r3, [sp, #8]
    377a:	f423 5380 	bic.w	r3, r3, #4096	; 0x1000
    377e:	9302      	str	r3, [sp, #8]
    3780:	9b03      	ldr	r3, [sp, #12]
    3782:	031b      	lsls	r3, r3, #12
    3784:	f403 5380 	and.w	r3, r3, #4096	; 0x1000
    3788:	9a02      	ldr	r2, [sp, #8]
    378a:	4313      	orrs	r3, r2
    378c:	9302      	str	r3, [sp, #8]
    378e:	4a04      	ldr	r2, [pc, #16]	; (37a0 <Clock_Ip_ResetSimTraceSel_TrustedCall+0x38>)
    3790:	9b02      	ldr	r3, [sp, #8]
    3792:	6053      	str	r3, [r2, #4]
    3794:	bf00      	nop
    3796:	b004      	add	sp, #16
    3798:	4770      	bx	lr
    379a:	bf00      	nop
    379c:	0000b704 	.word	0x0000b704
    37a0:	40048000 	.word	0x40048000

000037a4 <Clock_Ip_SetSimTraceSel_TrustedCall>:
    37a4:	b084      	sub	sp, #16
    37a6:	9001      	str	r0, [sp, #4]
    37a8:	9b01      	ldr	r3, [sp, #4]
    37aa:	685b      	ldr	r3, [r3, #4]
    37ac:	4a0b      	ldr	r2, [pc, #44]	; (37dc <Clock_Ip_SetSimTraceSel_TrustedCall+0x38>)
    37ae:	5cd3      	ldrb	r3, [r2, r3]
    37b0:	9303      	str	r3, [sp, #12]
    37b2:	4b0b      	ldr	r3, [pc, #44]	; (37e0 <Clock_Ip_SetSimTraceSel_TrustedCall+0x3c>)
    37b4:	685b      	ldr	r3, [r3, #4]
    37b6:	9302      	str	r3, [sp, #8]
    37b8:	9b02      	ldr	r3, [sp, #8]
    37ba:	f423 5380 	bic.w	r3, r3, #4096	; 0x1000
    37be:	9302      	str	r3, [sp, #8]
    37c0:	9b03      	ldr	r3, [sp, #12]
    37c2:	031b      	lsls	r3, r3, #12
    37c4:	f403 5380 	and.w	r3, r3, #4096	; 0x1000
    37c8:	9a02      	ldr	r2, [sp, #8]
    37ca:	4313      	orrs	r3, r2
    37cc:	9302      	str	r3, [sp, #8]
    37ce:	4a04      	ldr	r2, [pc, #16]	; (37e0 <Clock_Ip_SetSimTraceSel_TrustedCall+0x3c>)
    37d0:	9b02      	ldr	r3, [sp, #8]
    37d2:	6053      	str	r3, [r2, #4]
    37d4:	bf00      	nop
    37d6:	b004      	add	sp, #16
    37d8:	4770      	bx	lr
    37da:	bf00      	nop
    37dc:	0000b704 	.word	0x0000b704
    37e0:	40048000 	.word	0x40048000

000037e4 <DisableSafeClock>:
    37e4:	b500      	push	{lr}
    37e6:	b085      	sub	sp, #20
    37e8:	9001      	str	r0, [sp, #4]
    37ea:	2300      	movs	r3, #0
    37ec:	f88d 300b 	strb.w	r3, [sp, #11]
    37f0:	9b01      	ldr	r3, [sp, #4]
    37f2:	2b00      	cmp	r3, #0
    37f4:	d037      	beq.n	3866 <DisableSafeClock+0x82>
    37f6:	2300      	movs	r3, #0
    37f8:	9303      	str	r3, [sp, #12]
    37fa:	e02b      	b.n	3854 <DisableSafeClock+0x70>
    37fc:	4b29      	ldr	r3, [pc, #164]	; (38a4 <DisableSafeClock+0xc0>)
    37fe:	6819      	ldr	r1, [r3, #0]
    3800:	9a03      	ldr	r2, [sp, #12]
    3802:	4613      	mov	r3, r2
    3804:	005b      	lsls	r3, r3, #1
    3806:	4413      	add	r3, r2
    3808:	009b      	lsls	r3, r3, #2
    380a:	440b      	add	r3, r1
    380c:	3314      	adds	r3, #20
    380e:	681b      	ldr	r3, [r3, #0]
    3810:	2b05      	cmp	r3, #5
    3812:	d11c      	bne.n	384e <DisableSafeClock+0x6a>
    3814:	2301      	movs	r3, #1
    3816:	f88d 300b 	strb.w	r3, [sp, #11]
    381a:	4b22      	ldr	r3, [pc, #136]	; (38a4 <DisableSafeClock+0xc0>)
    381c:	6819      	ldr	r1, [r3, #0]
    381e:	9a03      	ldr	r2, [sp, #12]
    3820:	4613      	mov	r3, r2
    3822:	005b      	lsls	r3, r3, #1
    3824:	4413      	add	r3, r2
    3826:	009b      	lsls	r3, r3, #2
    3828:	440b      	add	r3, r1
    382a:	3318      	adds	r3, #24
    382c:	881b      	ldrh	r3, [r3, #0]
    382e:	2b00      	cmp	r3, #0
    3830:	d118      	bne.n	3864 <DisableSafeClock+0x80>
    3832:	4b1d      	ldr	r3, [pc, #116]	; (38a8 <DisableSafeClock+0xc4>)
    3834:	791b      	ldrb	r3, [r3, #4]
    3836:	4619      	mov	r1, r3
    3838:	4a1c      	ldr	r2, [pc, #112]	; (38ac <DisableSafeClock+0xc8>)
    383a:	460b      	mov	r3, r1
    383c:	005b      	lsls	r3, r3, #1
    383e:	440b      	add	r3, r1
    3840:	009b      	lsls	r3, r3, #2
    3842:	4413      	add	r3, r2
    3844:	3308      	adds	r3, #8
    3846:	681b      	ldr	r3, [r3, #0]
    3848:	2005      	movs	r0, #5
    384a:	4798      	blx	r3
    384c:	e00a      	b.n	3864 <DisableSafeClock+0x80>
    384e:	9b03      	ldr	r3, [sp, #12]
    3850:	3301      	adds	r3, #1
    3852:	9303      	str	r3, [sp, #12]
    3854:	4b13      	ldr	r3, [pc, #76]	; (38a4 <DisableSafeClock+0xc0>)
    3856:	681b      	ldr	r3, [r3, #0]
    3858:	7a1b      	ldrb	r3, [r3, #8]
    385a:	461a      	mov	r2, r3
    385c:	9b03      	ldr	r3, [sp, #12]
    385e:	4293      	cmp	r3, r2
    3860:	d3cc      	bcc.n	37fc <DisableSafeClock+0x18>
    3862:	e000      	b.n	3866 <DisableSafeClock+0x82>
    3864:	bf00      	nop
    3866:	f89d 300b 	ldrb.w	r3, [sp, #11]
    386a:	f083 0301 	eor.w	r3, r3, #1
    386e:	b2db      	uxtb	r3, r3
    3870:	2b00      	cmp	r3, #0
    3872:	d013      	beq.n	389c <DisableSafeClock+0xb8>
    3874:	4b0e      	ldr	r3, [pc, #56]	; (38b0 <DisableSafeClock+0xcc>)
    3876:	781b      	ldrb	r3, [r3, #0]
    3878:	f083 0301 	eor.w	r3, r3, #1
    387c:	b2db      	uxtb	r3, r3
    387e:	2b00      	cmp	r3, #0
    3880:	d00c      	beq.n	389c <DisableSafeClock+0xb8>
    3882:	4b09      	ldr	r3, [pc, #36]	; (38a8 <DisableSafeClock+0xc4>)
    3884:	791b      	ldrb	r3, [r3, #4]
    3886:	4619      	mov	r1, r3
    3888:	4a08      	ldr	r2, [pc, #32]	; (38ac <DisableSafeClock+0xc8>)
    388a:	460b      	mov	r3, r1
    388c:	005b      	lsls	r3, r3, #1
    388e:	440b      	add	r3, r1
    3890:	009b      	lsls	r3, r3, #2
    3892:	4413      	add	r3, r2
    3894:	3308      	adds	r3, #8
    3896:	681b      	ldr	r3, [r3, #0]
    3898:	2005      	movs	r0, #5
    389a:	4798      	blx	r3
    389c:	bf00      	nop
    389e:	b005      	add	sp, #20
    38a0:	f85d fb04 	ldr.w	pc, [sp], #4
    38a4:	1fff8ba8 	.word	0x1fff8ba8
    38a8:	0000b384 	.word	0x0000b384
    38ac:	0000b9b4 	.word	0x0000b9b4
    38b0:	1fff8b18 	.word	0x1fff8b18

000038b4 <SetFircToResetValue_TrustedCall>:
    38b4:	4b06      	ldr	r3, [pc, #24]	; (38d0 <SetFircToResetValue_TrustedCall+0x1c>)
    38b6:	2200      	movs	r2, #0
    38b8:	f8c3 2308 	str.w	r2, [r3, #776]	; 0x308
    38bc:	4b04      	ldr	r3, [pc, #16]	; (38d0 <SetFircToResetValue_TrustedCall+0x1c>)
    38be:	f8d3 3300 	ldr.w	r3, [r3, #768]	; 0x300
    38c2:	4a03      	ldr	r2, [pc, #12]	; (38d0 <SetFircToResetValue_TrustedCall+0x1c>)
    38c4:	f043 0301 	orr.w	r3, r3, #1
    38c8:	f8c2 3300 	str.w	r3, [r2, #768]	; 0x300
    38cc:	bf00      	nop
    38ce:	4770      	bx	lr
    38d0:	40064000 	.word	0x40064000

000038d4 <SetSimLpoclksRegister_TrustedCall>:
    38d4:	b084      	sub	sp, #16
    38d6:	9001      	str	r0, [sp, #4]
    38d8:	2303      	movs	r3, #3
    38da:	9303      	str	r3, [sp, #12]
    38dc:	2300      	movs	r3, #0
    38de:	9302      	str	r3, [sp, #8]
    38e0:	e028      	b.n	3934 <SetSimLpoclksRegister_TrustedCall+0x60>
    38e2:	9b01      	ldr	r3, [sp, #4]
    38e4:	9a02      	ldr	r2, [sp, #8]
    38e6:	320d      	adds	r2, #13
    38e8:	f853 3032 	ldr.w	r3, [r3, r2, lsl #3]
    38ec:	2b28      	cmp	r3, #40	; 0x28
    38ee:	d10b      	bne.n	3908 <SetSimLpoclksRegister_TrustedCall+0x34>
    38f0:	9a01      	ldr	r2, [sp, #4]
    38f2:	9b02      	ldr	r3, [sp, #8]
    38f4:	330d      	adds	r3, #13
    38f6:	00db      	lsls	r3, r3, #3
    38f8:	4413      	add	r3, r2
    38fa:	685b      	ldr	r3, [r3, #4]
    38fc:	4a2b      	ldr	r2, [pc, #172]	; (39ac <SetSimLpoclksRegister_TrustedCall+0xd8>)
    38fe:	5cd3      	ldrb	r3, [r2, r3]
    3900:	011b      	lsls	r3, r3, #4
    3902:	9a03      	ldr	r2, [sp, #12]
    3904:	4313      	orrs	r3, r2
    3906:	9303      	str	r3, [sp, #12]
    3908:	9b01      	ldr	r3, [sp, #4]
    390a:	9a02      	ldr	r2, [sp, #8]
    390c:	320d      	adds	r2, #13
    390e:	f853 3032 	ldr.w	r3, [r3, r2, lsl #3]
    3912:	2b29      	cmp	r3, #41	; 0x29
    3914:	d10b      	bne.n	392e <SetSimLpoclksRegister_TrustedCall+0x5a>
    3916:	9a01      	ldr	r2, [sp, #4]
    3918:	9b02      	ldr	r3, [sp, #8]
    391a:	330d      	adds	r3, #13
    391c:	00db      	lsls	r3, r3, #3
    391e:	4413      	add	r3, r2
    3920:	685b      	ldr	r3, [r3, #4]
    3922:	4a23      	ldr	r2, [pc, #140]	; (39b0 <SetSimLpoclksRegister_TrustedCall+0xdc>)
    3924:	5cd3      	ldrb	r3, [r2, r3]
    3926:	009b      	lsls	r3, r3, #2
    3928:	9a03      	ldr	r2, [sp, #12]
    392a:	4313      	orrs	r3, r2
    392c:	9303      	str	r3, [sp, #12]
    392e:	9b02      	ldr	r3, [sp, #8]
    3930:	3301      	adds	r3, #1
    3932:	9302      	str	r3, [sp, #8]
    3934:	9b01      	ldr	r3, [sp, #4]
    3936:	7adb      	ldrb	r3, [r3, #11]
    3938:	461a      	mov	r2, r3
    393a:	9b02      	ldr	r3, [sp, #8]
    393c:	4293      	cmp	r3, r2
    393e:	d3d0      	bcc.n	38e2 <SetSimLpoclksRegister_TrustedCall+0xe>
    3940:	2300      	movs	r3, #0
    3942:	9302      	str	r3, [sp, #8]
    3944:	e026      	b.n	3994 <SetSimLpoclksRegister_TrustedCall+0xc0>
    3946:	9a01      	ldr	r2, [sp, #4]
    3948:	9b02      	ldr	r3, [sp, #8]
    394a:	334e      	adds	r3, #78	; 0x4e
    394c:	00db      	lsls	r3, r3, #3
    394e:	4413      	add	r3, r2
    3950:	685b      	ldr	r3, [r3, #4]
    3952:	2b12      	cmp	r3, #18
    3954:	d109      	bne.n	396a <SetSimLpoclksRegister_TrustedCall+0x96>
    3956:	9a01      	ldr	r2, [sp, #4]
    3958:	9b02      	ldr	r3, [sp, #8]
    395a:	334e      	adds	r3, #78	; 0x4e
    395c:	00db      	lsls	r3, r3, #3
    395e:	4413      	add	r3, r2
    3960:	891b      	ldrh	r3, [r3, #8]
    3962:	005b      	lsls	r3, r3, #1
    3964:	9a03      	ldr	r2, [sp, #12]
    3966:	4313      	orrs	r3, r2
    3968:	9303      	str	r3, [sp, #12]
    396a:	9a01      	ldr	r2, [sp, #4]
    396c:	9b02      	ldr	r3, [sp, #8]
    396e:	334e      	adds	r3, #78	; 0x4e
    3970:	00db      	lsls	r3, r3, #3
    3972:	4413      	add	r3, r2
    3974:	685b      	ldr	r3, [r3, #4]
    3976:	2b13      	cmp	r3, #19
    3978:	d109      	bne.n	398e <SetSimLpoclksRegister_TrustedCall+0xba>
    397a:	9a01      	ldr	r2, [sp, #4]
    397c:	9b02      	ldr	r3, [sp, #8]
    397e:	334e      	adds	r3, #78	; 0x4e
    3980:	00db      	lsls	r3, r3, #3
    3982:	4413      	add	r3, r2
    3984:	891b      	ldrh	r3, [r3, #8]
    3986:	461a      	mov	r2, r3
    3988:	9b03      	ldr	r3, [sp, #12]
    398a:	4313      	orrs	r3, r2
    398c:	9303      	str	r3, [sp, #12]
    398e:	9b02      	ldr	r3, [sp, #8]
    3990:	3301      	adds	r3, #1
    3992:	9302      	str	r3, [sp, #8]
    3994:	9b01      	ldr	r3, [sp, #4]
    3996:	7c1b      	ldrb	r3, [r3, #16]
    3998:	461a      	mov	r2, r3
    399a:	9b02      	ldr	r3, [sp, #8]
    399c:	4293      	cmp	r3, r2
    399e:	d3d2      	bcc.n	3946 <SetSimLpoclksRegister_TrustedCall+0x72>
    39a0:	4a04      	ldr	r2, [pc, #16]	; (39b4 <SetSimLpoclksRegister_TrustedCall+0xe0>)
    39a2:	9b03      	ldr	r3, [sp, #12]
    39a4:	6113      	str	r3, [r2, #16]
    39a6:	bf00      	nop
    39a8:	b004      	add	sp, #16
    39aa:	4770      	bx	lr
    39ac:	0000b704 	.word	0x0000b704
    39b0:	0000b7bc 	.word	0x0000b7bc
    39b4:	40048000 	.word	0x40048000

000039b8 <Clock_Ip_SpecificPlatformInitClock>:
    39b8:	b500      	push	{lr}
    39ba:	b089      	sub	sp, #36	; 0x24
    39bc:	9001      	str	r0, [sp, #4]
    39be:	2300      	movs	r3, #0
    39c0:	f88d 301f 	strb.w	r3, [sp, #31]
    39c4:	4a21      	ldr	r2, [pc, #132]	; (3a4c <Clock_Ip_SpecificPlatformInitClock+0x94>)
    39c6:	9b01      	ldr	r3, [sp, #4]
    39c8:	6013      	str	r3, [r2, #0]
    39ca:	4b21      	ldr	r3, [pc, #132]	; (3a50 <Clock_Ip_SpecificPlatformInitClock+0x98>)
    39cc:	f8d3 3300 	ldr.w	r3, [r3, #768]	; 0x300
    39d0:	f003 0301 	and.w	r3, r3, #1
    39d4:	2b00      	cmp	r3, #0
    39d6:	d12e      	bne.n	3a36 <Clock_Ip_SpecificPlatformInitClock+0x7e>
    39d8:	4b1e      	ldr	r3, [pc, #120]	; (3a54 <Clock_Ip_SpecificPlatformInitClock+0x9c>)
    39da:	2200      	movs	r2, #0
    39dc:	701a      	strb	r2, [r3, #0]
    39de:	f7ff ff69 	bl	38b4 <SetFircToResetValue_TrustedCall>
    39e2:	aa03      	add	r2, sp, #12
    39e4:	a904      	add	r1, sp, #16
    39e6:	a805      	add	r0, sp, #20
    39e8:	f24c 3350 	movw	r3, #50000	; 0xc350
    39ec:	f7fe f8ae 	bl	1b4c <Clock_Ip_StartTimeout>
    39f0:	4b17      	ldr	r3, [pc, #92]	; (3a50 <Clock_Ip_SpecificPlatformInitClock+0x98>)
    39f2:	f8d3 3300 	ldr.w	r3, [r3, #768]	; 0x300
    39f6:	0e1b      	lsrs	r3, r3, #24
    39f8:	f003 0301 	and.w	r3, r3, #1
    39fc:	9306      	str	r3, [sp, #24]
    39fe:	9a03      	ldr	r2, [sp, #12]
    3a00:	a904      	add	r1, sp, #16
    3a02:	ab05      	add	r3, sp, #20
    3a04:	4618      	mov	r0, r3
    3a06:	f7fe f8bb 	bl	1b80 <Clock_Ip_TimeoutExpired>
    3a0a:	4603      	mov	r3, r0
    3a0c:	f88d 301f 	strb.w	r3, [sp, #31]
    3a10:	9b06      	ldr	r3, [sp, #24]
    3a12:	2b00      	cmp	r3, #0
    3a14:	d106      	bne.n	3a24 <Clock_Ip_SpecificPlatformInitClock+0x6c>
    3a16:	f89d 301f 	ldrb.w	r3, [sp, #31]
    3a1a:	f083 0301 	eor.w	r3, r3, #1
    3a1e:	b2db      	uxtb	r3, r3
    3a20:	2b00      	cmp	r3, #0
    3a22:	d1e5      	bne.n	39f0 <Clock_Ip_SpecificPlatformInitClock+0x38>
    3a24:	f89d 301f 	ldrb.w	r3, [sp, #31]
    3a28:	2b00      	cmp	r3, #0
    3a2a:	d007      	beq.n	3a3c <Clock_Ip_SpecificPlatformInitClock+0x84>
    3a2c:	2105      	movs	r1, #5
    3a2e:	2001      	movs	r0, #1
    3a30:	f7fe f87c 	bl	1b2c <Clock_Ip_ReportClockErrors>
    3a34:	e002      	b.n	3a3c <Clock_Ip_SpecificPlatformInitClock+0x84>
    3a36:	4b07      	ldr	r3, [pc, #28]	; (3a54 <Clock_Ip_SpecificPlatformInitClock+0x9c>)
    3a38:	2201      	movs	r2, #1
    3a3a:	701a      	strb	r2, [r3, #0]
    3a3c:	9801      	ldr	r0, [sp, #4]
    3a3e:	f7ff ff49 	bl	38d4 <SetSimLpoclksRegister_TrustedCall>
    3a42:	bf00      	nop
    3a44:	b009      	add	sp, #36	; 0x24
    3a46:	f85d fb04 	ldr.w	pc, [sp], #4
    3a4a:	bf00      	nop
    3a4c:	1fff8ba8 	.word	0x1fff8ba8
    3a50:	40064000 	.word	0x40064000
    3a54:	1fff8b18 	.word	0x1fff8b18

00003a58 <getFircConfig>:
    3a58:	b082      	sub	sp, #8
    3a5a:	2300      	movs	r3, #0
    3a5c:	9300      	str	r3, [sp, #0]
    3a5e:	4b29      	ldr	r3, [pc, #164]	; (3b04 <getFircConfig+0xac>)
    3a60:	681b      	ldr	r3, [r3, #0]
    3a62:	2b00      	cmp	r3, #0
    3a64:	d024      	beq.n	3ab0 <getFircConfig+0x58>
    3a66:	2300      	movs	r3, #0
    3a68:	9301      	str	r3, [sp, #4]
    3a6a:	e01a      	b.n	3aa2 <getFircConfig+0x4a>
    3a6c:	4b25      	ldr	r3, [pc, #148]	; (3b04 <getFircConfig+0xac>)
    3a6e:	6819      	ldr	r1, [r3, #0]
    3a70:	9a01      	ldr	r2, [sp, #4]
    3a72:	4613      	mov	r3, r2
    3a74:	005b      	lsls	r3, r3, #1
    3a76:	4413      	add	r3, r2
    3a78:	009b      	lsls	r3, r3, #2
    3a7a:	440b      	add	r3, r1
    3a7c:	3314      	adds	r3, #20
    3a7e:	681b      	ldr	r3, [r3, #0]
    3a80:	2b05      	cmp	r3, #5
    3a82:	d10b      	bne.n	3a9c <getFircConfig+0x44>
    3a84:	4b1f      	ldr	r3, [pc, #124]	; (3b04 <getFircConfig+0xac>)
    3a86:	6819      	ldr	r1, [r3, #0]
    3a88:	9a01      	ldr	r2, [sp, #4]
    3a8a:	4613      	mov	r3, r2
    3a8c:	005b      	lsls	r3, r3, #1
    3a8e:	4413      	add	r3, r2
    3a90:	009b      	lsls	r3, r3, #2
    3a92:	3310      	adds	r3, #16
    3a94:	440b      	add	r3, r1
    3a96:	3304      	adds	r3, #4
    3a98:	9300      	str	r3, [sp, #0]
    3a9a:	e009      	b.n	3ab0 <getFircConfig+0x58>
    3a9c:	9b01      	ldr	r3, [sp, #4]
    3a9e:	3301      	adds	r3, #1
    3aa0:	9301      	str	r3, [sp, #4]
    3aa2:	4b18      	ldr	r3, [pc, #96]	; (3b04 <getFircConfig+0xac>)
    3aa4:	681b      	ldr	r3, [r3, #0]
    3aa6:	7a1b      	ldrb	r3, [r3, #8]
    3aa8:	461a      	mov	r2, r3
    3aaa:	9b01      	ldr	r3, [sp, #4]
    3aac:	4293      	cmp	r3, r2
    3aae:	d3dd      	bcc.n	3a6c <getFircConfig+0x14>
    3ab0:	9b00      	ldr	r3, [sp, #0]
    3ab2:	2b00      	cmp	r3, #0
    3ab4:	d121      	bne.n	3afa <getFircConfig+0xa2>
    3ab6:	4b14      	ldr	r3, [pc, #80]	; (3b08 <getFircConfig+0xb0>)
    3ab8:	9300      	str	r3, [sp, #0]
    3aba:	4b13      	ldr	r3, [pc, #76]	; (3b08 <getFircConfig+0xb0>)
    3abc:	2205      	movs	r2, #5
    3abe:	601a      	str	r2, [r3, #0]
    3ac0:	4b12      	ldr	r3, [pc, #72]	; (3b0c <getFircConfig+0xb4>)
    3ac2:	f8d3 3300 	ldr.w	r3, [r3, #768]	; 0x300
    3ac6:	b29b      	uxth	r3, r3
    3ac8:	f003 0301 	and.w	r3, r3, #1
    3acc:	b29a      	uxth	r2, r3
    3ace:	4b0e      	ldr	r3, [pc, #56]	; (3b08 <getFircConfig+0xb0>)
    3ad0:	809a      	strh	r2, [r3, #4]
    3ad2:	4b0e      	ldr	r3, [pc, #56]	; (3b0c <getFircConfig+0xb4>)
    3ad4:	f8d3 3308 	ldr.w	r3, [r3, #776]	; 0x308
    3ad8:	b2db      	uxtb	r3, r3
    3ada:	f003 0303 	and.w	r3, r3, #3
    3ade:	b2da      	uxtb	r2, r3
    3ae0:	4b09      	ldr	r3, [pc, #36]	; (3b08 <getFircConfig+0xb0>)
    3ae2:	71da      	strb	r2, [r3, #7]
    3ae4:	4b09      	ldr	r3, [pc, #36]	; (3b0c <getFircConfig+0xb4>)
    3ae6:	f8d3 3300 	ldr.w	r3, [r3, #768]	; 0x300
    3aea:	b2db      	uxtb	r3, r3
    3aec:	10db      	asrs	r3, r3, #3
    3aee:	b2db      	uxtb	r3, r3
    3af0:	f003 0301 	and.w	r3, r3, #1
    3af4:	b2da      	uxtb	r2, r3
    3af6:	4b04      	ldr	r3, [pc, #16]	; (3b08 <getFircConfig+0xb0>)
    3af8:	719a      	strb	r2, [r3, #6]
    3afa:	9b00      	ldr	r3, [sp, #0]
    3afc:	4618      	mov	r0, r3
    3afe:	b002      	add	sp, #8
    3b00:	4770      	bx	lr
    3b02:	bf00      	nop
    3b04:	1fff8ba8 	.word	0x1fff8ba8
    3b08:	1fff8c14 	.word	0x1fff8c14
    3b0c:	40064000 	.word	0x40064000

00003b10 <getSoscConfig>:
    3b10:	b082      	sub	sp, #8
    3b12:	2300      	movs	r3, #0
    3b14:	9300      	str	r3, [sp, #0]
    3b16:	4b20      	ldr	r3, [pc, #128]	; (3b98 <getSoscConfig+0x88>)
    3b18:	681b      	ldr	r3, [r3, #0]
    3b1a:	2b00      	cmp	r3, #0
    3b1c:	d024      	beq.n	3b68 <getSoscConfig+0x58>
    3b1e:	2300      	movs	r3, #0
    3b20:	9301      	str	r3, [sp, #4]
    3b22:	e01a      	b.n	3b5a <getSoscConfig+0x4a>
    3b24:	4b1c      	ldr	r3, [pc, #112]	; (3b98 <getSoscConfig+0x88>)
    3b26:	6819      	ldr	r1, [r3, #0]
    3b28:	9a01      	ldr	r2, [sp, #4]
    3b2a:	4613      	mov	r3, r2
    3b2c:	009b      	lsls	r3, r3, #2
    3b2e:	4413      	add	r3, r2
    3b30:	009b      	lsls	r3, r3, #2
    3b32:	440b      	add	r3, r1
    3b34:	332c      	adds	r3, #44	; 0x2c
    3b36:	681b      	ldr	r3, [r3, #0]
    3b38:	2b08      	cmp	r3, #8
    3b3a:	d10b      	bne.n	3b54 <getSoscConfig+0x44>
    3b3c:	4b16      	ldr	r3, [pc, #88]	; (3b98 <getSoscConfig+0x88>)
    3b3e:	6819      	ldr	r1, [r3, #0]
    3b40:	9a01      	ldr	r2, [sp, #4]
    3b42:	4613      	mov	r3, r2
    3b44:	009b      	lsls	r3, r3, #2
    3b46:	4413      	add	r3, r2
    3b48:	009b      	lsls	r3, r3, #2
    3b4a:	3328      	adds	r3, #40	; 0x28
    3b4c:	440b      	add	r3, r1
    3b4e:	3304      	adds	r3, #4
    3b50:	9300      	str	r3, [sp, #0]
    3b52:	e009      	b.n	3b68 <getSoscConfig+0x58>
    3b54:	9b01      	ldr	r3, [sp, #4]
    3b56:	3301      	adds	r3, #1
    3b58:	9301      	str	r3, [sp, #4]
    3b5a:	4b0f      	ldr	r3, [pc, #60]	; (3b98 <getSoscConfig+0x88>)
    3b5c:	681b      	ldr	r3, [r3, #0]
    3b5e:	7a5b      	ldrb	r3, [r3, #9]
    3b60:	461a      	mov	r2, r3
    3b62:	9b01      	ldr	r3, [sp, #4]
    3b64:	4293      	cmp	r3, r2
    3b66:	d3dd      	bcc.n	3b24 <getSoscConfig+0x14>
    3b68:	9b00      	ldr	r3, [sp, #0]
    3b6a:	2b00      	cmp	r3, #0
    3b6c:	d110      	bne.n	3b90 <getSoscConfig+0x80>
    3b6e:	4b0b      	ldr	r3, [pc, #44]	; (3b9c <getSoscConfig+0x8c>)
    3b70:	9300      	str	r3, [sp, #0]
    3b72:	4b0a      	ldr	r3, [pc, #40]	; (3b9c <getSoscConfig+0x8c>)
    3b74:	2208      	movs	r2, #8
    3b76:	601a      	str	r2, [r3, #0]
    3b78:	4b09      	ldr	r3, [pc, #36]	; (3ba0 <getSoscConfig+0x90>)
    3b7a:	f8d3 3100 	ldr.w	r3, [r3, #256]	; 0x100
    3b7e:	b29b      	uxth	r3, r3
    3b80:	f003 0301 	and.w	r3, r3, #1
    3b84:	b29a      	uxth	r2, r3
    3b86:	4b05      	ldr	r3, [pc, #20]	; (3b9c <getSoscConfig+0x8c>)
    3b88:	811a      	strh	r2, [r3, #8]
    3b8a:	4b04      	ldr	r3, [pc, #16]	; (3b9c <getSoscConfig+0x8c>)
    3b8c:	4a05      	ldr	r2, [pc, #20]	; (3ba4 <getSoscConfig+0x94>)
    3b8e:	605a      	str	r2, [r3, #4]
    3b90:	9b00      	ldr	r3, [sp, #0]
    3b92:	4618      	mov	r0, r3
    3b94:	b002      	add	sp, #8
    3b96:	4770      	bx	lr
    3b98:	1fff8ba8 	.word	0x1fff8ba8
    3b9c:	1fff8c20 	.word	0x1fff8c20
    3ba0:	40064000 	.word	0x40064000
    3ba4:	02625a00 	.word	0x02625a00

00003ba8 <getSpllConfig>:
    3ba8:	b082      	sub	sp, #8
    3baa:	2300      	movs	r3, #0
    3bac:	9300      	str	r3, [sp, #0]
    3bae:	4b28      	ldr	r3, [pc, #160]	; (3c50 <getSpllConfig+0xa8>)
    3bb0:	681b      	ldr	r3, [r3, #0]
    3bb2:	2b00      	cmp	r3, #0
    3bb4:	d023      	beq.n	3bfe <getSpllConfig+0x56>
    3bb6:	2300      	movs	r3, #0
    3bb8:	9301      	str	r3, [sp, #4]
    3bba:	e019      	b.n	3bf0 <getSpllConfig+0x48>
    3bbc:	4b24      	ldr	r3, [pc, #144]	; (3c50 <getSpllConfig+0xa8>)
    3bbe:	6819      	ldr	r1, [r3, #0]
    3bc0:	9a01      	ldr	r2, [sp, #4]
    3bc2:	4613      	mov	r3, r2
    3bc4:	009b      	lsls	r3, r3, #2
    3bc6:	4413      	add	r3, r2
    3bc8:	00db      	lsls	r3, r3, #3
    3bca:	440b      	add	r3, r1
    3bcc:	3340      	adds	r3, #64	; 0x40
    3bce:	681b      	ldr	r3, [r3, #0]
    3bd0:	2b09      	cmp	r3, #9
    3bd2:	d10a      	bne.n	3bea <getSpllConfig+0x42>
    3bd4:	4b1e      	ldr	r3, [pc, #120]	; (3c50 <getSpllConfig+0xa8>)
    3bd6:	6819      	ldr	r1, [r3, #0]
    3bd8:	9a01      	ldr	r2, [sp, #4]
    3bda:	4613      	mov	r3, r2
    3bdc:	009b      	lsls	r3, r3, #2
    3bde:	4413      	add	r3, r2
    3be0:	00db      	lsls	r3, r3, #3
    3be2:	3340      	adds	r3, #64	; 0x40
    3be4:	440b      	add	r3, r1
    3be6:	9300      	str	r3, [sp, #0]
    3be8:	e009      	b.n	3bfe <getSpllConfig+0x56>
    3bea:	9b01      	ldr	r3, [sp, #4]
    3bec:	3301      	adds	r3, #1
    3bee:	9301      	str	r3, [sp, #4]
    3bf0:	4b17      	ldr	r3, [pc, #92]	; (3c50 <getSpllConfig+0xa8>)
    3bf2:	681b      	ldr	r3, [r3, #0]
    3bf4:	7a9b      	ldrb	r3, [r3, #10]
    3bf6:	461a      	mov	r2, r3
    3bf8:	9b01      	ldr	r3, [sp, #4]
    3bfa:	4293      	cmp	r3, r2
    3bfc:	d3de      	bcc.n	3bbc <getSpllConfig+0x14>
    3bfe:	9b00      	ldr	r3, [sp, #0]
    3c00:	2b00      	cmp	r3, #0
    3c02:	d121      	bne.n	3c48 <getSpllConfig+0xa0>
    3c04:	4b13      	ldr	r3, [pc, #76]	; (3c54 <getSpllConfig+0xac>)
    3c06:	9300      	str	r3, [sp, #0]
    3c08:	4b12      	ldr	r3, [pc, #72]	; (3c54 <getSpllConfig+0xac>)
    3c0a:	2209      	movs	r2, #9
    3c0c:	601a      	str	r2, [r3, #0]
    3c0e:	4b12      	ldr	r3, [pc, #72]	; (3c58 <getSpllConfig+0xb0>)
    3c10:	f8d3 3600 	ldr.w	r3, [r3, #1536]	; 0x600
    3c14:	b29b      	uxth	r3, r3
    3c16:	f003 0301 	and.w	r3, r3, #1
    3c1a:	b29a      	uxth	r2, r3
    3c1c:	4b0d      	ldr	r3, [pc, #52]	; (3c54 <getSpllConfig+0xac>)
    3c1e:	809a      	strh	r2, [r3, #4]
    3c20:	4b0d      	ldr	r3, [pc, #52]	; (3c58 <getSpllConfig+0xb0>)
    3c22:	f8d3 3608 	ldr.w	r3, [r3, #1544]	; 0x608
    3c26:	0a1b      	lsrs	r3, r3, #8
    3c28:	b2db      	uxtb	r3, r3
    3c2a:	f003 0307 	and.w	r3, r3, #7
    3c2e:	b2da      	uxtb	r2, r3
    3c30:	4b08      	ldr	r3, [pc, #32]	; (3c54 <getSpllConfig+0xac>)
    3c32:	735a      	strb	r2, [r3, #13]
    3c34:	4b08      	ldr	r3, [pc, #32]	; (3c58 <getSpllConfig+0xb0>)
    3c36:	f8d3 3608 	ldr.w	r3, [r3, #1544]	; 0x608
    3c3a:	0c1b      	lsrs	r3, r3, #16
    3c3c:	b2db      	uxtb	r3, r3
    3c3e:	f003 031f 	and.w	r3, r3, #31
    3c42:	b2da      	uxtb	r2, r3
    3c44:	4b03      	ldr	r3, [pc, #12]	; (3c54 <getSpllConfig+0xac>)
    3c46:	751a      	strb	r2, [r3, #20]
    3c48:	9b00      	ldr	r3, [sp, #0]
    3c4a:	4618      	mov	r0, r3
    3c4c:	b002      	add	sp, #8
    3c4e:	4770      	bx	lr
    3c50:	1fff8ba8 	.word	0x1fff8ba8
    3c54:	1fff8c34 	.word	0x1fff8c34
    3c58:	40064000 	.word	0x40064000

00003c5c <getSelectorConfig>:
    3c5c:	b086      	sub	sp, #24
    3c5e:	9001      	str	r0, [sp, #4]
    3c60:	2300      	movs	r3, #0
    3c62:	9305      	str	r3, [sp, #20]
    3c64:	9b01      	ldr	r3, [sp, #4]
    3c66:	2b1b      	cmp	r3, #27
    3c68:	d00f      	beq.n	3c8a <getSelectorConfig+0x2e>
    3c6a:	9b01      	ldr	r3, [sp, #4]
    3c6c:	2b1b      	cmp	r3, #27
    3c6e:	d80f      	bhi.n	3c90 <getSelectorConfig+0x34>
    3c70:	9b01      	ldr	r3, [sp, #4]
    3c72:	2b19      	cmp	r3, #25
    3c74:	d003      	beq.n	3c7e <getSelectorConfig+0x22>
    3c76:	9b01      	ldr	r3, [sp, #4]
    3c78:	2b1a      	cmp	r3, #26
    3c7a:	d003      	beq.n	3c84 <getSelectorConfig+0x28>
    3c7c:	e008      	b.n	3c90 <getSelectorConfig+0x34>
    3c7e:	2300      	movs	r3, #0
    3c80:	9304      	str	r3, [sp, #16]
    3c82:	e008      	b.n	3c96 <getSelectorConfig+0x3a>
    3c84:	2301      	movs	r3, #1
    3c86:	9304      	str	r3, [sp, #16]
    3c88:	e005      	b.n	3c96 <getSelectorConfig+0x3a>
    3c8a:	2302      	movs	r3, #2
    3c8c:	9304      	str	r3, [sp, #16]
    3c8e:	e002      	b.n	3c96 <getSelectorConfig+0x3a>
    3c90:	2300      	movs	r3, #0
    3c92:	9304      	str	r3, [sp, #16]
    3c94:	bf00      	nop
    3c96:	4b36      	ldr	r3, [pc, #216]	; (3d70 <getSelectorConfig+0x114>)
    3c98:	681b      	ldr	r3, [r3, #0]
    3c9a:	2b00      	cmp	r3, #0
    3c9c:	d01d      	beq.n	3cda <getSelectorConfig+0x7e>
    3c9e:	2300      	movs	r3, #0
    3ca0:	9303      	str	r3, [sp, #12]
    3ca2:	e013      	b.n	3ccc <getSelectorConfig+0x70>
    3ca4:	4b32      	ldr	r3, [pc, #200]	; (3d70 <getSelectorConfig+0x114>)
    3ca6:	681b      	ldr	r3, [r3, #0]
    3ca8:	9a03      	ldr	r2, [sp, #12]
    3caa:	320d      	adds	r2, #13
    3cac:	f853 3032 	ldr.w	r3, [r3, r2, lsl #3]
    3cb0:	9a01      	ldr	r2, [sp, #4]
    3cb2:	429a      	cmp	r2, r3
    3cb4:	d107      	bne.n	3cc6 <getSelectorConfig+0x6a>
    3cb6:	4b2e      	ldr	r3, [pc, #184]	; (3d70 <getSelectorConfig+0x114>)
    3cb8:	681a      	ldr	r2, [r3, #0]
    3cba:	9b03      	ldr	r3, [sp, #12]
    3cbc:	330d      	adds	r3, #13
    3cbe:	00db      	lsls	r3, r3, #3
    3cc0:	4413      	add	r3, r2
    3cc2:	9305      	str	r3, [sp, #20]
    3cc4:	e009      	b.n	3cda <getSelectorConfig+0x7e>
    3cc6:	9b03      	ldr	r3, [sp, #12]
    3cc8:	3301      	adds	r3, #1
    3cca:	9303      	str	r3, [sp, #12]
    3ccc:	4b28      	ldr	r3, [pc, #160]	; (3d70 <getSelectorConfig+0x114>)
    3cce:	681b      	ldr	r3, [r3, #0]
    3cd0:	7adb      	ldrb	r3, [r3, #11]
    3cd2:	461a      	mov	r2, r3
    3cd4:	9b03      	ldr	r3, [sp, #12]
    3cd6:	4293      	cmp	r3, r2
    3cd8:	d3e4      	bcc.n	3ca4 <getSelectorConfig+0x48>
    3cda:	9b05      	ldr	r3, [sp, #20]
    3cdc:	2b00      	cmp	r3, #0
    3cde:	d140      	bne.n	3d62 <getSelectorConfig+0x106>
    3ce0:	9b04      	ldr	r3, [sp, #16]
    3ce2:	00db      	lsls	r3, r3, #3
    3ce4:	4a23      	ldr	r2, [pc, #140]	; (3d74 <getSelectorConfig+0x118>)
    3ce6:	4413      	add	r3, r2
    3ce8:	9305      	str	r3, [sp, #20]
    3cea:	4922      	ldr	r1, [pc, #136]	; (3d74 <getSelectorConfig+0x118>)
    3cec:	9b04      	ldr	r3, [sp, #16]
    3cee:	9a01      	ldr	r2, [sp, #4]
    3cf0:	f841 2033 	str.w	r2, [r1, r3, lsl #3]
    3cf4:	9b01      	ldr	r3, [sp, #4]
    3cf6:	2b1b      	cmp	r3, #27
    3cf8:	d025      	beq.n	3d46 <getSelectorConfig+0xea>
    3cfa:	9b01      	ldr	r3, [sp, #4]
    3cfc:	2b1b      	cmp	r3, #27
    3cfe:	d832      	bhi.n	3d66 <getSelectorConfig+0x10a>
    3d00:	9b01      	ldr	r3, [sp, #4]
    3d02:	2b19      	cmp	r3, #25
    3d04:	d003      	beq.n	3d0e <getSelectorConfig+0xb2>
    3d06:	9b01      	ldr	r3, [sp, #4]
    3d08:	2b1a      	cmp	r3, #26
    3d0a:	d00e      	beq.n	3d2a <getSelectorConfig+0xce>
    3d0c:	e02b      	b.n	3d66 <getSelectorConfig+0x10a>
    3d0e:	4b1a      	ldr	r3, [pc, #104]	; (3d78 <getSelectorConfig+0x11c>)
    3d10:	695b      	ldr	r3, [r3, #20]
    3d12:	0e1b      	lsrs	r3, r3, #24
    3d14:	f003 030f 	and.w	r3, r3, #15
    3d18:	4a18      	ldr	r2, [pc, #96]	; (3d7c <getSelectorConfig+0x120>)
    3d1a:	f852 2023 	ldr.w	r2, [r2, r3, lsl #2]
    3d1e:	4915      	ldr	r1, [pc, #84]	; (3d74 <getSelectorConfig+0x118>)
    3d20:	9b04      	ldr	r3, [sp, #16]
    3d22:	00db      	lsls	r3, r3, #3
    3d24:	440b      	add	r3, r1
    3d26:	605a      	str	r2, [r3, #4]
    3d28:	e01e      	b.n	3d68 <getSelectorConfig+0x10c>
    3d2a:	4b13      	ldr	r3, [pc, #76]	; (3d78 <getSelectorConfig+0x11c>)
    3d2c:	699b      	ldr	r3, [r3, #24]
    3d2e:	0e1b      	lsrs	r3, r3, #24
    3d30:	f003 030f 	and.w	r3, r3, #15
    3d34:	4a11      	ldr	r2, [pc, #68]	; (3d7c <getSelectorConfig+0x120>)
    3d36:	f852 2023 	ldr.w	r2, [r2, r3, lsl #2]
    3d3a:	490e      	ldr	r1, [pc, #56]	; (3d74 <getSelectorConfig+0x118>)
    3d3c:	9b04      	ldr	r3, [sp, #16]
    3d3e:	00db      	lsls	r3, r3, #3
    3d40:	440b      	add	r3, r1
    3d42:	605a      	str	r2, [r3, #4]
    3d44:	e010      	b.n	3d68 <getSelectorConfig+0x10c>
    3d46:	4b0c      	ldr	r3, [pc, #48]	; (3d78 <getSelectorConfig+0x11c>)
    3d48:	69db      	ldr	r3, [r3, #28]
    3d4a:	0e1b      	lsrs	r3, r3, #24
    3d4c:	f003 030f 	and.w	r3, r3, #15
    3d50:	4a0a      	ldr	r2, [pc, #40]	; (3d7c <getSelectorConfig+0x120>)
    3d52:	f852 2023 	ldr.w	r2, [r2, r3, lsl #2]
    3d56:	4907      	ldr	r1, [pc, #28]	; (3d74 <getSelectorConfig+0x118>)
    3d58:	9b04      	ldr	r3, [sp, #16]
    3d5a:	00db      	lsls	r3, r3, #3
    3d5c:	440b      	add	r3, r1
    3d5e:	605a      	str	r2, [r3, #4]
    3d60:	e002      	b.n	3d68 <getSelectorConfig+0x10c>
    3d62:	bf00      	nop
    3d64:	e000      	b.n	3d68 <getSelectorConfig+0x10c>
    3d66:	bf00      	nop
    3d68:	9b05      	ldr	r3, [sp, #20]
    3d6a:	4618      	mov	r0, r3
    3d6c:	b006      	add	sp, #24
    3d6e:	4770      	bx	lr
    3d70:	1fff8ba8 	.word	0x1fff8ba8
    3d74:	1fff8c5c 	.word	0x1fff8c5c
    3d78:	40064000 	.word	0x40064000
    3d7c:	0000ba84 	.word	0x0000ba84

00003d80 <getCoreDividerConfig>:
    3d80:	b086      	sub	sp, #24
    3d82:	9001      	str	r0, [sp, #4]
    3d84:	2300      	movs	r3, #0
    3d86:	9305      	str	r3, [sp, #20]
    3d88:	2300      	movs	r3, #0
    3d8a:	9304      	str	r3, [sp, #16]
    3d8c:	9b01      	ldr	r3, [sp, #4]
    3d8e:	2b1f      	cmp	r3, #31
    3d90:	d00f      	beq.n	3db2 <getCoreDividerConfig+0x32>
    3d92:	9b01      	ldr	r3, [sp, #4]
    3d94:	2b1f      	cmp	r3, #31
    3d96:	d80f      	bhi.n	3db8 <getCoreDividerConfig+0x38>
    3d98:	9b01      	ldr	r3, [sp, #4]
    3d9a:	2b1d      	cmp	r3, #29
    3d9c:	d003      	beq.n	3da6 <getCoreDividerConfig+0x26>
    3d9e:	9b01      	ldr	r3, [sp, #4]
    3da0:	2b1e      	cmp	r3, #30
    3da2:	d003      	beq.n	3dac <getCoreDividerConfig+0x2c>
    3da4:	e008      	b.n	3db8 <getCoreDividerConfig+0x38>
    3da6:	2300      	movs	r3, #0
    3da8:	9304      	str	r3, [sp, #16]
    3daa:	e006      	b.n	3dba <getCoreDividerConfig+0x3a>
    3dac:	2301      	movs	r3, #1
    3dae:	9304      	str	r3, [sp, #16]
    3db0:	e003      	b.n	3dba <getCoreDividerConfig+0x3a>
    3db2:	2302      	movs	r3, #2
    3db4:	9304      	str	r3, [sp, #16]
    3db6:	e000      	b.n	3dba <getCoreDividerConfig+0x3a>
    3db8:	bf00      	nop
    3dba:	4b41      	ldr	r3, [pc, #260]	; (3ec0 <getCoreDividerConfig+0x140>)
    3dbc:	681b      	ldr	r3, [r3, #0]
    3dbe:	2b00      	cmp	r3, #0
    3dc0:	d026      	beq.n	3e10 <getCoreDividerConfig+0x90>
    3dc2:	2300      	movs	r3, #0
    3dc4:	9303      	str	r3, [sp, #12]
    3dc6:	e01c      	b.n	3e02 <getCoreDividerConfig+0x82>
    3dc8:	4b3d      	ldr	r3, [pc, #244]	; (3ec0 <getCoreDividerConfig+0x140>)
    3dca:	6819      	ldr	r1, [r3, #0]
    3dcc:	9a03      	ldr	r2, [sp, #12]
    3dce:	4613      	mov	r3, r2
    3dd0:	005b      	lsls	r3, r3, #1
    3dd2:	4413      	add	r3, r2
    3dd4:	009b      	lsls	r3, r3, #2
    3dd6:	440b      	add	r3, r1
    3dd8:	f503 73a4 	add.w	r3, r3, #328	; 0x148
    3ddc:	681b      	ldr	r3, [r3, #0]
    3dde:	9a01      	ldr	r2, [sp, #4]
    3de0:	429a      	cmp	r2, r3
    3de2:	d10b      	bne.n	3dfc <getCoreDividerConfig+0x7c>
    3de4:	4b36      	ldr	r3, [pc, #216]	; (3ec0 <getCoreDividerConfig+0x140>)
    3de6:	6819      	ldr	r1, [r3, #0]
    3de8:	9a03      	ldr	r2, [sp, #12]
    3dea:	4613      	mov	r3, r2
    3dec:	005b      	lsls	r3, r3, #1
    3dee:	4413      	add	r3, r2
    3df0:	009b      	lsls	r3, r3, #2
    3df2:	f503 73a4 	add.w	r3, r3, #328	; 0x148
    3df6:	440b      	add	r3, r1
    3df8:	9305      	str	r3, [sp, #20]
    3dfa:	e009      	b.n	3e10 <getCoreDividerConfig+0x90>
    3dfc:	9b03      	ldr	r3, [sp, #12]
    3dfe:	3301      	adds	r3, #1
    3e00:	9303      	str	r3, [sp, #12]
    3e02:	4b2f      	ldr	r3, [pc, #188]	; (3ec0 <getCoreDividerConfig+0x140>)
    3e04:	681b      	ldr	r3, [r3, #0]
    3e06:	7b1b      	ldrb	r3, [r3, #12]
    3e08:	461a      	mov	r2, r3
    3e0a:	9b03      	ldr	r3, [sp, #12]
    3e0c:	4293      	cmp	r3, r2
    3e0e:	d3db      	bcc.n	3dc8 <getCoreDividerConfig+0x48>
    3e10:	9b05      	ldr	r3, [sp, #20]
    3e12:	2b00      	cmp	r3, #0
    3e14:	d14d      	bne.n	3eb2 <getCoreDividerConfig+0x132>
    3e16:	9a04      	ldr	r2, [sp, #16]
    3e18:	4613      	mov	r3, r2
    3e1a:	005b      	lsls	r3, r3, #1
    3e1c:	4413      	add	r3, r2
    3e1e:	009b      	lsls	r3, r3, #2
    3e20:	4a28      	ldr	r2, [pc, #160]	; (3ec4 <getCoreDividerConfig+0x144>)
    3e22:	4413      	add	r3, r2
    3e24:	9305      	str	r3, [sp, #20]
    3e26:	4927      	ldr	r1, [pc, #156]	; (3ec4 <getCoreDividerConfig+0x144>)
    3e28:	9a04      	ldr	r2, [sp, #16]
    3e2a:	4613      	mov	r3, r2
    3e2c:	005b      	lsls	r3, r3, #1
    3e2e:	4413      	add	r3, r2
    3e30:	009b      	lsls	r3, r3, #2
    3e32:	440b      	add	r3, r1
    3e34:	9a01      	ldr	r2, [sp, #4]
    3e36:	601a      	str	r2, [r3, #0]
    3e38:	9b01      	ldr	r3, [sp, #4]
    3e3a:	2b1f      	cmp	r3, #31
    3e3c:	d029      	beq.n	3e92 <getCoreDividerConfig+0x112>
    3e3e:	9b01      	ldr	r3, [sp, #4]
    3e40:	2b1f      	cmp	r3, #31
    3e42:	d838      	bhi.n	3eb6 <getCoreDividerConfig+0x136>
    3e44:	9b01      	ldr	r3, [sp, #4]
    3e46:	2b1d      	cmp	r3, #29
    3e48:	d003      	beq.n	3e52 <getCoreDividerConfig+0xd2>
    3e4a:	9b01      	ldr	r3, [sp, #4]
    3e4c:	2b1e      	cmp	r3, #30
    3e4e:	d010      	beq.n	3e72 <getCoreDividerConfig+0xf2>
    3e50:	e031      	b.n	3eb6 <getCoreDividerConfig+0x136>
    3e52:	4b1d      	ldr	r3, [pc, #116]	; (3ec8 <getCoreDividerConfig+0x148>)
    3e54:	695b      	ldr	r3, [r3, #20]
    3e56:	0c1b      	lsrs	r3, r3, #16
    3e58:	f003 030f 	and.w	r3, r3, #15
    3e5c:	1c59      	adds	r1, r3, #1
    3e5e:	4819      	ldr	r0, [pc, #100]	; (3ec4 <getCoreDividerConfig+0x144>)
    3e60:	9a04      	ldr	r2, [sp, #16]
    3e62:	4613      	mov	r3, r2
    3e64:	005b      	lsls	r3, r3, #1
    3e66:	4413      	add	r3, r2
    3e68:	009b      	lsls	r3, r3, #2
    3e6a:	4403      	add	r3, r0
    3e6c:	3304      	adds	r3, #4
    3e6e:	6019      	str	r1, [r3, #0]
    3e70:	e022      	b.n	3eb8 <getCoreDividerConfig+0x138>
    3e72:	4b15      	ldr	r3, [pc, #84]	; (3ec8 <getCoreDividerConfig+0x148>)
    3e74:	699b      	ldr	r3, [r3, #24]
    3e76:	0c1b      	lsrs	r3, r3, #16
    3e78:	f003 030f 	and.w	r3, r3, #15
    3e7c:	1c59      	adds	r1, r3, #1
    3e7e:	4811      	ldr	r0, [pc, #68]	; (3ec4 <getCoreDividerConfig+0x144>)
    3e80:	9a04      	ldr	r2, [sp, #16]
    3e82:	4613      	mov	r3, r2
    3e84:	005b      	lsls	r3, r3, #1
    3e86:	4413      	add	r3, r2
    3e88:	009b      	lsls	r3, r3, #2
    3e8a:	4403      	add	r3, r0
    3e8c:	3304      	adds	r3, #4
    3e8e:	6019      	str	r1, [r3, #0]
    3e90:	e012      	b.n	3eb8 <getCoreDividerConfig+0x138>
    3e92:	4b0d      	ldr	r3, [pc, #52]	; (3ec8 <getCoreDividerConfig+0x148>)
    3e94:	69db      	ldr	r3, [r3, #28]
    3e96:	0c1b      	lsrs	r3, r3, #16
    3e98:	f003 030f 	and.w	r3, r3, #15
    3e9c:	1c59      	adds	r1, r3, #1
    3e9e:	4809      	ldr	r0, [pc, #36]	; (3ec4 <getCoreDividerConfig+0x144>)
    3ea0:	9a04      	ldr	r2, [sp, #16]
    3ea2:	4613      	mov	r3, r2
    3ea4:	005b      	lsls	r3, r3, #1
    3ea6:	4413      	add	r3, r2
    3ea8:	009b      	lsls	r3, r3, #2
    3eaa:	4403      	add	r3, r0
    3eac:	3304      	adds	r3, #4
    3eae:	6019      	str	r1, [r3, #0]
    3eb0:	e002      	b.n	3eb8 <getCoreDividerConfig+0x138>
    3eb2:	bf00      	nop
    3eb4:	e000      	b.n	3eb8 <getCoreDividerConfig+0x138>
    3eb6:	bf00      	nop
    3eb8:	9b05      	ldr	r3, [sp, #20]
    3eba:	4618      	mov	r0, r3
    3ebc:	b006      	add	sp, #24
    3ebe:	4770      	bx	lr
    3ec0:	1fff8ba8 	.word	0x1fff8ba8
    3ec4:	1fff8c74 	.word	0x1fff8c74
    3ec8:	40064000 	.word	0x40064000

00003ecc <getBusDividerConfig>:
    3ecc:	b086      	sub	sp, #24
    3ece:	9001      	str	r0, [sp, #4]
    3ed0:	2300      	movs	r3, #0
    3ed2:	9305      	str	r3, [sp, #20]
    3ed4:	2300      	movs	r3, #0
    3ed6:	9304      	str	r3, [sp, #16]
    3ed8:	9b01      	ldr	r3, [sp, #4]
    3eda:	2b23      	cmp	r3, #35	; 0x23
    3edc:	d00f      	beq.n	3efe <getBusDividerConfig+0x32>
    3ede:	9b01      	ldr	r3, [sp, #4]
    3ee0:	2b23      	cmp	r3, #35	; 0x23
    3ee2:	d80f      	bhi.n	3f04 <getBusDividerConfig+0x38>
    3ee4:	9b01      	ldr	r3, [sp, #4]
    3ee6:	2b21      	cmp	r3, #33	; 0x21
    3ee8:	d003      	beq.n	3ef2 <getBusDividerConfig+0x26>
    3eea:	9b01      	ldr	r3, [sp, #4]
    3eec:	2b22      	cmp	r3, #34	; 0x22
    3eee:	d003      	beq.n	3ef8 <getBusDividerConfig+0x2c>
    3ef0:	e008      	b.n	3f04 <getBusDividerConfig+0x38>
    3ef2:	2300      	movs	r3, #0
    3ef4:	9304      	str	r3, [sp, #16]
    3ef6:	e006      	b.n	3f06 <getBusDividerConfig+0x3a>
    3ef8:	2301      	movs	r3, #1
    3efa:	9304      	str	r3, [sp, #16]
    3efc:	e003      	b.n	3f06 <getBusDividerConfig+0x3a>
    3efe:	2302      	movs	r3, #2
    3f00:	9304      	str	r3, [sp, #16]
    3f02:	e000      	b.n	3f06 <getBusDividerConfig+0x3a>
    3f04:	bf00      	nop
    3f06:	4b41      	ldr	r3, [pc, #260]	; (400c <getBusDividerConfig+0x140>)
    3f08:	681b      	ldr	r3, [r3, #0]
    3f0a:	2b00      	cmp	r3, #0
    3f0c:	d026      	beq.n	3f5c <getBusDividerConfig+0x90>
    3f0e:	2300      	movs	r3, #0
    3f10:	9303      	str	r3, [sp, #12]
    3f12:	e01c      	b.n	3f4e <getBusDividerConfig+0x82>
    3f14:	4b3d      	ldr	r3, [pc, #244]	; (400c <getBusDividerConfig+0x140>)
    3f16:	6819      	ldr	r1, [r3, #0]
    3f18:	9a03      	ldr	r2, [sp, #12]
    3f1a:	4613      	mov	r3, r2
    3f1c:	005b      	lsls	r3, r3, #1
    3f1e:	4413      	add	r3, r2
    3f20:	009b      	lsls	r3, r3, #2
    3f22:	440b      	add	r3, r1
    3f24:	f503 73a4 	add.w	r3, r3, #328	; 0x148
    3f28:	681b      	ldr	r3, [r3, #0]
    3f2a:	9a01      	ldr	r2, [sp, #4]
    3f2c:	429a      	cmp	r2, r3
    3f2e:	d10b      	bne.n	3f48 <getBusDividerConfig+0x7c>
    3f30:	4b36      	ldr	r3, [pc, #216]	; (400c <getBusDividerConfig+0x140>)
    3f32:	6819      	ldr	r1, [r3, #0]
    3f34:	9a03      	ldr	r2, [sp, #12]
    3f36:	4613      	mov	r3, r2
    3f38:	005b      	lsls	r3, r3, #1
    3f3a:	4413      	add	r3, r2
    3f3c:	009b      	lsls	r3, r3, #2
    3f3e:	f503 73a4 	add.w	r3, r3, #328	; 0x148
    3f42:	440b      	add	r3, r1
    3f44:	9305      	str	r3, [sp, #20]
    3f46:	e009      	b.n	3f5c <getBusDividerConfig+0x90>
    3f48:	9b03      	ldr	r3, [sp, #12]
    3f4a:	3301      	adds	r3, #1
    3f4c:	9303      	str	r3, [sp, #12]
    3f4e:	4b2f      	ldr	r3, [pc, #188]	; (400c <getBusDividerConfig+0x140>)
    3f50:	681b      	ldr	r3, [r3, #0]
    3f52:	7b1b      	ldrb	r3, [r3, #12]
    3f54:	461a      	mov	r2, r3
    3f56:	9b03      	ldr	r3, [sp, #12]
    3f58:	4293      	cmp	r3, r2
    3f5a:	d3db      	bcc.n	3f14 <getBusDividerConfig+0x48>
    3f5c:	9b05      	ldr	r3, [sp, #20]
    3f5e:	2b00      	cmp	r3, #0
    3f60:	d14d      	bne.n	3ffe <getBusDividerConfig+0x132>
    3f62:	9a04      	ldr	r2, [sp, #16]
    3f64:	4613      	mov	r3, r2
    3f66:	005b      	lsls	r3, r3, #1
    3f68:	4413      	add	r3, r2
    3f6a:	009b      	lsls	r3, r3, #2
    3f6c:	4a28      	ldr	r2, [pc, #160]	; (4010 <getBusDividerConfig+0x144>)
    3f6e:	4413      	add	r3, r2
    3f70:	9305      	str	r3, [sp, #20]
    3f72:	4927      	ldr	r1, [pc, #156]	; (4010 <getBusDividerConfig+0x144>)
    3f74:	9a04      	ldr	r2, [sp, #16]
    3f76:	4613      	mov	r3, r2
    3f78:	005b      	lsls	r3, r3, #1
    3f7a:	4413      	add	r3, r2
    3f7c:	009b      	lsls	r3, r3, #2
    3f7e:	440b      	add	r3, r1
    3f80:	9a01      	ldr	r2, [sp, #4]
    3f82:	601a      	str	r2, [r3, #0]
    3f84:	9b01      	ldr	r3, [sp, #4]
    3f86:	2b23      	cmp	r3, #35	; 0x23
    3f88:	d029      	beq.n	3fde <getBusDividerConfig+0x112>
    3f8a:	9b01      	ldr	r3, [sp, #4]
    3f8c:	2b23      	cmp	r3, #35	; 0x23
    3f8e:	d838      	bhi.n	4002 <getBusDividerConfig+0x136>
    3f90:	9b01      	ldr	r3, [sp, #4]
    3f92:	2b21      	cmp	r3, #33	; 0x21
    3f94:	d003      	beq.n	3f9e <getBusDividerConfig+0xd2>
    3f96:	9b01      	ldr	r3, [sp, #4]
    3f98:	2b22      	cmp	r3, #34	; 0x22
    3f9a:	d010      	beq.n	3fbe <getBusDividerConfig+0xf2>
    3f9c:	e031      	b.n	4002 <getBusDividerConfig+0x136>
    3f9e:	4b1d      	ldr	r3, [pc, #116]	; (4014 <getBusDividerConfig+0x148>)
    3fa0:	695b      	ldr	r3, [r3, #20]
    3fa2:	091b      	lsrs	r3, r3, #4
    3fa4:	f003 030f 	and.w	r3, r3, #15
    3fa8:	1c59      	adds	r1, r3, #1
    3faa:	4819      	ldr	r0, [pc, #100]	; (4010 <getBusDividerConfig+0x144>)
    3fac:	9a04      	ldr	r2, [sp, #16]
    3fae:	4613      	mov	r3, r2
    3fb0:	005b      	lsls	r3, r3, #1
    3fb2:	4413      	add	r3, r2
    3fb4:	009b      	lsls	r3, r3, #2
    3fb6:	4403      	add	r3, r0
    3fb8:	3304      	adds	r3, #4
    3fba:	6019      	str	r1, [r3, #0]
    3fbc:	e022      	b.n	4004 <getBusDividerConfig+0x138>
    3fbe:	4b15      	ldr	r3, [pc, #84]	; (4014 <getBusDividerConfig+0x148>)
    3fc0:	699b      	ldr	r3, [r3, #24]
    3fc2:	091b      	lsrs	r3, r3, #4
    3fc4:	f003 030f 	and.w	r3, r3, #15
    3fc8:	1c59      	adds	r1, r3, #1
    3fca:	4811      	ldr	r0, [pc, #68]	; (4010 <getBusDividerConfig+0x144>)
    3fcc:	9a04      	ldr	r2, [sp, #16]
    3fce:	4613      	mov	r3, r2
    3fd0:	005b      	lsls	r3, r3, #1
    3fd2:	4413      	add	r3, r2
    3fd4:	009b      	lsls	r3, r3, #2
    3fd6:	4403      	add	r3, r0
    3fd8:	3304      	adds	r3, #4
    3fda:	6019      	str	r1, [r3, #0]
    3fdc:	e012      	b.n	4004 <getBusDividerConfig+0x138>
    3fde:	4b0d      	ldr	r3, [pc, #52]	; (4014 <getBusDividerConfig+0x148>)
    3fe0:	69db      	ldr	r3, [r3, #28]
    3fe2:	091b      	lsrs	r3, r3, #4
    3fe4:	f003 030f 	and.w	r3, r3, #15
    3fe8:	1c59      	adds	r1, r3, #1
    3fea:	4809      	ldr	r0, [pc, #36]	; (4010 <getBusDividerConfig+0x144>)
    3fec:	9a04      	ldr	r2, [sp, #16]
    3fee:	4613      	mov	r3, r2
    3ff0:	005b      	lsls	r3, r3, #1
    3ff2:	4413      	add	r3, r2
    3ff4:	009b      	lsls	r3, r3, #2
    3ff6:	4403      	add	r3, r0
    3ff8:	3304      	adds	r3, #4
    3ffa:	6019      	str	r1, [r3, #0]
    3ffc:	e002      	b.n	4004 <getBusDividerConfig+0x138>
    3ffe:	bf00      	nop
    4000:	e000      	b.n	4004 <getBusDividerConfig+0x138>
    4002:	bf00      	nop
    4004:	9b05      	ldr	r3, [sp, #20]
    4006:	4618      	mov	r0, r3
    4008:	b006      	add	sp, #24
    400a:	4770      	bx	lr
    400c:	1fff8ba8 	.word	0x1fff8ba8
    4010:	1fff8c98 	.word	0x1fff8c98
    4014:	40064000 	.word	0x40064000

00004018 <getSlowDividerConfig>:
    4018:	b086      	sub	sp, #24
    401a:	9001      	str	r0, [sp, #4]
    401c:	2300      	movs	r3, #0
    401e:	9305      	str	r3, [sp, #20]
    4020:	2300      	movs	r3, #0
    4022:	9304      	str	r3, [sp, #16]
    4024:	9b01      	ldr	r3, [sp, #4]
    4026:	2b27      	cmp	r3, #39	; 0x27
    4028:	d00f      	beq.n	404a <getSlowDividerConfig+0x32>
    402a:	9b01      	ldr	r3, [sp, #4]
    402c:	2b27      	cmp	r3, #39	; 0x27
    402e:	d80f      	bhi.n	4050 <getSlowDividerConfig+0x38>
    4030:	9b01      	ldr	r3, [sp, #4]
    4032:	2b25      	cmp	r3, #37	; 0x25
    4034:	d003      	beq.n	403e <getSlowDividerConfig+0x26>
    4036:	9b01      	ldr	r3, [sp, #4]
    4038:	2b26      	cmp	r3, #38	; 0x26
    403a:	d003      	beq.n	4044 <getSlowDividerConfig+0x2c>
    403c:	e008      	b.n	4050 <getSlowDividerConfig+0x38>
    403e:	2300      	movs	r3, #0
    4040:	9304      	str	r3, [sp, #16]
    4042:	e006      	b.n	4052 <getSlowDividerConfig+0x3a>
    4044:	2301      	movs	r3, #1
    4046:	9304      	str	r3, [sp, #16]
    4048:	e003      	b.n	4052 <getSlowDividerConfig+0x3a>
    404a:	2302      	movs	r3, #2
    404c:	9304      	str	r3, [sp, #16]
    404e:	e000      	b.n	4052 <getSlowDividerConfig+0x3a>
    4050:	bf00      	nop
    4052:	4b40      	ldr	r3, [pc, #256]	; (4154 <getSlowDividerConfig+0x13c>)
    4054:	681b      	ldr	r3, [r3, #0]
    4056:	2b00      	cmp	r3, #0
    4058:	d026      	beq.n	40a8 <getSlowDividerConfig+0x90>
    405a:	2300      	movs	r3, #0
    405c:	9303      	str	r3, [sp, #12]
    405e:	e01c      	b.n	409a <getSlowDividerConfig+0x82>
    4060:	4b3c      	ldr	r3, [pc, #240]	; (4154 <getSlowDividerConfig+0x13c>)
    4062:	6819      	ldr	r1, [r3, #0]
    4064:	9a03      	ldr	r2, [sp, #12]
    4066:	4613      	mov	r3, r2
    4068:	005b      	lsls	r3, r3, #1
    406a:	4413      	add	r3, r2
    406c:	009b      	lsls	r3, r3, #2
    406e:	440b      	add	r3, r1
    4070:	f503 73a4 	add.w	r3, r3, #328	; 0x148
    4074:	681b      	ldr	r3, [r3, #0]
    4076:	9a01      	ldr	r2, [sp, #4]
    4078:	429a      	cmp	r2, r3
    407a:	d10b      	bne.n	4094 <getSlowDividerConfig+0x7c>
    407c:	4b35      	ldr	r3, [pc, #212]	; (4154 <getSlowDividerConfig+0x13c>)
    407e:	6819      	ldr	r1, [r3, #0]
    4080:	9a03      	ldr	r2, [sp, #12]
    4082:	4613      	mov	r3, r2
    4084:	005b      	lsls	r3, r3, #1
    4086:	4413      	add	r3, r2
    4088:	009b      	lsls	r3, r3, #2
    408a:	f503 73a4 	add.w	r3, r3, #328	; 0x148
    408e:	440b      	add	r3, r1
    4090:	9305      	str	r3, [sp, #20]
    4092:	e009      	b.n	40a8 <getSlowDividerConfig+0x90>
    4094:	9b03      	ldr	r3, [sp, #12]
    4096:	3301      	adds	r3, #1
    4098:	9303      	str	r3, [sp, #12]
    409a:	4b2e      	ldr	r3, [pc, #184]	; (4154 <getSlowDividerConfig+0x13c>)
    409c:	681b      	ldr	r3, [r3, #0]
    409e:	7b1b      	ldrb	r3, [r3, #12]
    40a0:	461a      	mov	r2, r3
    40a2:	9b03      	ldr	r3, [sp, #12]
    40a4:	4293      	cmp	r3, r2
    40a6:	d3db      	bcc.n	4060 <getSlowDividerConfig+0x48>
    40a8:	9b05      	ldr	r3, [sp, #20]
    40aa:	2b00      	cmp	r3, #0
    40ac:	d14a      	bne.n	4144 <getSlowDividerConfig+0x12c>
    40ae:	9a04      	ldr	r2, [sp, #16]
    40b0:	4613      	mov	r3, r2
    40b2:	005b      	lsls	r3, r3, #1
    40b4:	4413      	add	r3, r2
    40b6:	009b      	lsls	r3, r3, #2
    40b8:	4a27      	ldr	r2, [pc, #156]	; (4158 <getSlowDividerConfig+0x140>)
    40ba:	4413      	add	r3, r2
    40bc:	9305      	str	r3, [sp, #20]
    40be:	4926      	ldr	r1, [pc, #152]	; (4158 <getSlowDividerConfig+0x140>)
    40c0:	9a04      	ldr	r2, [sp, #16]
    40c2:	4613      	mov	r3, r2
    40c4:	005b      	lsls	r3, r3, #1
    40c6:	4413      	add	r3, r2
    40c8:	009b      	lsls	r3, r3, #2
    40ca:	440b      	add	r3, r1
    40cc:	9a01      	ldr	r2, [sp, #4]
    40ce:	601a      	str	r2, [r3, #0]
    40d0:	9b01      	ldr	r3, [sp, #4]
    40d2:	2b27      	cmp	r3, #39	; 0x27
    40d4:	d027      	beq.n	4126 <getSlowDividerConfig+0x10e>
    40d6:	9b01      	ldr	r3, [sp, #4]
    40d8:	2b27      	cmp	r3, #39	; 0x27
    40da:	d835      	bhi.n	4148 <getSlowDividerConfig+0x130>
    40dc:	9b01      	ldr	r3, [sp, #4]
    40de:	2b25      	cmp	r3, #37	; 0x25
    40e0:	d003      	beq.n	40ea <getSlowDividerConfig+0xd2>
    40e2:	9b01      	ldr	r3, [sp, #4]
    40e4:	2b26      	cmp	r3, #38	; 0x26
    40e6:	d00f      	beq.n	4108 <getSlowDividerConfig+0xf0>
    40e8:	e02e      	b.n	4148 <getSlowDividerConfig+0x130>
    40ea:	4b1c      	ldr	r3, [pc, #112]	; (415c <getSlowDividerConfig+0x144>)
    40ec:	695b      	ldr	r3, [r3, #20]
    40ee:	f003 030f 	and.w	r3, r3, #15
    40f2:	1c59      	adds	r1, r3, #1
    40f4:	4818      	ldr	r0, [pc, #96]	; (4158 <getSlowDividerConfig+0x140>)
    40f6:	9a04      	ldr	r2, [sp, #16]
    40f8:	4613      	mov	r3, r2
    40fa:	005b      	lsls	r3, r3, #1
    40fc:	4413      	add	r3, r2
    40fe:	009b      	lsls	r3, r3, #2
    4100:	4403      	add	r3, r0
    4102:	3304      	adds	r3, #4
    4104:	6019      	str	r1, [r3, #0]
    4106:	e020      	b.n	414a <getSlowDividerConfig+0x132>
    4108:	4b14      	ldr	r3, [pc, #80]	; (415c <getSlowDividerConfig+0x144>)
    410a:	699b      	ldr	r3, [r3, #24]
    410c:	f003 030f 	and.w	r3, r3, #15
    4110:	1c59      	adds	r1, r3, #1
    4112:	4811      	ldr	r0, [pc, #68]	; (4158 <getSlowDividerConfig+0x140>)
    4114:	9a04      	ldr	r2, [sp, #16]
    4116:	4613      	mov	r3, r2
    4118:	005b      	lsls	r3, r3, #1
    411a:	4413      	add	r3, r2
    411c:	009b      	lsls	r3, r3, #2
    411e:	4403      	add	r3, r0
    4120:	3304      	adds	r3, #4
    4122:	6019      	str	r1, [r3, #0]
    4124:	e011      	b.n	414a <getSlowDividerConfig+0x132>
    4126:	4b0d      	ldr	r3, [pc, #52]	; (415c <getSlowDividerConfig+0x144>)
    4128:	69db      	ldr	r3, [r3, #28]
    412a:	f003 030f 	and.w	r3, r3, #15
    412e:	1c59      	adds	r1, r3, #1
    4130:	4809      	ldr	r0, [pc, #36]	; (4158 <getSlowDividerConfig+0x140>)
    4132:	9a04      	ldr	r2, [sp, #16]
    4134:	4613      	mov	r3, r2
    4136:	005b      	lsls	r3, r3, #1
    4138:	4413      	add	r3, r2
    413a:	009b      	lsls	r3, r3, #2
    413c:	4403      	add	r3, r0
    413e:	3304      	adds	r3, #4
    4140:	6019      	str	r1, [r3, #0]
    4142:	e002      	b.n	414a <getSlowDividerConfig+0x132>
    4144:	bf00      	nop
    4146:	e000      	b.n	414a <getSlowDividerConfig+0x132>
    4148:	bf00      	nop
    414a:	9b05      	ldr	r3, [sp, #20]
    414c:	4618      	mov	r0, r3
    414e:	b006      	add	sp, #24
    4150:	4770      	bx	lr
    4152:	bf00      	nop
    4154:	1fff8ba8 	.word	0x1fff8ba8
    4158:	1fff8cbc 	.word	0x1fff8cbc
    415c:	40064000 	.word	0x40064000

00004160 <Clock_Ip_ClockInitializeObjects>:
    4160:	b500      	push	{lr}
    4162:	b083      	sub	sp, #12
    4164:	9001      	str	r0, [sp, #4]
    4166:	4b64      	ldr	r3, [pc, #400]	; (42f8 <Clock_Ip_ClockInitializeObjects+0x198>)
    4168:	781b      	ldrb	r3, [r3, #0]
    416a:	f083 0301 	eor.w	r3, r3, #1
    416e:	b2db      	uxtb	r3, r3
    4170:	2b00      	cmp	r3, #0
    4172:	d05b      	beq.n	422c <Clock_Ip_ClockInitializeObjects+0xcc>
    4174:	4b60      	ldr	r3, [pc, #384]	; (42f8 <Clock_Ip_ClockInitializeObjects+0x198>)
    4176:	2201      	movs	r2, #1
    4178:	701a      	strb	r2, [r3, #0]
    417a:	4b60      	ldr	r3, [pc, #384]	; (42fc <Clock_Ip_ClockInitializeObjects+0x19c>)
    417c:	785b      	ldrb	r3, [r3, #1]
    417e:	461a      	mov	r2, r3
    4180:	4613      	mov	r3, r2
    4182:	009b      	lsls	r3, r3, #2
    4184:	4413      	add	r3, r2
    4186:	009b      	lsls	r3, r3, #2
    4188:	4a5d      	ldr	r2, [pc, #372]	; (4300 <Clock_Ip_ClockInitializeObjects+0x1a0>)
    418a:	4413      	add	r3, r2
    418c:	4a5d      	ldr	r2, [pc, #372]	; (4304 <Clock_Ip_ClockInitializeObjects+0x1a4>)
    418e:	6013      	str	r3, [r2, #0]
    4190:	4b5d      	ldr	r3, [pc, #372]	; (4308 <Clock_Ip_ClockInitializeObjects+0x1a8>)
    4192:	785b      	ldrb	r3, [r3, #1]
    4194:	461a      	mov	r2, r3
    4196:	4613      	mov	r3, r2
    4198:	009b      	lsls	r3, r3, #2
    419a:	4413      	add	r3, r2
    419c:	009b      	lsls	r3, r3, #2
    419e:	4a5b      	ldr	r2, [pc, #364]	; (430c <Clock_Ip_ClockInitializeObjects+0x1ac>)
    41a0:	4413      	add	r3, r2
    41a2:	4a5b      	ldr	r2, [pc, #364]	; (4310 <Clock_Ip_ClockInitializeObjects+0x1b0>)
    41a4:	6013      	str	r3, [r2, #0]
    41a6:	4b5b      	ldr	r3, [pc, #364]	; (4314 <Clock_Ip_ClockInitializeObjects+0x1b4>)
    41a8:	791b      	ldrb	r3, [r3, #4]
    41aa:	461a      	mov	r2, r3
    41ac:	4613      	mov	r3, r2
    41ae:	005b      	lsls	r3, r3, #1
    41b0:	4413      	add	r3, r2
    41b2:	009b      	lsls	r3, r3, #2
    41b4:	4a58      	ldr	r2, [pc, #352]	; (4318 <Clock_Ip_ClockInitializeObjects+0x1b8>)
    41b6:	4413      	add	r3, r2
    41b8:	4a58      	ldr	r2, [pc, #352]	; (431c <Clock_Ip_ClockInitializeObjects+0x1bc>)
    41ba:	6013      	str	r3, [r2, #0]
    41bc:	4b58      	ldr	r3, [pc, #352]	; (4320 <Clock_Ip_ClockInitializeObjects+0x1c0>)
    41be:	795b      	ldrb	r3, [r3, #5]
    41c0:	00db      	lsls	r3, r3, #3
    41c2:	4a58      	ldr	r2, [pc, #352]	; (4324 <Clock_Ip_ClockInitializeObjects+0x1c4>)
    41c4:	4413      	add	r3, r2
    41c6:	4a58      	ldr	r2, [pc, #352]	; (4328 <Clock_Ip_ClockInitializeObjects+0x1c8>)
    41c8:	6013      	str	r3, [r2, #0]
    41ca:	4b55      	ldr	r3, [pc, #340]	; (4320 <Clock_Ip_ClockInitializeObjects+0x1c0>)
    41cc:	79db      	ldrb	r3, [r3, #7]
    41ce:	00db      	lsls	r3, r3, #3
    41d0:	4a54      	ldr	r2, [pc, #336]	; (4324 <Clock_Ip_ClockInitializeObjects+0x1c4>)
    41d2:	4413      	add	r3, r2
    41d4:	4a55      	ldr	r2, [pc, #340]	; (432c <Clock_Ip_ClockInitializeObjects+0x1cc>)
    41d6:	6013      	str	r3, [r2, #0]
    41d8:	4b55      	ldr	r3, [pc, #340]	; (4330 <Clock_Ip_ClockInitializeObjects+0x1d0>)
    41da:	799b      	ldrb	r3, [r3, #6]
    41dc:	009b      	lsls	r3, r3, #2
    41de:	4a55      	ldr	r2, [pc, #340]	; (4334 <Clock_Ip_ClockInitializeObjects+0x1d4>)
    41e0:	4413      	add	r3, r2
    41e2:	4a55      	ldr	r2, [pc, #340]	; (4338 <Clock_Ip_ClockInitializeObjects+0x1d8>)
    41e4:	6013      	str	r3, [r2, #0]
    41e6:	4b52      	ldr	r3, [pc, #328]	; (4330 <Clock_Ip_ClockInitializeObjects+0x1d0>)
    41e8:	7a1b      	ldrb	r3, [r3, #8]
    41ea:	009b      	lsls	r3, r3, #2
    41ec:	4a51      	ldr	r2, [pc, #324]	; (4334 <Clock_Ip_ClockInitializeObjects+0x1d4>)
    41ee:	4413      	add	r3, r2
    41f0:	4a52      	ldr	r2, [pc, #328]	; (433c <Clock_Ip_ClockInitializeObjects+0x1dc>)
    41f2:	6013      	str	r3, [r2, #0]
    41f4:	4b4e      	ldr	r3, [pc, #312]	; (4330 <Clock_Ip_ClockInitializeObjects+0x1d0>)
    41f6:	7a5b      	ldrb	r3, [r3, #9]
    41f8:	009b      	lsls	r3, r3, #2
    41fa:	4a4e      	ldr	r2, [pc, #312]	; (4334 <Clock_Ip_ClockInitializeObjects+0x1d4>)
    41fc:	4413      	add	r3, r2
    41fe:	4a50      	ldr	r2, [pc, #320]	; (4340 <Clock_Ip_ClockInitializeObjects+0x1e0>)
    4200:	6013      	str	r3, [r2, #0]
    4202:	4b4b      	ldr	r3, [pc, #300]	; (4330 <Clock_Ip_ClockInitializeObjects+0x1d0>)
    4204:	7adb      	ldrb	r3, [r3, #11]
    4206:	009b      	lsls	r3, r3, #2
    4208:	4a4a      	ldr	r2, [pc, #296]	; (4334 <Clock_Ip_ClockInitializeObjects+0x1d4>)
    420a:	4413      	add	r3, r2
    420c:	4a4d      	ldr	r2, [pc, #308]	; (4344 <Clock_Ip_ClockInitializeObjects+0x1e4>)
    420e:	6013      	str	r3, [r2, #0]
    4210:	4b47      	ldr	r3, [pc, #284]	; (4330 <Clock_Ip_ClockInitializeObjects+0x1d0>)
    4212:	7b1b      	ldrb	r3, [r3, #12]
    4214:	009b      	lsls	r3, r3, #2
    4216:	4a47      	ldr	r2, [pc, #284]	; (4334 <Clock_Ip_ClockInitializeObjects+0x1d4>)
    4218:	4413      	add	r3, r2
    421a:	4a4b      	ldr	r2, [pc, #300]	; (4348 <Clock_Ip_ClockInitializeObjects+0x1e8>)
    421c:	6013      	str	r3, [r2, #0]
    421e:	4b44      	ldr	r3, [pc, #272]	; (4330 <Clock_Ip_ClockInitializeObjects+0x1d0>)
    4220:	7b9b      	ldrb	r3, [r3, #14]
    4222:	009b      	lsls	r3, r3, #2
    4224:	4a43      	ldr	r2, [pc, #268]	; (4334 <Clock_Ip_ClockInitializeObjects+0x1d4>)
    4226:	4413      	add	r3, r2
    4228:	4a48      	ldr	r2, [pc, #288]	; (434c <Clock_Ip_ClockInitializeObjects+0x1ec>)
    422a:	6013      	str	r3, [r2, #0]
    422c:	4b48      	ldr	r3, [pc, #288]	; (4350 <Clock_Ip_ClockInitializeObjects+0x1f0>)
    422e:	781b      	ldrb	r3, [r3, #0]
    4230:	2b00      	cmp	r3, #0
    4232:	d002      	beq.n	423a <Clock_Ip_ClockInitializeObjects+0xda>
    4234:	9b01      	ldr	r3, [sp, #4]
    4236:	2b00      	cmp	r3, #0
    4238:	d003      	beq.n	4242 <Clock_Ip_ClockInitializeObjects+0xe2>
    423a:	4b46      	ldr	r3, [pc, #280]	; (4354 <Clock_Ip_ClockInitializeObjects+0x1f4>)
    423c:	781b      	ldrb	r3, [r3, #0]
    423e:	2b00      	cmp	r3, #0
    4240:	d056      	beq.n	42f0 <Clock_Ip_ClockInitializeObjects+0x190>
    4242:	f7ff fc09 	bl	3a58 <getFircConfig>
    4246:	4603      	mov	r3, r0
    4248:	4a43      	ldr	r2, [pc, #268]	; (4358 <Clock_Ip_ClockInitializeObjects+0x1f8>)
    424a:	6013      	str	r3, [r2, #0]
    424c:	f7ff fc60 	bl	3b10 <getSoscConfig>
    4250:	4603      	mov	r3, r0
    4252:	4a42      	ldr	r2, [pc, #264]	; (435c <Clock_Ip_ClockInitializeObjects+0x1fc>)
    4254:	6013      	str	r3, [r2, #0]
    4256:	f7ff fca7 	bl	3ba8 <getSpllConfig>
    425a:	4603      	mov	r3, r0
    425c:	4a40      	ldr	r2, [pc, #256]	; (4360 <Clock_Ip_ClockInitializeObjects+0x200>)
    425e:	6013      	str	r3, [r2, #0]
    4260:	2019      	movs	r0, #25
    4262:	f7ff fcfb 	bl	3c5c <getSelectorConfig>
    4266:	4603      	mov	r3, r0
    4268:	4a3e      	ldr	r2, [pc, #248]	; (4364 <Clock_Ip_ClockInitializeObjects+0x204>)
    426a:	6013      	str	r3, [r2, #0]
    426c:	201a      	movs	r0, #26
    426e:	f7ff fcf5 	bl	3c5c <getSelectorConfig>
    4272:	4603      	mov	r3, r0
    4274:	4a3c      	ldr	r2, [pc, #240]	; (4368 <Clock_Ip_ClockInitializeObjects+0x208>)
    4276:	6013      	str	r3, [r2, #0]
    4278:	201b      	movs	r0, #27
    427a:	f7ff fcef 	bl	3c5c <getSelectorConfig>
    427e:	4603      	mov	r3, r0
    4280:	4a3a      	ldr	r2, [pc, #232]	; (436c <Clock_Ip_ClockInitializeObjects+0x20c>)
    4282:	6013      	str	r3, [r2, #0]
    4284:	201d      	movs	r0, #29
    4286:	f7ff fd7b 	bl	3d80 <getCoreDividerConfig>
    428a:	4603      	mov	r3, r0
    428c:	4a38      	ldr	r2, [pc, #224]	; (4370 <Clock_Ip_ClockInitializeObjects+0x210>)
    428e:	6013      	str	r3, [r2, #0]
    4290:	201e      	movs	r0, #30
    4292:	f7ff fd75 	bl	3d80 <getCoreDividerConfig>
    4296:	4603      	mov	r3, r0
    4298:	4a36      	ldr	r2, [pc, #216]	; (4374 <Clock_Ip_ClockInitializeObjects+0x214>)
    429a:	6013      	str	r3, [r2, #0]
    429c:	201f      	movs	r0, #31
    429e:	f7ff fd6f 	bl	3d80 <getCoreDividerConfig>
    42a2:	4603      	mov	r3, r0
    42a4:	4a34      	ldr	r2, [pc, #208]	; (4378 <Clock_Ip_ClockInitializeObjects+0x218>)
    42a6:	6013      	str	r3, [r2, #0]
    42a8:	2021      	movs	r0, #33	; 0x21
    42aa:	f7ff fe0f 	bl	3ecc <getBusDividerConfig>
    42ae:	4603      	mov	r3, r0
    42b0:	4a32      	ldr	r2, [pc, #200]	; (437c <Clock_Ip_ClockInitializeObjects+0x21c>)
    42b2:	6013      	str	r3, [r2, #0]
    42b4:	2022      	movs	r0, #34	; 0x22
    42b6:	f7ff fe09 	bl	3ecc <getBusDividerConfig>
    42ba:	4603      	mov	r3, r0
    42bc:	4a30      	ldr	r2, [pc, #192]	; (4380 <Clock_Ip_ClockInitializeObjects+0x220>)
    42be:	6013      	str	r3, [r2, #0]
    42c0:	2023      	movs	r0, #35	; 0x23
    42c2:	f7ff fe03 	bl	3ecc <getBusDividerConfig>
    42c6:	4603      	mov	r3, r0
    42c8:	4a2e      	ldr	r2, [pc, #184]	; (4384 <Clock_Ip_ClockInitializeObjects+0x224>)
    42ca:	6013      	str	r3, [r2, #0]
    42cc:	2025      	movs	r0, #37	; 0x25
    42ce:	f7ff fea3 	bl	4018 <getSlowDividerConfig>
    42d2:	4603      	mov	r3, r0
    42d4:	4a2c      	ldr	r2, [pc, #176]	; (4388 <Clock_Ip_ClockInitializeObjects+0x228>)
    42d6:	6013      	str	r3, [r2, #0]
    42d8:	2026      	movs	r0, #38	; 0x26
    42da:	f7ff fe9d 	bl	4018 <getSlowDividerConfig>
    42de:	4603      	mov	r3, r0
    42e0:	4a2a      	ldr	r2, [pc, #168]	; (438c <Clock_Ip_ClockInitializeObjects+0x22c>)
    42e2:	6013      	str	r3, [r2, #0]
    42e4:	2027      	movs	r0, #39	; 0x27
    42e6:	f7ff fe97 	bl	4018 <getSlowDividerConfig>
    42ea:	4603      	mov	r3, r0
    42ec:	4a28      	ldr	r2, [pc, #160]	; (4390 <Clock_Ip_ClockInitializeObjects+0x230>)
    42ee:	6013      	str	r3, [r2, #0]
    42f0:	bf00      	nop
    42f2:	b003      	add	sp, #12
    42f4:	f85d fb04 	ldr.w	pc, [sp], #4
    42f8:	1fff8ce0 	.word	0x1fff8ce0
    42fc:	0000b3b4 	.word	0x0000b3b4
    4300:	0000ba00 	.word	0x0000ba00
    4304:	1fff8bac 	.word	0x1fff8bac
    4308:	0000b374 	.word	0x0000b374
    430c:	0000b948 	.word	0x0000b948
    4310:	1fff8bb0 	.word	0x1fff8bb0
    4314:	0000b384 	.word	0x0000b384
    4318:	0000b9b4 	.word	0x0000b9b4
    431c:	1fff8bb4 	.word	0x1fff8bb4
    4320:	0000b3c4 	.word	0x0000b3c4
    4324:	0000ba2c 	.word	0x0000ba2c
    4328:	1fff8bb8 	.word	0x1fff8bb8
    432c:	1fff8bf4 	.word	0x1fff8bf4
    4330:	0000b354 	.word	0x0000b354
    4334:	0000b904 	.word	0x0000b904
    4338:	1fff8bbc 	.word	0x1fff8bbc
    433c:	1fff8bf8 	.word	0x1fff8bf8
    4340:	1fff8bc0 	.word	0x1fff8bc0
    4344:	1fff8bfc 	.word	0x1fff8bfc
    4348:	1fff8bc4 	.word	0x1fff8bc4
    434c:	1fff8c00 	.word	0x1fff8c00
    4350:	1fff8b19 	.word	0x1fff8b19
    4354:	1fff8b10 	.word	0x1fff8b10
    4358:	1fff8bc8 	.word	0x1fff8bc8
    435c:	1fff8bcc 	.word	0x1fff8bcc
    4360:	1fff8bd0 	.word	0x1fff8bd0
    4364:	1fff8bd4 	.word	0x1fff8bd4
    4368:	1fff8bd8 	.word	0x1fff8bd8
    436c:	1fff8c04 	.word	0x1fff8c04
    4370:	1fff8bdc 	.word	0x1fff8bdc
    4374:	1fff8be0 	.word	0x1fff8be0
    4378:	1fff8c08 	.word	0x1fff8c08
    437c:	1fff8be4 	.word	0x1fff8be4
    4380:	1fff8be8 	.word	0x1fff8be8
    4384:	1fff8c0c 	.word	0x1fff8c0c
    4388:	1fff8bec 	.word	0x1fff8bec
    438c:	1fff8bf0 	.word	0x1fff8bf0
    4390:	1fff8c10 	.word	0x1fff8c10

00004394 <Clock_Ip_ClockPowerModeChangeNotification>:
    4394:	b500      	push	{lr}
    4396:	b083      	sub	sp, #12
    4398:	9001      	str	r0, [sp, #4]
    439a:	9100      	str	r1, [sp, #0]
    439c:	9b01      	ldr	r3, [sp, #4]
    439e:	2b03      	cmp	r3, #3
    43a0:	f000 8090 	beq.w	44c4 <Clock_Ip_ClockPowerModeChangeNotification+0x130>
    43a4:	9b01      	ldr	r3, [sp, #4]
    43a6:	2b03      	cmp	r3, #3
    43a8:	f200 80d3 	bhi.w	4552 <Clock_Ip_ClockPowerModeChangeNotification+0x1be>
    43ac:	9b01      	ldr	r3, [sp, #4]
    43ae:	2b00      	cmp	r3, #0
    43b0:	d040      	beq.n	4434 <Clock_Ip_ClockPowerModeChangeNotification+0xa0>
    43b2:	9b01      	ldr	r3, [sp, #4]
    43b4:	3b01      	subs	r3, #1
    43b6:	2b01      	cmp	r3, #1
    43b8:	f200 80cb 	bhi.w	4552 <Clock_Ip_ClockPowerModeChangeNotification+0x1be>
    43bc:	9b00      	ldr	r3, [sp, #0]
    43be:	2b00      	cmp	r3, #0
    43c0:	f040 80c9 	bne.w	4556 <Clock_Ip_ClockPowerModeChangeNotification+0x1c2>
    43c4:	4b68      	ldr	r3, [pc, #416]	; (4568 <Clock_Ip_ClockPowerModeChangeNotification+0x1d4>)
    43c6:	2200      	movs	r2, #0
    43c8:	701a      	strb	r2, [r3, #0]
    43ca:	4b68      	ldr	r3, [pc, #416]	; (456c <Clock_Ip_ClockPowerModeChangeNotification+0x1d8>)
    43cc:	681b      	ldr	r3, [r3, #0]
    43ce:	685b      	ldr	r3, [r3, #4]
    43d0:	4a67      	ldr	r2, [pc, #412]	; (4570 <Clock_Ip_ClockPowerModeChangeNotification+0x1dc>)
    43d2:	6812      	ldr	r2, [r2, #0]
    43d4:	4610      	mov	r0, r2
    43d6:	4798      	blx	r3
    43d8:	4b66      	ldr	r3, [pc, #408]	; (4574 <Clock_Ip_ClockPowerModeChangeNotification+0x1e0>)
    43da:	681b      	ldr	r3, [r3, #0]
    43dc:	681b      	ldr	r3, [r3, #0]
    43de:	4a66      	ldr	r2, [pc, #408]	; (4578 <Clock_Ip_ClockPowerModeChangeNotification+0x1e4>)
    43e0:	6812      	ldr	r2, [r2, #0]
    43e2:	4610      	mov	r0, r2
    43e4:	4798      	blx	r3
    43e6:	4b65      	ldr	r3, [pc, #404]	; (457c <Clock_Ip_ClockPowerModeChangeNotification+0x1e8>)
    43e8:	681b      	ldr	r3, [r3, #0]
    43ea:	681b      	ldr	r3, [r3, #0]
    43ec:	4a64      	ldr	r2, [pc, #400]	; (4580 <Clock_Ip_ClockPowerModeChangeNotification+0x1ec>)
    43ee:	6812      	ldr	r2, [r2, #0]
    43f0:	4610      	mov	r0, r2
    43f2:	4798      	blx	r3
    43f4:	4b63      	ldr	r3, [pc, #396]	; (4584 <Clock_Ip_ClockPowerModeChangeNotification+0x1f0>)
    43f6:	681b      	ldr	r3, [r3, #0]
    43f8:	681b      	ldr	r3, [r3, #0]
    43fa:	4a63      	ldr	r2, [pc, #396]	; (4588 <Clock_Ip_ClockPowerModeChangeNotification+0x1f4>)
    43fc:	6812      	ldr	r2, [r2, #0]
    43fe:	4610      	mov	r0, r2
    4400:	4798      	blx	r3
    4402:	4b62      	ldr	r3, [pc, #392]	; (458c <Clock_Ip_ClockPowerModeChangeNotification+0x1f8>)
    4404:	681b      	ldr	r3, [r3, #0]
    4406:	691b      	ldr	r3, [r3, #16]
    4408:	4a61      	ldr	r2, [pc, #388]	; (4590 <Clock_Ip_ClockPowerModeChangeNotification+0x1fc>)
    440a:	6812      	ldr	r2, [r2, #0]
    440c:	6812      	ldr	r2, [r2, #0]
    440e:	4610      	mov	r0, r2
    4410:	4798      	blx	r3
    4412:	4b60      	ldr	r3, [pc, #384]	; (4594 <Clock_Ip_ClockPowerModeChangeNotification+0x200>)
    4414:	681b      	ldr	r3, [r3, #0]
    4416:	68db      	ldr	r3, [r3, #12]
    4418:	4a5f      	ldr	r2, [pc, #380]	; (4598 <Clock_Ip_ClockPowerModeChangeNotification+0x204>)
    441a:	6812      	ldr	r2, [r2, #0]
    441c:	6812      	ldr	r2, [r2, #0]
    441e:	4610      	mov	r0, r2
    4420:	4798      	blx	r3
    4422:	4b5e      	ldr	r3, [pc, #376]	; (459c <Clock_Ip_ClockPowerModeChangeNotification+0x208>)
    4424:	681b      	ldr	r3, [r3, #0]
    4426:	689b      	ldr	r3, [r3, #8]
    4428:	4a5d      	ldr	r2, [pc, #372]	; (45a0 <Clock_Ip_ClockPowerModeChangeNotification+0x20c>)
    442a:	6812      	ldr	r2, [r2, #0]
    442c:	6812      	ldr	r2, [r2, #0]
    442e:	4610      	mov	r0, r2
    4430:	4798      	blx	r3
    4432:	e090      	b.n	4556 <Clock_Ip_ClockPowerModeChangeNotification+0x1c2>
    4434:	9b00      	ldr	r3, [sp, #0]
    4436:	2b02      	cmp	r3, #2
    4438:	f040 808f 	bne.w	455a <Clock_Ip_ClockPowerModeChangeNotification+0x1c6>
    443c:	4b4a      	ldr	r3, [pc, #296]	; (4568 <Clock_Ip_ClockPowerModeChangeNotification+0x1d4>)
    443e:	2201      	movs	r2, #1
    4440:	701a      	strb	r2, [r3, #0]
    4442:	4b56      	ldr	r3, [pc, #344]	; (459c <Clock_Ip_ClockPowerModeChangeNotification+0x208>)
    4444:	681b      	ldr	r3, [r3, #0]
    4446:	685b      	ldr	r3, [r3, #4]
    4448:	4a55      	ldr	r2, [pc, #340]	; (45a0 <Clock_Ip_ClockPowerModeChangeNotification+0x20c>)
    444a:	6812      	ldr	r2, [r2, #0]
    444c:	4610      	mov	r0, r2
    444e:	4798      	blx	r3
    4450:	4b50      	ldr	r3, [pc, #320]	; (4594 <Clock_Ip_ClockPowerModeChangeNotification+0x200>)
    4452:	681b      	ldr	r3, [r3, #0]
    4454:	691b      	ldr	r3, [r3, #16]
    4456:	4a50      	ldr	r2, [pc, #320]	; (4598 <Clock_Ip_ClockPowerModeChangeNotification+0x204>)
    4458:	6812      	ldr	r2, [r2, #0]
    445a:	4610      	mov	r0, r2
    445c:	4798      	blx	r3
    445e:	4b4d      	ldr	r3, [pc, #308]	; (4594 <Clock_Ip_ClockPowerModeChangeNotification+0x200>)
    4460:	681b      	ldr	r3, [r3, #0]
    4462:	689b      	ldr	r3, [r3, #8]
    4464:	4a4c      	ldr	r2, [pc, #304]	; (4598 <Clock_Ip_ClockPowerModeChangeNotification+0x204>)
    4466:	6812      	ldr	r2, [r2, #0]
    4468:	4610      	mov	r0, r2
    446a:	4798      	blx	r3
    446c:	4b47      	ldr	r3, [pc, #284]	; (458c <Clock_Ip_ClockPowerModeChangeNotification+0x1f8>)
    446e:	681b      	ldr	r3, [r3, #0]
    4470:	68db      	ldr	r3, [r3, #12]
    4472:	4a47      	ldr	r2, [pc, #284]	; (4590 <Clock_Ip_ClockPowerModeChangeNotification+0x1fc>)
    4474:	6812      	ldr	r2, [r2, #0]
    4476:	4610      	mov	r0, r2
    4478:	4798      	blx	r3
    447a:	4b44      	ldr	r3, [pc, #272]	; (458c <Clock_Ip_ClockPowerModeChangeNotification+0x1f8>)
    447c:	681b      	ldr	r3, [r3, #0]
    447e:	689b      	ldr	r3, [r3, #8]
    4480:	4a43      	ldr	r2, [pc, #268]	; (4590 <Clock_Ip_ClockPowerModeChangeNotification+0x1fc>)
    4482:	6812      	ldr	r2, [r2, #0]
    4484:	6812      	ldr	r2, [r2, #0]
    4486:	4610      	mov	r0, r2
    4488:	4798      	blx	r3
    448a:	4b38      	ldr	r3, [pc, #224]	; (456c <Clock_Ip_ClockPowerModeChangeNotification+0x1d8>)
    448c:	681b      	ldr	r3, [r3, #0]
    448e:	685b      	ldr	r3, [r3, #4]
    4490:	4a44      	ldr	r2, [pc, #272]	; (45a4 <Clock_Ip_ClockPowerModeChangeNotification+0x210>)
    4492:	6812      	ldr	r2, [r2, #0]
    4494:	4610      	mov	r0, r2
    4496:	4798      	blx	r3
    4498:	4b36      	ldr	r3, [pc, #216]	; (4574 <Clock_Ip_ClockPowerModeChangeNotification+0x1e0>)
    449a:	681b      	ldr	r3, [r3, #0]
    449c:	681b      	ldr	r3, [r3, #0]
    449e:	4a42      	ldr	r2, [pc, #264]	; (45a8 <Clock_Ip_ClockPowerModeChangeNotification+0x214>)
    44a0:	6812      	ldr	r2, [r2, #0]
    44a2:	4610      	mov	r0, r2
    44a4:	4798      	blx	r3
    44a6:	4b35      	ldr	r3, [pc, #212]	; (457c <Clock_Ip_ClockPowerModeChangeNotification+0x1e8>)
    44a8:	681b      	ldr	r3, [r3, #0]
    44aa:	681b      	ldr	r3, [r3, #0]
    44ac:	4a3f      	ldr	r2, [pc, #252]	; (45ac <Clock_Ip_ClockPowerModeChangeNotification+0x218>)
    44ae:	6812      	ldr	r2, [r2, #0]
    44b0:	4610      	mov	r0, r2
    44b2:	4798      	blx	r3
    44b4:	4b33      	ldr	r3, [pc, #204]	; (4584 <Clock_Ip_ClockPowerModeChangeNotification+0x1f0>)
    44b6:	681b      	ldr	r3, [r3, #0]
    44b8:	681b      	ldr	r3, [r3, #0]
    44ba:	4a3d      	ldr	r2, [pc, #244]	; (45b0 <Clock_Ip_ClockPowerModeChangeNotification+0x21c>)
    44bc:	6812      	ldr	r2, [r2, #0]
    44be:	4610      	mov	r0, r2
    44c0:	4798      	blx	r3
    44c2:	e04a      	b.n	455a <Clock_Ip_ClockPowerModeChangeNotification+0x1c6>
    44c4:	9b00      	ldr	r3, [sp, #0]
    44c6:	2b02      	cmp	r3, #2
    44c8:	d149      	bne.n	455e <Clock_Ip_ClockPowerModeChangeNotification+0x1ca>
    44ca:	4b27      	ldr	r3, [pc, #156]	; (4568 <Clock_Ip_ClockPowerModeChangeNotification+0x1d4>)
    44cc:	2201      	movs	r2, #1
    44ce:	701a      	strb	r2, [r3, #0]
    44d0:	4b32      	ldr	r3, [pc, #200]	; (459c <Clock_Ip_ClockPowerModeChangeNotification+0x208>)
    44d2:	681b      	ldr	r3, [r3, #0]
    44d4:	685b      	ldr	r3, [r3, #4]
    44d6:	4a32      	ldr	r2, [pc, #200]	; (45a0 <Clock_Ip_ClockPowerModeChangeNotification+0x20c>)
    44d8:	6812      	ldr	r2, [r2, #0]
    44da:	4610      	mov	r0, r2
    44dc:	4798      	blx	r3
    44de:	4b2d      	ldr	r3, [pc, #180]	; (4594 <Clock_Ip_ClockPowerModeChangeNotification+0x200>)
    44e0:	681b      	ldr	r3, [r3, #0]
    44e2:	691b      	ldr	r3, [r3, #16]
    44e4:	4a2c      	ldr	r2, [pc, #176]	; (4598 <Clock_Ip_ClockPowerModeChangeNotification+0x204>)
    44e6:	6812      	ldr	r2, [r2, #0]
    44e8:	4610      	mov	r0, r2
    44ea:	4798      	blx	r3
    44ec:	4b29      	ldr	r3, [pc, #164]	; (4594 <Clock_Ip_ClockPowerModeChangeNotification+0x200>)
    44ee:	681b      	ldr	r3, [r3, #0]
    44f0:	689b      	ldr	r3, [r3, #8]
    44f2:	4a29      	ldr	r2, [pc, #164]	; (4598 <Clock_Ip_ClockPowerModeChangeNotification+0x204>)
    44f4:	6812      	ldr	r2, [r2, #0]
    44f6:	4610      	mov	r0, r2
    44f8:	4798      	blx	r3
    44fa:	4b24      	ldr	r3, [pc, #144]	; (458c <Clock_Ip_ClockPowerModeChangeNotification+0x1f8>)
    44fc:	681b      	ldr	r3, [r3, #0]
    44fe:	68db      	ldr	r3, [r3, #12]
    4500:	4a23      	ldr	r2, [pc, #140]	; (4590 <Clock_Ip_ClockPowerModeChangeNotification+0x1fc>)
    4502:	6812      	ldr	r2, [r2, #0]
    4504:	4610      	mov	r0, r2
    4506:	4798      	blx	r3
    4508:	4b20      	ldr	r3, [pc, #128]	; (458c <Clock_Ip_ClockPowerModeChangeNotification+0x1f8>)
    450a:	681b      	ldr	r3, [r3, #0]
    450c:	689b      	ldr	r3, [r3, #8]
    450e:	4a20      	ldr	r2, [pc, #128]	; (4590 <Clock_Ip_ClockPowerModeChangeNotification+0x1fc>)
    4510:	6812      	ldr	r2, [r2, #0]
    4512:	6812      	ldr	r2, [r2, #0]
    4514:	4610      	mov	r0, r2
    4516:	4798      	blx	r3
    4518:	4b26      	ldr	r3, [pc, #152]	; (45b4 <Clock_Ip_ClockPowerModeChangeNotification+0x220>)
    451a:	681b      	ldr	r3, [r3, #0]
    451c:	685b      	ldr	r3, [r3, #4]
    451e:	4a26      	ldr	r2, [pc, #152]	; (45b8 <Clock_Ip_ClockPowerModeChangeNotification+0x224>)
    4520:	6812      	ldr	r2, [r2, #0]
    4522:	4610      	mov	r0, r2
    4524:	4798      	blx	r3
    4526:	4b25      	ldr	r3, [pc, #148]	; (45bc <Clock_Ip_ClockPowerModeChangeNotification+0x228>)
    4528:	681b      	ldr	r3, [r3, #0]
    452a:	681b      	ldr	r3, [r3, #0]
    452c:	4a24      	ldr	r2, [pc, #144]	; (45c0 <Clock_Ip_ClockPowerModeChangeNotification+0x22c>)
    452e:	6812      	ldr	r2, [r2, #0]
    4530:	4610      	mov	r0, r2
    4532:	4798      	blx	r3
    4534:	4b23      	ldr	r3, [pc, #140]	; (45c4 <Clock_Ip_ClockPowerModeChangeNotification+0x230>)
    4536:	681b      	ldr	r3, [r3, #0]
    4538:	681b      	ldr	r3, [r3, #0]
    453a:	4a23      	ldr	r2, [pc, #140]	; (45c8 <Clock_Ip_ClockPowerModeChangeNotification+0x234>)
    453c:	6812      	ldr	r2, [r2, #0]
    453e:	4610      	mov	r0, r2
    4540:	4798      	blx	r3
    4542:	4b22      	ldr	r3, [pc, #136]	; (45cc <Clock_Ip_ClockPowerModeChangeNotification+0x238>)
    4544:	681b      	ldr	r3, [r3, #0]
    4546:	681b      	ldr	r3, [r3, #0]
    4548:	4a21      	ldr	r2, [pc, #132]	; (45d0 <Clock_Ip_ClockPowerModeChangeNotification+0x23c>)
    454a:	6812      	ldr	r2, [r2, #0]
    454c:	4610      	mov	r0, r2
    454e:	4798      	blx	r3
    4550:	e005      	b.n	455e <Clock_Ip_ClockPowerModeChangeNotification+0x1ca>
    4552:	bf00      	nop
    4554:	e004      	b.n	4560 <Clock_Ip_ClockPowerModeChangeNotification+0x1cc>
    4556:	bf00      	nop
    4558:	e002      	b.n	4560 <Clock_Ip_ClockPowerModeChangeNotification+0x1cc>
    455a:	bf00      	nop
    455c:	e000      	b.n	4560 <Clock_Ip_ClockPowerModeChangeNotification+0x1cc>
    455e:	bf00      	nop
    4560:	bf00      	nop
    4562:	b003      	add	sp, #12
    4564:	f85d fb04 	ldr.w	pc, [sp], #4
    4568:	1fff8b19 	.word	0x1fff8b19
    456c:	1fff8bb8 	.word	0x1fff8bb8
    4570:	1fff8bd8 	.word	0x1fff8bd8
    4574:	1fff8bbc 	.word	0x1fff8bbc
    4578:	1fff8be0 	.word	0x1fff8be0
    457c:	1fff8bc0 	.word	0x1fff8bc0
    4580:	1fff8be8 	.word	0x1fff8be8
    4584:	1fff8bc4 	.word	0x1fff8bc4
    4588:	1fff8bf0 	.word	0x1fff8bf0
    458c:	1fff8bac 	.word	0x1fff8bac
    4590:	1fff8bd0 	.word	0x1fff8bd0
    4594:	1fff8bb0 	.word	0x1fff8bb0
    4598:	1fff8bcc 	.word	0x1fff8bcc
    459c:	1fff8bb4 	.word	0x1fff8bb4
    45a0:	1fff8bc8 	.word	0x1fff8bc8
    45a4:	1fff8bd4 	.word	0x1fff8bd4
    45a8:	1fff8bdc 	.word	0x1fff8bdc
    45ac:	1fff8be4 	.word	0x1fff8be4
    45b0:	1fff8bec 	.word	0x1fff8bec
    45b4:	1fff8bf4 	.word	0x1fff8bf4
    45b8:	1fff8c04 	.word	0x1fff8c04
    45bc:	1fff8bf8 	.word	0x1fff8bf8
    45c0:	1fff8c08 	.word	0x1fff8c08
    45c4:	1fff8bfc 	.word	0x1fff8bfc
    45c8:	1fff8c0c 	.word	0x1fff8c0c
    45cc:	1fff8c00 	.word	0x1fff8c00
    45d0:	1fff8c10 	.word	0x1fff8c10

000045d4 <Clock_Ip_Command>:
    45d4:	b500      	push	{lr}
    45d6:	b083      	sub	sp, #12
    45d8:	9001      	str	r0, [sp, #4]
    45da:	9100      	str	r1, [sp, #0]
    45dc:	9b00      	ldr	r3, [sp, #0]
    45de:	2b04      	cmp	r3, #4
    45e0:	d010      	beq.n	4604 <Clock_Ip_Command+0x30>
    45e2:	9b00      	ldr	r3, [sp, #0]
    45e4:	2b04      	cmp	r3, #4
    45e6:	d811      	bhi.n	460c <Clock_Ip_Command+0x38>
    45e8:	9b00      	ldr	r3, [sp, #0]
    45ea:	2b01      	cmp	r3, #1
    45ec:	d006      	beq.n	45fc <Clock_Ip_Command+0x28>
    45ee:	9b00      	ldr	r3, [sp, #0]
    45f0:	2b02      	cmp	r3, #2
    45f2:	d10b      	bne.n	460c <Clock_Ip_Command+0x38>
    45f4:	9801      	ldr	r0, [sp, #4]
    45f6:	f7ff fdb3 	bl	4160 <Clock_Ip_ClockInitializeObjects>
    45fa:	e008      	b.n	460e <Clock_Ip_Command+0x3a>
    45fc:	9801      	ldr	r0, [sp, #4]
    45fe:	f7ff f9db 	bl	39b8 <Clock_Ip_SpecificPlatformInitClock>
    4602:	e004      	b.n	460e <Clock_Ip_Command+0x3a>
    4604:	9801      	ldr	r0, [sp, #4]
    4606:	f7ff f8ed 	bl	37e4 <DisableSafeClock>
    460a:	e000      	b.n	460e <Clock_Ip_Command+0x3a>
    460c:	bf00      	nop
    460e:	bf00      	nop
    4610:	b003      	add	sp, #12
    4612:	f85d fb04 	ldr.w	pc, [sp], #4
    4616:	bf00      	nop

00004618 <Mcu_Init>:
    4618:	b500      	push	{lr}
    461a:	b085      	sub	sp, #20
    461c:	9001      	str	r0, [sp, #4]
    461e:	4a20      	ldr	r2, [pc, #128]	; (46a0 <Mcu_Init+0x88>)
    4620:	9b01      	ldr	r3, [sp, #4]
    4622:	6013      	str	r3, [r2, #0]
    4624:	2300      	movs	r3, #0
    4626:	9303      	str	r3, [sp, #12]
    4628:	e010      	b.n	464c <Mcu_Init+0x34>
    462a:	4b1d      	ldr	r3, [pc, #116]	; (46a0 <Mcu_Init+0x88>)
    462c:	681b      	ldr	r3, [r3, #0]
    462e:	6919      	ldr	r1, [r3, #16]
    4630:	9a03      	ldr	r2, [sp, #12]
    4632:	4613      	mov	r3, r2
    4634:	005b      	lsls	r3, r3, #1
    4636:	4413      	add	r3, r2
    4638:	009b      	lsls	r3, r3, #2
    463a:	440b      	add	r3, r1
    463c:	681b      	ldr	r3, [r3, #0]
    463e:	9a03      	ldr	r2, [sp, #12]
    4640:	b2d1      	uxtb	r1, r2
    4642:	4a18      	ldr	r2, [pc, #96]	; (46a4 <Mcu_Init+0x8c>)
    4644:	54d1      	strb	r1, [r2, r3]
    4646:	9b03      	ldr	r3, [sp, #12]
    4648:	3301      	adds	r3, #1
    464a:	9303      	str	r3, [sp, #12]
    464c:	4b14      	ldr	r3, [pc, #80]	; (46a0 <Mcu_Init+0x88>)
    464e:	681b      	ldr	r3, [r3, #0]
    4650:	689b      	ldr	r3, [r3, #8]
    4652:	9a03      	ldr	r2, [sp, #12]
    4654:	429a      	cmp	r2, r3
    4656:	d3e8      	bcc.n	462a <Mcu_Init+0x12>
    4658:	2300      	movs	r3, #0
    465a:	9303      	str	r3, [sp, #12]
    465c:	e010      	b.n	4680 <Mcu_Init+0x68>
    465e:	4b10      	ldr	r3, [pc, #64]	; (46a0 <Mcu_Init+0x88>)
    4660:	681b      	ldr	r3, [r3, #0]
    4662:	6959      	ldr	r1, [r3, #20]
    4664:	9a03      	ldr	r2, [sp, #12]
    4666:	4613      	mov	r3, r2
    4668:	01db      	lsls	r3, r3, #7
    466a:	1a9b      	subs	r3, r3, r2
    466c:	00db      	lsls	r3, r3, #3
    466e:	440b      	add	r3, r1
    4670:	681b      	ldr	r3, [r3, #0]
    4672:	9a03      	ldr	r2, [sp, #12]
    4674:	b2d1      	uxtb	r1, r2
    4676:	4a0c      	ldr	r2, [pc, #48]	; (46a8 <Mcu_Init+0x90>)
    4678:	54d1      	strb	r1, [r2, r3]
    467a:	9b03      	ldr	r3, [sp, #12]
    467c:	3301      	adds	r3, #1
    467e:	9303      	str	r3, [sp, #12]
    4680:	4b07      	ldr	r3, [pc, #28]	; (46a0 <Mcu_Init+0x88>)
    4682:	681b      	ldr	r3, [r3, #0]
    4684:	68db      	ldr	r3, [r3, #12]
    4686:	9a03      	ldr	r2, [sp, #12]
    4688:	429a      	cmp	r2, r3
    468a:	d3e8      	bcc.n	465e <Mcu_Init+0x46>
    468c:	4b04      	ldr	r3, [pc, #16]	; (46a0 <Mcu_Init+0x88>)
    468e:	681b      	ldr	r3, [r3, #0]
    4690:	699b      	ldr	r3, [r3, #24]
    4692:	4618      	mov	r0, r3
    4694:	f000 f88a 	bl	47ac <Mcu_Ipw_Init>
    4698:	bf00      	nop
    469a:	b005      	add	sp, #20
    469c:	f85d fb04 	ldr.w	pc, [sp], #4
    46a0:	1fff8cec 	.word	0x1fff8cec
    46a4:	1fff8ce8 	.word	0x1fff8ce8
    46a8:	1fff8ce4 	.word	0x1fff8ce4

000046ac <Mcu_InitRamSection>:
    46ac:	b084      	sub	sp, #16
    46ae:	9001      	str	r0, [sp, #4]
    46b0:	2301      	movs	r3, #1
    46b2:	f88d 300f 	strb.w	r3, [sp, #15]
    46b6:	f89d 300f 	ldrb.w	r3, [sp, #15]
    46ba:	4618      	mov	r0, r3
    46bc:	b004      	add	sp, #16
    46be:	4770      	bx	lr

000046c0 <Mcu_InitClock>:
    46c0:	b500      	push	{lr}
    46c2:	b085      	sub	sp, #20
    46c4:	9001      	str	r0, [sp, #4]
    46c6:	4a0e      	ldr	r2, [pc, #56]	; (4700 <Mcu_InitClock+0x40>)
    46c8:	9b01      	ldr	r3, [sp, #4]
    46ca:	4413      	add	r3, r2
    46cc:	781b      	ldrb	r3, [r3, #0]
    46ce:	f88d 300f 	strb.w	r3, [sp, #15]
    46d2:	4b0c      	ldr	r3, [pc, #48]	; (4704 <Mcu_InitClock+0x44>)
    46d4:	681b      	ldr	r3, [r3, #0]
    46d6:	6959      	ldr	r1, [r3, #20]
    46d8:	f89d 200f 	ldrb.w	r2, [sp, #15]
    46dc:	4613      	mov	r3, r2
    46de:	01db      	lsls	r3, r3, #7
    46e0:	1a9b      	subs	r3, r3, r2
    46e2:	00db      	lsls	r3, r3, #3
    46e4:	440b      	add	r3, r1
    46e6:	4618      	mov	r0, r3
    46e8:	f000 f86a 	bl	47c0 <Mcu_Ipw_InitClock>
    46ec:	2300      	movs	r3, #0
    46ee:	f88d 300e 	strb.w	r3, [sp, #14]
    46f2:	f89d 300e 	ldrb.w	r3, [sp, #14]
    46f6:	4618      	mov	r0, r3
    46f8:	b005      	add	sp, #20
    46fa:	f85d fb04 	ldr.w	pc, [sp], #4
    46fe:	bf00      	nop
    4700:	1fff8ce4 	.word	0x1fff8ce4
    4704:	1fff8cec 	.word	0x1fff8cec

00004708 <Mcu_SetMode>:
    4708:	b500      	push	{lr}
    470a:	b085      	sub	sp, #20
    470c:	9001      	str	r0, [sp, #4]
    470e:	4a0d      	ldr	r2, [pc, #52]	; (4744 <Mcu_SetMode+0x3c>)
    4710:	9b01      	ldr	r3, [sp, #4]
    4712:	4413      	add	r3, r2
    4714:	781b      	ldrb	r3, [r3, #0]
    4716:	f88d 300f 	strb.w	r3, [sp, #15]
    471a:	f004 f8f7 	bl	890c <SchM_Enter_Mcu_MCU_EXCLUSIVE_AREA_00>
    471e:	4b0a      	ldr	r3, [pc, #40]	; (4748 <Mcu_SetMode+0x40>)
    4720:	681b      	ldr	r3, [r3, #0]
    4722:	6919      	ldr	r1, [r3, #16]
    4724:	f89d 200f 	ldrb.w	r2, [sp, #15]
    4728:	4613      	mov	r3, r2
    472a:	005b      	lsls	r3, r3, #1
    472c:	4413      	add	r3, r2
    472e:	009b      	lsls	r3, r3, #2
    4730:	440b      	add	r3, r1
    4732:	4618      	mov	r0, r3
    4734:	f000 f84e 	bl	47d4 <Mcu_Ipw_SetMode>
    4738:	f004 f914 	bl	8964 <SchM_Exit_Mcu_MCU_EXCLUSIVE_AREA_00>
    473c:	bf00      	nop
    473e:	b005      	add	sp, #20
    4740:	f85d fb04 	ldr.w	pc, [sp], #4
    4744:	1fff8ce8 	.word	0x1fff8ce8
    4748:	1fff8cec 	.word	0x1fff8cec

0000474c <Mcu_GetPllStatus>:
    474c:	b082      	sub	sp, #8
    474e:	2302      	movs	r3, #2
    4750:	9301      	str	r3, [sp, #4]
    4752:	9b01      	ldr	r3, [sp, #4]
    4754:	4618      	mov	r0, r3
    4756:	b002      	add	sp, #8
    4758:	4770      	bx	lr

0000475a <Mcu_GetResetReason>:
    475a:	b500      	push	{lr}
    475c:	b083      	sub	sp, #12
    475e:	f000 f843 	bl	47e8 <Mcu_Ipw_GetResetReason>
    4762:	9001      	str	r0, [sp, #4]
    4764:	9b01      	ldr	r3, [sp, #4]
    4766:	4618      	mov	r0, r3
    4768:	b003      	add	sp, #12
    476a:	f85d fb04 	ldr.w	pc, [sp], #4

0000476e <Mcu_GetResetRawValue>:
    476e:	b500      	push	{lr}
    4770:	b083      	sub	sp, #12
    4772:	f000 f83f 	bl	47f4 <Mcu_Ipw_GetResetRawValue>
    4776:	9001      	str	r0, [sp, #4]
    4778:	9b01      	ldr	r3, [sp, #4]
    477a:	4618      	mov	r0, r3
    477c:	b003      	add	sp, #12
    477e:	f85d fb04 	ldr.w	pc, [sp], #4

00004782 <Mcu_SleepOnExit>:
    4782:	b500      	push	{lr}
    4784:	b083      	sub	sp, #12
    4786:	9001      	str	r0, [sp, #4]
    4788:	9801      	ldr	r0, [sp, #4]
    478a:	f000 f839 	bl	4800 <Mcu_Ipw_SleepOnExit>
    478e:	bf00      	nop
    4790:	b003      	add	sp, #12
    4792:	f85d fb04 	ldr.w	pc, [sp], #4

00004796 <Mcu_ClkSrcFailureNotification>:
    4796:	b082      	sub	sp, #8
    4798:	9001      	str	r0, [sp, #4]
    479a:	4b03      	ldr	r3, [pc, #12]	; (47a8 <Mcu_ClkSrcFailureNotification+0x12>)
    479c:	681b      	ldr	r3, [r3, #0]
    479e:	2b00      	cmp	r3, #0
    47a0:	bf00      	nop
    47a2:	b002      	add	sp, #8
    47a4:	4770      	bx	lr
    47a6:	bf00      	nop
    47a8:	1fff8cec 	.word	0x1fff8cec

000047ac <Mcu_Ipw_Init>:
    47ac:	b500      	push	{lr}
    47ae:	b083      	sub	sp, #12
    47b0:	9001      	str	r0, [sp, #4]
    47b2:	9801      	ldr	r0, [sp, #4]
    47b4:	f000 f882 	bl	48bc <Power_Ip_Init>
    47b8:	bf00      	nop
    47ba:	b003      	add	sp, #12
    47bc:	f85d fb04 	ldr.w	pc, [sp], #4

000047c0 <Mcu_Ipw_InitClock>:
    47c0:	b500      	push	{lr}
    47c2:	b083      	sub	sp, #12
    47c4:	9001      	str	r0, [sp, #4]
    47c6:	9801      	ldr	r0, [sp, #4]
    47c8:	f7fc fc6a 	bl	10a0 <Clock_Ip_InitClock>
    47cc:	bf00      	nop
    47ce:	b003      	add	sp, #12
    47d0:	f85d fb04 	ldr.w	pc, [sp], #4

000047d4 <Mcu_Ipw_SetMode>:
    47d4:	b500      	push	{lr}
    47d6:	b083      	sub	sp, #12
    47d8:	9001      	str	r0, [sp, #4]
    47da:	9801      	ldr	r0, [sp, #4]
    47dc:	f000 f820 	bl	4820 <Power_Ip_SetMode>
    47e0:	bf00      	nop
    47e2:	b003      	add	sp, #12
    47e4:	f85d fb04 	ldr.w	pc, [sp], #4

000047e8 <Mcu_Ipw_GetResetReason>:
    47e8:	b508      	push	{r3, lr}
    47ea:	f000 f84f 	bl	488c <Power_Ip_GetResetReason>
    47ee:	4603      	mov	r3, r0
    47f0:	4618      	mov	r0, r3
    47f2:	bd08      	pop	{r3, pc}

000047f4 <Mcu_Ipw_GetResetRawValue>:
    47f4:	b508      	push	{r3, lr}
    47f6:	f000 f857 	bl	48a8 <Power_Ip_GetResetRawValue>
    47fa:	4603      	mov	r3, r0
    47fc:	4618      	mov	r0, r3
    47fe:	bd08      	pop	{r3, pc}

00004800 <Mcu_Ipw_SleepOnExit>:
    4800:	b500      	push	{lr}
    4802:	b083      	sub	sp, #12
    4804:	9001      	str	r0, [sp, #4]
    4806:	9b01      	ldr	r3, [sp, #4]
    4808:	2b00      	cmp	r3, #0
    480a:	d102      	bne.n	4812 <Mcu_Ipw_SleepOnExit+0x12>
    480c:	f000 f86c 	bl	48e8 <Power_Ip_DisableSleepOnExit>
    4810:	e001      	b.n	4816 <Mcu_Ipw_SleepOnExit+0x16>
    4812:	f000 f86e 	bl	48f2 <Power_Ip_EnableSleepOnExit>
    4816:	bf00      	nop
    4818:	b003      	add	sp, #12
    481a:	f85d fb04 	ldr.w	pc, [sp], #4
	...

00004820 <Power_Ip_SetMode>:
    4820:	b500      	push	{lr}
    4822:	b085      	sub	sp, #20
    4824:	9001      	str	r0, [sp, #4]
    4826:	9b01      	ldr	r3, [sp, #4]
    4828:	685b      	ldr	r3, [r3, #4]
    482a:	9302      	str	r3, [sp, #8]
    482c:	9802      	ldr	r0, [sp, #8]
    482e:	f000 f9f5 	bl	4c1c <Power_Ip_SMC_ModeCheckEntry>
    4832:	4603      	mov	r3, r0
    4834:	2b00      	cmp	r3, #0
    4836:	d002      	beq.n	483e <Power_Ip_SetMode+0x1e>
    4838:	2301      	movs	r3, #1
    483a:	9303      	str	r3, [sp, #12]
    483c:	e003      	b.n	4846 <Power_Ip_SetMode+0x26>
    483e:	9801      	ldr	r0, [sp, #4]
    4840:	f000 fa1e 	bl	4c80 <Power_Ip_SMC_ModeConfig>
    4844:	9003      	str	r0, [sp, #12]
    4846:	9b03      	ldr	r3, [sp, #12]
    4848:	2b01      	cmp	r3, #1
    484a:	d103      	bne.n	4854 <Power_Ip_SetMode+0x34>
    484c:	21ff      	movs	r1, #255	; 0xff
    484e:	2003      	movs	r0, #3
    4850:	f000 f8f4 	bl	4a3c <Power_Ip_ReportPowerErrors>
    4854:	bf00      	nop
    4856:	b005      	add	sp, #20
    4858:	f85d fb04 	ldr.w	pc, [sp], #4

0000485c <Power_Ip_ConvertIntergeToResetType>:
    485c:	b084      	sub	sp, #16
    485e:	9001      	str	r0, [sp, #4]
    4860:	230c      	movs	r3, #12
    4862:	9303      	str	r3, [sp, #12]
    4864:	4a08      	ldr	r2, [pc, #32]	; (4888 <Power_Ip_ConvertIntergeToResetType+0x2c>)
    4866:	9b01      	ldr	r3, [sp, #4]
    4868:	f852 3023 	ldr.w	r3, [r2, r3, lsl #2]
    486c:	2b0e      	cmp	r3, #14
    486e:	d805      	bhi.n	487c <Power_Ip_ConvertIntergeToResetType+0x20>
    4870:	4a05      	ldr	r2, [pc, #20]	; (4888 <Power_Ip_ConvertIntergeToResetType+0x2c>)
    4872:	9b01      	ldr	r3, [sp, #4]
    4874:	f852 3023 	ldr.w	r3, [r2, r3, lsl #2]
    4878:	9303      	str	r3, [sp, #12]
    487a:	e001      	b.n	4880 <Power_Ip_ConvertIntergeToResetType+0x24>
    487c:	230c      	movs	r3, #12
    487e:	9303      	str	r3, [sp, #12]
    4880:	9b03      	ldr	r3, [sp, #12]
    4882:	4618      	mov	r0, r3
    4884:	b004      	add	sp, #16
    4886:	4770      	bx	lr
    4888:	0000baa0 	.word	0x0000baa0

0000488c <Power_Ip_GetResetReason>:
    488c:	b500      	push	{lr}
    488e:	b083      	sub	sp, #12
    4890:	f000 f940 	bl	4b14 <Power_Ip_RCM_GetResetReason>
    4894:	9001      	str	r0, [sp, #4]
    4896:	9801      	ldr	r0, [sp, #4]
    4898:	f7ff ffe0 	bl	485c <Power_Ip_ConvertIntergeToResetType>
    489c:	9000      	str	r0, [sp, #0]
    489e:	9b00      	ldr	r3, [sp, #0]
    48a0:	4618      	mov	r0, r3
    48a2:	b003      	add	sp, #12
    48a4:	f85d fb04 	ldr.w	pc, [sp], #4

000048a8 <Power_Ip_GetResetRawValue>:
    48a8:	b500      	push	{lr}
    48aa:	b083      	sub	sp, #12
    48ac:	f000 f98a 	bl	4bc4 <Power_Ip_RCM_GetResetRawValue>
    48b0:	9001      	str	r0, [sp, #4]
    48b2:	9b01      	ldr	r3, [sp, #4]
    48b4:	4618      	mov	r0, r3
    48b6:	b003      	add	sp, #12
    48b8:	f85d fb04 	ldr.w	pc, [sp], #4

000048bc <Power_Ip_Init>:
    48bc:	b500      	push	{lr}
    48be:	b083      	sub	sp, #12
    48c0:	9001      	str	r0, [sp, #4]
    48c2:	9b01      	ldr	r3, [sp, #4]
    48c4:	681b      	ldr	r3, [r3, #0]
    48c6:	4618      	mov	r0, r3
    48c8:	f000 f90e 	bl	4ae8 <Power_Ip_RCM_ResetInit>
    48cc:	9b01      	ldr	r3, [sp, #4]
    48ce:	685b      	ldr	r3, [r3, #4]
    48d0:	4618      	mov	r0, r3
    48d2:	f000 f86d 	bl	49b0 <Power_Ip_PMC_PowerInit>
    48d6:	9b01      	ldr	r3, [sp, #4]
    48d8:	689b      	ldr	r3, [r3, #8]
    48da:	4618      	mov	r0, r3
    48dc:	f000 f990 	bl	4c00 <Power_Ip_SMC_AllowedModesConfig>
    48e0:	bf00      	nop
    48e2:	b003      	add	sp, #12
    48e4:	f85d fb04 	ldr.w	pc, [sp], #4

000048e8 <Power_Ip_DisableSleepOnExit>:
    48e8:	b508      	push	{r3, lr}
    48ea:	f000 f811 	bl	4910 <Power_Ip_CM4_DisableSleepOnExit>
    48ee:	bf00      	nop
    48f0:	bd08      	pop	{r3, pc}

000048f2 <Power_Ip_EnableSleepOnExit>:
    48f2:	b508      	push	{r3, lr}
    48f4:	f000 f820 	bl	4938 <Power_Ip_CM4_EnableSleepOnExit>
    48f8:	bf00      	nop
    48fa:	bd08      	pop	{r3, pc}

000048fc <Power_Ip_InstallNotificationsCallback>:
    48fc:	b082      	sub	sp, #8
    48fe:	9001      	str	r0, [sp, #4]
    4900:	4a02      	ldr	r2, [pc, #8]	; (490c <Power_Ip_InstallNotificationsCallback+0x10>)
    4902:	9b01      	ldr	r3, [sp, #4]
    4904:	6013      	str	r3, [r2, #0]
    4906:	bf00      	nop
    4908:	b002      	add	sp, #8
    490a:	4770      	bx	lr
    490c:	1fff8b1c 	.word	0x1fff8b1c

00004910 <Power_Ip_CM4_DisableSleepOnExit>:
    4910:	b082      	sub	sp, #8
    4912:	2300      	movs	r3, #0
    4914:	9301      	str	r3, [sp, #4]
    4916:	4b07      	ldr	r3, [pc, #28]	; (4934 <Power_Ip_CM4_DisableSleepOnExit+0x24>)
    4918:	681b      	ldr	r3, [r3, #0]
    491a:	685b      	ldr	r3, [r3, #4]
    491c:	9301      	str	r3, [sp, #4]
    491e:	9b01      	ldr	r3, [sp, #4]
    4920:	f023 0302 	bic.w	r3, r3, #2
    4924:	9301      	str	r3, [sp, #4]
    4926:	4b03      	ldr	r3, [pc, #12]	; (4934 <Power_Ip_CM4_DisableSleepOnExit+0x24>)
    4928:	681b      	ldr	r3, [r3, #0]
    492a:	9a01      	ldr	r2, [sp, #4]
    492c:	605a      	str	r2, [r3, #4]
    492e:	bf00      	nop
    4930:	b002      	add	sp, #8
    4932:	4770      	bx	lr
    4934:	1fff8b20 	.word	0x1fff8b20

00004938 <Power_Ip_CM4_EnableSleepOnExit>:
    4938:	b082      	sub	sp, #8
    493a:	2300      	movs	r3, #0
    493c:	9301      	str	r3, [sp, #4]
    493e:	4b07      	ldr	r3, [pc, #28]	; (495c <Power_Ip_CM4_EnableSleepOnExit+0x24>)
    4940:	681b      	ldr	r3, [r3, #0]
    4942:	685b      	ldr	r3, [r3, #4]
    4944:	9301      	str	r3, [sp, #4]
    4946:	9b01      	ldr	r3, [sp, #4]
    4948:	f043 0302 	orr.w	r3, r3, #2
    494c:	9301      	str	r3, [sp, #4]
    494e:	4b03      	ldr	r3, [pc, #12]	; (495c <Power_Ip_CM4_EnableSleepOnExit+0x24>)
    4950:	681b      	ldr	r3, [r3, #0]
    4952:	9a01      	ldr	r2, [sp, #4]
    4954:	605a      	str	r2, [r3, #4]
    4956:	bf00      	nop
    4958:	b002      	add	sp, #8
    495a:	4770      	bx	lr
    495c:	1fff8b20 	.word	0x1fff8b20

00004960 <Power_Ip_CM4_EnableDeepSleep>:
    4960:	b082      	sub	sp, #8
    4962:	2300      	movs	r3, #0
    4964:	9301      	str	r3, [sp, #4]
    4966:	4b07      	ldr	r3, [pc, #28]	; (4984 <Power_Ip_CM4_EnableDeepSleep+0x24>)
    4968:	681b      	ldr	r3, [r3, #0]
    496a:	685b      	ldr	r3, [r3, #4]
    496c:	9301      	str	r3, [sp, #4]
    496e:	9b01      	ldr	r3, [sp, #4]
    4970:	f043 0304 	orr.w	r3, r3, #4
    4974:	9301      	str	r3, [sp, #4]
    4976:	4b03      	ldr	r3, [pc, #12]	; (4984 <Power_Ip_CM4_EnableDeepSleep+0x24>)
    4978:	681b      	ldr	r3, [r3, #0]
    497a:	9a01      	ldr	r2, [sp, #4]
    497c:	605a      	str	r2, [r3, #4]
    497e:	bf00      	nop
    4980:	b002      	add	sp, #8
    4982:	4770      	bx	lr
    4984:	1fff8b20 	.word	0x1fff8b20

00004988 <Power_Ip_CM4_DisableDeepSleep>:
    4988:	b082      	sub	sp, #8
    498a:	2300      	movs	r3, #0
    498c:	9301      	str	r3, [sp, #4]
    498e:	4b07      	ldr	r3, [pc, #28]	; (49ac <Power_Ip_CM4_DisableDeepSleep+0x24>)
    4990:	681b      	ldr	r3, [r3, #0]
    4992:	685b      	ldr	r3, [r3, #4]
    4994:	9301      	str	r3, [sp, #4]
    4996:	9b01      	ldr	r3, [sp, #4]
    4998:	f023 0304 	bic.w	r3, r3, #4
    499c:	9301      	str	r3, [sp, #4]
    499e:	4b03      	ldr	r3, [pc, #12]	; (49ac <Power_Ip_CM4_DisableDeepSleep+0x24>)
    49a0:	681b      	ldr	r3, [r3, #0]
    49a2:	9a01      	ldr	r2, [sp, #4]
    49a4:	605a      	str	r2, [r3, #4]
    49a6:	bf00      	nop
    49a8:	b002      	add	sp, #8
    49aa:	4770      	bx	lr
    49ac:	1fff8b20 	.word	0x1fff8b20

000049b0 <Power_Ip_PMC_PowerInit>:
    49b0:	b084      	sub	sp, #16
    49b2:	9001      	str	r0, [sp, #4]
    49b4:	4b20      	ldr	r3, [pc, #128]	; (4a38 <Power_Ip_PMC_PowerInit+0x88>)
    49b6:	781b      	ldrb	r3, [r3, #0]
    49b8:	f88d 300f 	strb.w	r3, [sp, #15]
    49bc:	f89d 300f 	ldrb.w	r3, [sp, #15]
    49c0:	f003 030f 	and.w	r3, r3, #15
    49c4:	f88d 300f 	strb.w	r3, [sp, #15]
    49c8:	9b01      	ldr	r3, [sp, #4]
    49ca:	781a      	ldrb	r2, [r3, #0]
    49cc:	f89d 300f 	ldrb.w	r3, [sp, #15]
    49d0:	4313      	orrs	r3, r2
    49d2:	f88d 300f 	strb.w	r3, [sp, #15]
    49d6:	4a18      	ldr	r2, [pc, #96]	; (4a38 <Power_Ip_PMC_PowerInit+0x88>)
    49d8:	f89d 300f 	ldrb.w	r3, [sp, #15]
    49dc:	7013      	strb	r3, [r2, #0]
    49de:	4b16      	ldr	r3, [pc, #88]	; (4a38 <Power_Ip_PMC_PowerInit+0x88>)
    49e0:	785b      	ldrb	r3, [r3, #1]
    49e2:	f88d 300f 	strb.w	r3, [sp, #15]
    49e6:	f89d 300f 	ldrb.w	r3, [sp, #15]
    49ea:	f003 031f 	and.w	r3, r3, #31
    49ee:	f88d 300f 	strb.w	r3, [sp, #15]
    49f2:	9b01      	ldr	r3, [sp, #4]
    49f4:	785a      	ldrb	r2, [r3, #1]
    49f6:	f89d 300f 	ldrb.w	r3, [sp, #15]
    49fa:	4313      	orrs	r3, r2
    49fc:	f88d 300f 	strb.w	r3, [sp, #15]
    4a00:	4a0d      	ldr	r2, [pc, #52]	; (4a38 <Power_Ip_PMC_PowerInit+0x88>)
    4a02:	f89d 300f 	ldrb.w	r3, [sp, #15]
    4a06:	7053      	strb	r3, [r2, #1]
    4a08:	4b0b      	ldr	r3, [pc, #44]	; (4a38 <Power_Ip_PMC_PowerInit+0x88>)
    4a0a:	789b      	ldrb	r3, [r3, #2]
    4a0c:	f88d 300f 	strb.w	r3, [sp, #15]
    4a10:	f89d 300f 	ldrb.w	r3, [sp, #15]
    4a14:	f003 0338 	and.w	r3, r3, #56	; 0x38
    4a18:	f88d 300f 	strb.w	r3, [sp, #15]
    4a1c:	9b01      	ldr	r3, [sp, #4]
    4a1e:	789a      	ldrb	r2, [r3, #2]
    4a20:	f89d 300f 	ldrb.w	r3, [sp, #15]
    4a24:	4313      	orrs	r3, r2
    4a26:	f88d 300f 	strb.w	r3, [sp, #15]
    4a2a:	4a03      	ldr	r2, [pc, #12]	; (4a38 <Power_Ip_PMC_PowerInit+0x88>)
    4a2c:	f89d 300f 	ldrb.w	r3, [sp, #15]
    4a30:	7093      	strb	r3, [r2, #2]
    4a32:	bf00      	nop
    4a34:	b004      	add	sp, #16
    4a36:	4770      	bx	lr
    4a38:	4007d000 	.word	0x4007d000

00004a3c <Power_Ip_ReportPowerErrors>:
    4a3c:	b500      	push	{lr}
    4a3e:	b083      	sub	sp, #12
    4a40:	9001      	str	r0, [sp, #4]
    4a42:	460b      	mov	r3, r1
    4a44:	f88d 3003 	strb.w	r3, [sp, #3]
    4a48:	4b05      	ldr	r3, [pc, #20]	; (4a60 <Power_Ip_ReportPowerErrors+0x24>)
    4a4a:	681b      	ldr	r3, [r3, #0]
    4a4c:	f89d 2003 	ldrb.w	r2, [sp, #3]
    4a50:	4611      	mov	r1, r2
    4a52:	9801      	ldr	r0, [sp, #4]
    4a54:	4798      	blx	r3
    4a56:	bf00      	nop
    4a58:	b003      	add	sp, #12
    4a5a:	f85d fb04 	ldr.w	pc, [sp], #4
    4a5e:	bf00      	nop
    4a60:	1fff8b1c 	.word	0x1fff8b1c

00004a64 <Power_Ip_ReportPowerErrorsEmptyCallback>:
    4a64:	b082      	sub	sp, #8
    4a66:	9001      	str	r0, [sp, #4]
    4a68:	460b      	mov	r3, r1
    4a6a:	f88d 3003 	strb.w	r3, [sp, #3]
    4a6e:	bf00      	nop
    4a70:	b002      	add	sp, #8
    4a72:	4770      	bx	lr

00004a74 <Power_Ip_StartTimeout>:
    4a74:	b500      	push	{lr}
    4a76:	b085      	sub	sp, #20
    4a78:	9003      	str	r0, [sp, #12]
    4a7a:	9102      	str	r1, [sp, #8]
    4a7c:	9201      	str	r2, [sp, #4]
    4a7e:	9300      	str	r3, [sp, #0]
    4a80:	2000      	movs	r0, #0
    4a82:	f7fc f83c 	bl	afe <OsIf_GetCounter>
    4a86:	4602      	mov	r2, r0
    4a88:	9b03      	ldr	r3, [sp, #12]
    4a8a:	601a      	str	r2, [r3, #0]
    4a8c:	9b02      	ldr	r3, [sp, #8]
    4a8e:	2200      	movs	r2, #0
    4a90:	601a      	str	r2, [r3, #0]
    4a92:	2100      	movs	r1, #0
    4a94:	9800      	ldr	r0, [sp, #0]
    4a96:	f7fc f87e 	bl	b96 <OsIf_MicrosToTicks>
    4a9a:	4602      	mov	r2, r0
    4a9c:	9b01      	ldr	r3, [sp, #4]
    4a9e:	601a      	str	r2, [r3, #0]
    4aa0:	bf00      	nop
    4aa2:	b005      	add	sp, #20
    4aa4:	f85d fb04 	ldr.w	pc, [sp], #4

00004aa8 <Power_Ip_TimeoutExpired>:
    4aa8:	b500      	push	{lr}
    4aaa:	b087      	sub	sp, #28
    4aac:	9003      	str	r0, [sp, #12]
    4aae:	9102      	str	r1, [sp, #8]
    4ab0:	9201      	str	r2, [sp, #4]
    4ab2:	2300      	movs	r3, #0
    4ab4:	f88d 3017 	strb.w	r3, [sp, #23]
    4ab8:	2100      	movs	r1, #0
    4aba:	9803      	ldr	r0, [sp, #12]
    4abc:	f7fc f838 	bl	b30 <OsIf_GetElapsed>
    4ac0:	4602      	mov	r2, r0
    4ac2:	9b02      	ldr	r3, [sp, #8]
    4ac4:	681b      	ldr	r3, [r3, #0]
    4ac6:	441a      	add	r2, r3
    4ac8:	9b02      	ldr	r3, [sp, #8]
    4aca:	601a      	str	r2, [r3, #0]
    4acc:	9b02      	ldr	r3, [sp, #8]
    4ace:	681b      	ldr	r3, [r3, #0]
    4ad0:	9a01      	ldr	r2, [sp, #4]
    4ad2:	429a      	cmp	r2, r3
    4ad4:	d802      	bhi.n	4adc <Power_Ip_TimeoutExpired+0x34>
    4ad6:	2301      	movs	r3, #1
    4ad8:	f88d 3017 	strb.w	r3, [sp, #23]
    4adc:	f89d 3017 	ldrb.w	r3, [sp, #23]
    4ae0:	4618      	mov	r0, r3
    4ae2:	b007      	add	sp, #28
    4ae4:	f85d fb04 	ldr.w	pc, [sp], #4

00004ae8 <Power_Ip_RCM_ResetInit>:
    4ae8:	b082      	sub	sp, #8
    4aea:	9001      	str	r0, [sp, #4]
    4aec:	9b01      	ldr	r3, [sp, #4]
    4aee:	681a      	ldr	r2, [r3, #0]
    4af0:	4907      	ldr	r1, [pc, #28]	; (4b10 <Power_Ip_RCM_ResetInit+0x28>)
    4af2:	f641 7307 	movw	r3, #7943	; 0x1f07
    4af6:	4013      	ands	r3, r2
    4af8:	60cb      	str	r3, [r1, #12]
    4afa:	9b01      	ldr	r3, [sp, #4]
    4afc:	685a      	ldr	r2, [r3, #4]
    4afe:	4904      	ldr	r1, [pc, #16]	; (4b10 <Power_Ip_RCM_ResetInit+0x28>)
    4b00:	f642 73ff 	movw	r3, #12287	; 0x2fff
    4b04:	4013      	ands	r3, r2
    4b06:	61cb      	str	r3, [r1, #28]
    4b08:	bf00      	nop
    4b0a:	b002      	add	sp, #8
    4b0c:	4770      	bx	lr
    4b0e:	bf00      	nop
    4b10:	4007f000 	.word	0x4007f000

00004b14 <Power_Ip_RCM_GetResetReason>:
    4b14:	b088      	sub	sp, #32
    4b16:	230c      	movs	r3, #12
    4b18:	9307      	str	r3, [sp, #28]
    4b1a:	2300      	movs	r3, #0
    4b1c:	9303      	str	r3, [sp, #12]
    4b1e:	2300      	movs	r3, #0
    4b20:	9305      	str	r3, [sp, #20]
    4b22:	2300      	movs	r3, #0
    4b24:	9304      	str	r3, [sp, #16]
    4b26:	4b25      	ldr	r3, [pc, #148]	; (4bbc <Power_Ip_RCM_GetResetReason+0xa8>)
    4b28:	699a      	ldr	r2, [r3, #24]
    4b2a:	f642 73ee 	movw	r3, #12270	; 0x2fee
    4b2e:	4013      	ands	r3, r2
    4b30:	9303      	str	r3, [sp, #12]
    4b32:	9b03      	ldr	r3, [sp, #12]
    4b34:	2b00      	cmp	r3, #0
    4b36:	d008      	beq.n	4b4a <Power_Ip_RCM_GetResetReason+0x36>
    4b38:	4920      	ldr	r1, [pc, #128]	; (4bbc <Power_Ip_RCM_GetResetReason+0xa8>)
    4b3a:	9a03      	ldr	r2, [sp, #12]
    4b3c:	f642 73ee 	movw	r3, #12270	; 0x2fee
    4b40:	4013      	ands	r3, r2
    4b42:	618b      	str	r3, [r1, #24]
    4b44:	4a1e      	ldr	r2, [pc, #120]	; (4bc0 <Power_Ip_RCM_GetResetReason+0xac>)
    4b46:	9b03      	ldr	r3, [sp, #12]
    4b48:	6013      	str	r3, [r2, #0]
    4b4a:	4b1d      	ldr	r3, [pc, #116]	; (4bc0 <Power_Ip_RCM_GetResetReason+0xac>)
    4b4c:	681b      	ldr	r3, [r3, #0]
    4b4e:	9302      	str	r3, [sp, #8]
    4b50:	9a02      	ldr	r2, [sp, #8]
    4b52:	f642 73ee 	movw	r3, #12270	; 0x2fee
    4b56:	4013      	ands	r3, r2
    4b58:	2b82      	cmp	r3, #130	; 0x82
    4b5a:	d102      	bne.n	4b62 <Power_Ip_RCM_GetResetReason+0x4e>
    4b5c:	2305      	movs	r3, #5
    4b5e:	9307      	str	r3, [sp, #28]
    4b60:	e027      	b.n	4bb2 <Power_Ip_RCM_GetResetReason+0x9e>
    4b62:	2300      	movs	r3, #0
    4b64:	9306      	str	r3, [sp, #24]
    4b66:	e021      	b.n	4bac <Power_Ip_RCM_GetResetReason+0x98>
    4b68:	f04f 4200 	mov.w	r2, #2147483648	; 0x80000000
    4b6c:	9b06      	ldr	r3, [sp, #24]
    4b6e:	fa22 f303 	lsr.w	r3, r2, r3
    4b72:	9301      	str	r3, [sp, #4]
    4b74:	9a01      	ldr	r2, [sp, #4]
    4b76:	f642 73fe 	movw	r3, #12286	; 0x2ffe
    4b7a:	4013      	ands	r3, r2
    4b7c:	2b00      	cmp	r3, #0
    4b7e:	d012      	beq.n	4ba6 <Power_Ip_RCM_GetResetReason+0x92>
    4b80:	9a01      	ldr	r2, [sp, #4]
    4b82:	9b02      	ldr	r3, [sp, #8]
    4b84:	4013      	ands	r3, r2
    4b86:	2b00      	cmp	r3, #0
    4b88:	d00a      	beq.n	4ba0 <Power_Ip_RCM_GetResetReason+0x8c>
    4b8a:	9b05      	ldr	r3, [sp, #20]
    4b8c:	9307      	str	r3, [sp, #28]
    4b8e:	9b04      	ldr	r3, [sp, #16]
    4b90:	3301      	adds	r3, #1
    4b92:	9304      	str	r3, [sp, #16]
    4b94:	9b04      	ldr	r3, [sp, #16]
    4b96:	2b01      	cmp	r3, #1
    4b98:	d902      	bls.n	4ba0 <Power_Ip_RCM_GetResetReason+0x8c>
    4b9a:	230d      	movs	r3, #13
    4b9c:	9307      	str	r3, [sp, #28]
    4b9e:	e008      	b.n	4bb2 <Power_Ip_RCM_GetResetReason+0x9e>
    4ba0:	9b05      	ldr	r3, [sp, #20]
    4ba2:	3301      	adds	r3, #1
    4ba4:	9305      	str	r3, [sp, #20]
    4ba6:	9b06      	ldr	r3, [sp, #24]
    4ba8:	3301      	adds	r3, #1
    4baa:	9306      	str	r3, [sp, #24]
    4bac:	9b06      	ldr	r3, [sp, #24]
    4bae:	2b1f      	cmp	r3, #31
    4bb0:	d9da      	bls.n	4b68 <Power_Ip_RCM_GetResetReason+0x54>
    4bb2:	9b07      	ldr	r3, [sp, #28]
    4bb4:	4618      	mov	r0, r3
    4bb6:	b008      	add	sp, #32
    4bb8:	4770      	bx	lr
    4bba:	bf00      	nop
    4bbc:	4007f000 	.word	0x4007f000
    4bc0:	1fff8cf0 	.word	0x1fff8cf0

00004bc4 <Power_Ip_RCM_GetResetRawValue>:
    4bc4:	b082      	sub	sp, #8
    4bc6:	4b0c      	ldr	r3, [pc, #48]	; (4bf8 <Power_Ip_RCM_GetResetRawValue+0x34>)
    4bc8:	699a      	ldr	r2, [r3, #24]
    4bca:	f642 73ee 	movw	r3, #12270	; 0x2fee
    4bce:	4013      	ands	r3, r2
    4bd0:	9301      	str	r3, [sp, #4]
    4bd2:	9b01      	ldr	r3, [sp, #4]
    4bd4:	2b00      	cmp	r3, #0
    4bd6:	d008      	beq.n	4bea <Power_Ip_RCM_GetResetRawValue+0x26>
    4bd8:	4907      	ldr	r1, [pc, #28]	; (4bf8 <Power_Ip_RCM_GetResetRawValue+0x34>)
    4bda:	9a01      	ldr	r2, [sp, #4]
    4bdc:	f642 73ee 	movw	r3, #12270	; 0x2fee
    4be0:	4013      	ands	r3, r2
    4be2:	618b      	str	r3, [r1, #24]
    4be4:	4a05      	ldr	r2, [pc, #20]	; (4bfc <Power_Ip_RCM_GetResetRawValue+0x38>)
    4be6:	9b01      	ldr	r3, [sp, #4]
    4be8:	6013      	str	r3, [r2, #0]
    4bea:	4b04      	ldr	r3, [pc, #16]	; (4bfc <Power_Ip_RCM_GetResetRawValue+0x38>)
    4bec:	681b      	ldr	r3, [r3, #0]
    4bee:	9300      	str	r3, [sp, #0]
    4bf0:	9b00      	ldr	r3, [sp, #0]
    4bf2:	4618      	mov	r0, r3
    4bf4:	b002      	add	sp, #8
    4bf6:	4770      	bx	lr
    4bf8:	4007f000 	.word	0x4007f000
    4bfc:	1fff8cf0 	.word	0x1fff8cf0

00004c00 <Power_Ip_SMC_AllowedModesConfig>:
    4c00:	b082      	sub	sp, #8
    4c02:	9001      	str	r0, [sp, #4]
    4c04:	9b01      	ldr	r3, [sp, #4]
    4c06:	681b      	ldr	r3, [r3, #0]
    4c08:	4a03      	ldr	r2, [pc, #12]	; (4c18 <Power_Ip_SMC_AllowedModesConfig+0x18>)
    4c0a:	f003 03a0 	and.w	r3, r3, #160	; 0xa0
    4c0e:	6093      	str	r3, [r2, #8]
    4c10:	bf00      	nop
    4c12:	b002      	add	sp, #8
    4c14:	4770      	bx	lr
    4c16:	bf00      	nop
    4c18:	4007e000 	.word	0x4007e000

00004c1c <Power_Ip_SMC_ModeCheckEntry>:
    4c1c:	b084      	sub	sp, #16
    4c1e:	9001      	str	r0, [sp, #4]
    4c20:	2301      	movs	r3, #1
    4c22:	9303      	str	r3, [sp, #12]
    4c24:	4b15      	ldr	r3, [pc, #84]	; (4c7c <Power_Ip_SMC_ModeCheckEntry+0x60>)
    4c26:	695b      	ldr	r3, [r3, #20]
    4c28:	b2db      	uxtb	r3, r3
    4c2a:	9302      	str	r3, [sp, #8]
    4c2c:	9b01      	ldr	r3, [sp, #4]
    4c2e:	2b02      	cmp	r3, #2
    4c30:	d012      	beq.n	4c58 <Power_Ip_SMC_ModeCheckEntry+0x3c>
    4c32:	9b01      	ldr	r3, [sp, #4]
    4c34:	2b02      	cmp	r3, #2
    4c36:	d818      	bhi.n	4c6a <Power_Ip_SMC_ModeCheckEntry+0x4e>
    4c38:	9b01      	ldr	r3, [sp, #4]
    4c3a:	2b00      	cmp	r3, #0
    4c3c:	d003      	beq.n	4c46 <Power_Ip_SMC_ModeCheckEntry+0x2a>
    4c3e:	9b01      	ldr	r3, [sp, #4]
    4c40:	2b01      	cmp	r3, #1
    4c42:	d003      	beq.n	4c4c <Power_Ip_SMC_ModeCheckEntry+0x30>
    4c44:	e011      	b.n	4c6a <Power_Ip_SMC_ModeCheckEntry+0x4e>
    4c46:	2300      	movs	r3, #0
    4c48:	9303      	str	r3, [sp, #12]
    4c4a:	e013      	b.n	4c74 <Power_Ip_SMC_ModeCheckEntry+0x58>
    4c4c:	9b02      	ldr	r3, [sp, #8]
    4c4e:	2b01      	cmp	r3, #1
    4c50:	d10d      	bne.n	4c6e <Power_Ip_SMC_ModeCheckEntry+0x52>
    4c52:	2300      	movs	r3, #0
    4c54:	9303      	str	r3, [sp, #12]
    4c56:	e00a      	b.n	4c6e <Power_Ip_SMC_ModeCheckEntry+0x52>
    4c58:	9b02      	ldr	r3, [sp, #8]
    4c5a:	2b01      	cmp	r3, #1
    4c5c:	d002      	beq.n	4c64 <Power_Ip_SMC_ModeCheckEntry+0x48>
    4c5e:	9b02      	ldr	r3, [sp, #8]
    4c60:	2b10      	cmp	r3, #16
    4c62:	d106      	bne.n	4c72 <Power_Ip_SMC_ModeCheckEntry+0x56>
    4c64:	2300      	movs	r3, #0
    4c66:	9303      	str	r3, [sp, #12]
    4c68:	e003      	b.n	4c72 <Power_Ip_SMC_ModeCheckEntry+0x56>
    4c6a:	bf00      	nop
    4c6c:	e002      	b.n	4c74 <Power_Ip_SMC_ModeCheckEntry+0x58>
    4c6e:	bf00      	nop
    4c70:	e000      	b.n	4c74 <Power_Ip_SMC_ModeCheckEntry+0x58>
    4c72:	bf00      	nop
    4c74:	9b03      	ldr	r3, [sp, #12]
    4c76:	4618      	mov	r0, r3
    4c78:	b004      	add	sp, #16
    4c7a:	4770      	bx	lr
    4c7c:	4007e000 	.word	0x4007e000

00004c80 <Power_Ip_SMC_ModeConfig>:
    4c80:	b500      	push	{lr}
    4c82:	b08b      	sub	sp, #44	; 0x2c
    4c84:	9001      	str	r0, [sp, #4]
    4c86:	2300      	movs	r3, #0
    4c88:	9309      	str	r3, [sp, #36]	; 0x24
    4c8a:	2300      	movs	r3, #0
    4c8c:	9308      	str	r3, [sp, #32]
    4c8e:	2300      	movs	r3, #0
    4c90:	f88d 301f 	strb.w	r3, [sp, #31]
    4c94:	9b01      	ldr	r3, [sp, #4]
    4c96:	685b      	ldr	r3, [r3, #4]
    4c98:	9308      	str	r3, [sp, #32]
    4c9a:	9b08      	ldr	r3, [sp, #32]
    4c9c:	2b02      	cmp	r3, #2
    4c9e:	d076      	beq.n	4d8e <Power_Ip_SMC_ModeConfig+0x10e>
    4ca0:	9b08      	ldr	r3, [sp, #32]
    4ca2:	2b02      	cmp	r3, #2
    4ca4:	f200 80ab 	bhi.w	4dfe <Power_Ip_SMC_ModeConfig+0x17e>
    4ca8:	9b08      	ldr	r3, [sp, #32]
    4caa:	2b00      	cmp	r3, #0
    4cac:	d003      	beq.n	4cb6 <Power_Ip_SMC_ModeConfig+0x36>
    4cae:	9b08      	ldr	r3, [sp, #32]
    4cb0:	2b01      	cmp	r3, #1
    4cb2:	d034      	beq.n	4d1e <Power_Ip_SMC_ModeConfig+0x9e>
    4cb4:	e0a3      	b.n	4dfe <Power_Ip_SMC_ModeConfig+0x17e>
    4cb6:	4b58      	ldr	r3, [pc, #352]	; (4e18 <Power_Ip_SMC_ModeConfig+0x198>)
    4cb8:	68db      	ldr	r3, [r3, #12]
    4cba:	9306      	str	r3, [sp, #24]
    4cbc:	9b06      	ldr	r3, [sp, #24]
    4cbe:	f023 0360 	bic.w	r3, r3, #96	; 0x60
    4cc2:	9306      	str	r3, [sp, #24]
    4cc4:	4a54      	ldr	r2, [pc, #336]	; (4e18 <Power_Ip_SMC_ModeConfig+0x198>)
    4cc6:	9b06      	ldr	r3, [sp, #24]
    4cc8:	60d3      	str	r3, [r2, #12]
    4cca:	aa02      	add	r2, sp, #8
    4ccc:	a903      	add	r1, sp, #12
    4cce:	a804      	add	r0, sp, #16
    4cd0:	f24c 3350 	movw	r3, #50000	; 0xc350
    4cd4:	f7ff fece 	bl	4a74 <Power_Ip_StartTimeout>
    4cd8:	9a02      	ldr	r2, [sp, #8]
    4cda:	a903      	add	r1, sp, #12
    4cdc:	ab04      	add	r3, sp, #16
    4cde:	4618      	mov	r0, r3
    4ce0:	f7ff fee2 	bl	4aa8 <Power_Ip_TimeoutExpired>
    4ce4:	4603      	mov	r3, r0
    4ce6:	f88d 301f 	strb.w	r3, [sp, #31]
    4cea:	4b4b      	ldr	r3, [pc, #300]	; (4e18 <Power_Ip_SMC_ModeConfig+0x198>)
    4cec:	695b      	ldr	r3, [r3, #20]
    4cee:	f003 0301 	and.w	r3, r3, #1
    4cf2:	9305      	str	r3, [sp, #20]
    4cf4:	9b05      	ldr	r3, [sp, #20]
    4cf6:	2b01      	cmp	r3, #1
    4cf8:	d006      	beq.n	4d08 <Power_Ip_SMC_ModeConfig+0x88>
    4cfa:	f89d 301f 	ldrb.w	r3, [sp, #31]
    4cfe:	f083 0301 	eor.w	r3, r3, #1
    4d02:	b2db      	uxtb	r3, r3
    4d04:	2b00      	cmp	r3, #0
    4d06:	d1e7      	bne.n	4cd8 <Power_Ip_SMC_ModeConfig+0x58>
    4d08:	f89d 301f 	ldrb.w	r3, [sp, #31]
    4d0c:	2b00      	cmp	r3, #0
    4d0e:	d079      	beq.n	4e04 <Power_Ip_SMC_ModeConfig+0x184>
    4d10:	2301      	movs	r3, #1
    4d12:	9309      	str	r3, [sp, #36]	; 0x24
    4d14:	21ff      	movs	r1, #255	; 0xff
    4d16:	2000      	movs	r0, #0
    4d18:	f7ff fe90 	bl	4a3c <Power_Ip_ReportPowerErrors>
    4d1c:	e072      	b.n	4e04 <Power_Ip_SMC_ModeConfig+0x184>
    4d1e:	4b3e      	ldr	r3, [pc, #248]	; (4e18 <Power_Ip_SMC_ModeConfig+0x198>)
    4d20:	68db      	ldr	r3, [r3, #12]
    4d22:	9306      	str	r3, [sp, #24]
    4d24:	9b06      	ldr	r3, [sp, #24]
    4d26:	f023 0360 	bic.w	r3, r3, #96	; 0x60
    4d2a:	9306      	str	r3, [sp, #24]
    4d2c:	9b06      	ldr	r3, [sp, #24]
    4d2e:	f043 0360 	orr.w	r3, r3, #96	; 0x60
    4d32:	9306      	str	r3, [sp, #24]
    4d34:	4a38      	ldr	r2, [pc, #224]	; (4e18 <Power_Ip_SMC_ModeConfig+0x198>)
    4d36:	9b06      	ldr	r3, [sp, #24]
    4d38:	60d3      	str	r3, [r2, #12]
    4d3a:	aa02      	add	r2, sp, #8
    4d3c:	a903      	add	r1, sp, #12
    4d3e:	a804      	add	r0, sp, #16
    4d40:	f24c 3350 	movw	r3, #50000	; 0xc350
    4d44:	f7ff fe96 	bl	4a74 <Power_Ip_StartTimeout>
    4d48:	9a02      	ldr	r2, [sp, #8]
    4d4a:	a903      	add	r1, sp, #12
    4d4c:	ab04      	add	r3, sp, #16
    4d4e:	4618      	mov	r0, r3
    4d50:	f7ff feaa 	bl	4aa8 <Power_Ip_TimeoutExpired>
    4d54:	4603      	mov	r3, r0
    4d56:	f88d 301f 	strb.w	r3, [sp, #31]
    4d5a:	4b2f      	ldr	r3, [pc, #188]	; (4e18 <Power_Ip_SMC_ModeConfig+0x198>)
    4d5c:	695b      	ldr	r3, [r3, #20]
    4d5e:	f003 0380 	and.w	r3, r3, #128	; 0x80
    4d62:	9305      	str	r3, [sp, #20]
    4d64:	9b05      	ldr	r3, [sp, #20]
    4d66:	2b80      	cmp	r3, #128	; 0x80
    4d68:	d006      	beq.n	4d78 <Power_Ip_SMC_ModeConfig+0xf8>
    4d6a:	f89d 301f 	ldrb.w	r3, [sp, #31]
    4d6e:	f083 0301 	eor.w	r3, r3, #1
    4d72:	b2db      	uxtb	r3, r3
    4d74:	2b00      	cmp	r3, #0
    4d76:	d1e7      	bne.n	4d48 <Power_Ip_SMC_ModeConfig+0xc8>
    4d78:	f89d 301f 	ldrb.w	r3, [sp, #31]
    4d7c:	2b00      	cmp	r3, #0
    4d7e:	d043      	beq.n	4e08 <Power_Ip_SMC_ModeConfig+0x188>
    4d80:	2301      	movs	r3, #1
    4d82:	9309      	str	r3, [sp, #36]	; 0x24
    4d84:	21ff      	movs	r1, #255	; 0xff
    4d86:	2000      	movs	r0, #0
    4d88:	f7ff fe58 	bl	4a3c <Power_Ip_ReportPowerErrors>
    4d8c:	e03c      	b.n	4e08 <Power_Ip_SMC_ModeConfig+0x188>
    4d8e:	4b22      	ldr	r3, [pc, #136]	; (4e18 <Power_Ip_SMC_ModeConfig+0x198>)
    4d90:	68db      	ldr	r3, [r3, #12]
    4d92:	9306      	str	r3, [sp, #24]
    4d94:	9b06      	ldr	r3, [sp, #24]
    4d96:	f023 0360 	bic.w	r3, r3, #96	; 0x60
    4d9a:	9306      	str	r3, [sp, #24]
    4d9c:	9b06      	ldr	r3, [sp, #24]
    4d9e:	f043 0340 	orr.w	r3, r3, #64	; 0x40
    4da2:	9306      	str	r3, [sp, #24]
    4da4:	4a1c      	ldr	r2, [pc, #112]	; (4e18 <Power_Ip_SMC_ModeConfig+0x198>)
    4da6:	9b06      	ldr	r3, [sp, #24]
    4da8:	60d3      	str	r3, [r2, #12]
    4daa:	aa02      	add	r2, sp, #8
    4dac:	a903      	add	r1, sp, #12
    4dae:	a804      	add	r0, sp, #16
    4db0:	f24c 3350 	movw	r3, #50000	; 0xc350
    4db4:	f7ff fe5e 	bl	4a74 <Power_Ip_StartTimeout>
    4db8:	9a02      	ldr	r2, [sp, #8]
    4dba:	a903      	add	r1, sp, #12
    4dbc:	ab04      	add	r3, sp, #16
    4dbe:	4618      	mov	r0, r3
    4dc0:	f7ff fe72 	bl	4aa8 <Power_Ip_TimeoutExpired>
    4dc4:	4603      	mov	r3, r0
    4dc6:	f88d 301f 	strb.w	r3, [sp, #31]
    4dca:	4b13      	ldr	r3, [pc, #76]	; (4e18 <Power_Ip_SMC_ModeConfig+0x198>)
    4dcc:	695b      	ldr	r3, [r3, #20]
    4dce:	f003 0304 	and.w	r3, r3, #4
    4dd2:	9305      	str	r3, [sp, #20]
    4dd4:	9b05      	ldr	r3, [sp, #20]
    4dd6:	2b04      	cmp	r3, #4
    4dd8:	d006      	beq.n	4de8 <Power_Ip_SMC_ModeConfig+0x168>
    4dda:	f89d 301f 	ldrb.w	r3, [sp, #31]
    4dde:	f083 0301 	eor.w	r3, r3, #1
    4de2:	b2db      	uxtb	r3, r3
    4de4:	2b00      	cmp	r3, #0
    4de6:	d1e7      	bne.n	4db8 <Power_Ip_SMC_ModeConfig+0x138>
    4de8:	f89d 301f 	ldrb.w	r3, [sp, #31]
    4dec:	2b00      	cmp	r3, #0
    4dee:	d00d      	beq.n	4e0c <Power_Ip_SMC_ModeConfig+0x18c>
    4df0:	2301      	movs	r3, #1
    4df2:	9309      	str	r3, [sp, #36]	; 0x24
    4df4:	21ff      	movs	r1, #255	; 0xff
    4df6:	2000      	movs	r0, #0
    4df8:	f7ff fe20 	bl	4a3c <Power_Ip_ReportPowerErrors>
    4dfc:	e006      	b.n	4e0c <Power_Ip_SMC_ModeConfig+0x18c>
    4dfe:	2301      	movs	r3, #1
    4e00:	9309      	str	r3, [sp, #36]	; 0x24
    4e02:	e004      	b.n	4e0e <Power_Ip_SMC_ModeConfig+0x18e>
    4e04:	bf00      	nop
    4e06:	e002      	b.n	4e0e <Power_Ip_SMC_ModeConfig+0x18e>
    4e08:	bf00      	nop
    4e0a:	e000      	b.n	4e0e <Power_Ip_SMC_ModeConfig+0x18e>
    4e0c:	bf00      	nop
    4e0e:	9b09      	ldr	r3, [sp, #36]	; 0x24
    4e10:	4618      	mov	r0, r3
    4e12:	b00b      	add	sp, #44	; 0x2c
    4e14:	f85d fb04 	ldr.w	pc, [sp], #4
    4e18:	4007e000 	.word	0x4007e000

00004e1c <Port_Init>:
    4e1c:	b500      	push	{lr}
    4e1e:	b085      	sub	sp, #20
    4e20:	9001      	str	r0, [sp, #4]
    4e22:	9b01      	ldr	r3, [sp, #4]
    4e24:	9303      	str	r3, [sp, #12]
    4e26:	9803      	ldr	r0, [sp, #12]
    4e28:	f000 fbc8 	bl	55bc <Port_Ipw_Init>
    4e2c:	4a03      	ldr	r2, [pc, #12]	; (4e3c <Port_Init+0x20>)
    4e2e:	9b03      	ldr	r3, [sp, #12]
    4e30:	6013      	str	r3, [r2, #0]
    4e32:	bf00      	nop
    4e34:	b005      	add	sp, #20
    4e36:	f85d fb04 	ldr.w	pc, [sp], #4
    4e3a:	bf00      	nop
    4e3c:	1fff8cf4 	.word	0x1fff8cf4

00004e40 <Port_RefreshPortDirection>:
    4e40:	b508      	push	{r3, lr}
    4e42:	4b03      	ldr	r3, [pc, #12]	; (4e50 <Port_RefreshPortDirection+0x10>)
    4e44:	681b      	ldr	r3, [r3, #0]
    4e46:	4618      	mov	r0, r3
    4e48:	f000 fc10 	bl	566c <Port_Ipw_RefreshPortDirection>
    4e4c:	bf00      	nop
    4e4e:	bd08      	pop	{r3, pc}
    4e50:	1fff8cf4 	.word	0x1fff8cf4

00004e54 <Port_Ci_Port_Ip_GetAdcInterleaveVal>:
    4e54:	b086      	sub	sp, #24
    4e56:	9003      	str	r0, [sp, #12]
    4e58:	9102      	str	r1, [sp, #8]
    4e5a:	9201      	str	r2, [sp, #4]
    4e5c:	23ff      	movs	r3, #255	; 0xff
    4e5e:	9305      	str	r3, [sp, #20]
    4e60:	9b03      	ldr	r3, [sp, #12]
    4e62:	4a39      	ldr	r2, [pc, #228]	; (4f48 <Port_Ci_Port_Ip_GetAdcInterleaveVal+0xf4>)
    4e64:	4293      	cmp	r3, r2
    4e66:	d151      	bne.n	4f0c <Port_Ci_Port_Ip_GetAdcInterleaveVal+0xb8>
    4e68:	9b02      	ldr	r3, [sp, #8]
    4e6a:	2b10      	cmp	r3, #16
    4e6c:	d867      	bhi.n	4f3e <Port_Ci_Port_Ip_GetAdcInterleaveVal+0xea>
    4e6e:	a201      	add	r2, pc, #4	; (adr r2, 4e74 <Port_Ci_Port_Ip_GetAdcInterleaveVal+0x20>)
    4e70:	f852 f023 	ldr.w	pc, [r2, r3, lsl #2]
    4e74:	00004eb9 	.word	0x00004eb9
    4e78:	00004ec7 	.word	0x00004ec7
    4e7c:	00004f3f 	.word	0x00004f3f
    4e80:	00004f3f 	.word	0x00004f3f
    4e84:	00004f3f 	.word	0x00004f3f
    4e88:	00004f3f 	.word	0x00004f3f
    4e8c:	00004f3f 	.word	0x00004f3f
    4e90:	00004f3f 	.word	0x00004f3f
    4e94:	00004f3f 	.word	0x00004f3f
    4e98:	00004f3f 	.word	0x00004f3f
    4e9c:	00004f3f 	.word	0x00004f3f
    4ea0:	00004f3f 	.word	0x00004f3f
    4ea4:	00004f3f 	.word	0x00004f3f
    4ea8:	00004ed5 	.word	0x00004ed5
    4eac:	00004ee3 	.word	0x00004ee3
    4eb0:	00004ef1 	.word	0x00004ef1
    4eb4:	00004eff 	.word	0x00004eff
    4eb8:	2301      	movs	r3, #1
    4eba:	9305      	str	r3, [sp, #20]
    4ebc:	9a05      	ldr	r2, [sp, #20]
    4ebe:	9b01      	ldr	r3, [sp, #4]
    4ec0:	4313      	orrs	r3, r2
    4ec2:	9305      	str	r3, [sp, #20]
    4ec4:	e03c      	b.n	4f40 <Port_Ci_Port_Ip_GetAdcInterleaveVal+0xec>
    4ec6:	2302      	movs	r3, #2
    4ec8:	9305      	str	r3, [sp, #20]
    4eca:	9a05      	ldr	r2, [sp, #20]
    4ecc:	9b01      	ldr	r3, [sp, #4]
    4ece:	4313      	orrs	r3, r2
    4ed0:	9305      	str	r3, [sp, #20]
    4ed2:	e035      	b.n	4f40 <Port_Ci_Port_Ip_GetAdcInterleaveVal+0xec>
    4ed4:	2304      	movs	r3, #4
    4ed6:	9305      	str	r3, [sp, #20]
    4ed8:	9a05      	ldr	r2, [sp, #20]
    4eda:	9b01      	ldr	r3, [sp, #4]
    4edc:	4313      	orrs	r3, r2
    4ede:	9305      	str	r3, [sp, #20]
    4ee0:	e02e      	b.n	4f40 <Port_Ci_Port_Ip_GetAdcInterleaveVal+0xec>
    4ee2:	2308      	movs	r3, #8
    4ee4:	9305      	str	r3, [sp, #20]
    4ee6:	9a05      	ldr	r2, [sp, #20]
    4ee8:	9b01      	ldr	r3, [sp, #4]
    4eea:	4313      	orrs	r3, r2
    4eec:	9305      	str	r3, [sp, #20]
    4eee:	e027      	b.n	4f40 <Port_Ci_Port_Ip_GetAdcInterleaveVal+0xec>
    4ef0:	230e      	movs	r3, #14
    4ef2:	9305      	str	r3, [sp, #20]
    4ef4:	9a05      	ldr	r2, [sp, #20]
    4ef6:	9b01      	ldr	r3, [sp, #4]
    4ef8:	4013      	ands	r3, r2
    4efa:	9305      	str	r3, [sp, #20]
    4efc:	e020      	b.n	4f40 <Port_Ci_Port_Ip_GetAdcInterleaveVal+0xec>
    4efe:	230d      	movs	r3, #13
    4f00:	9305      	str	r3, [sp, #20]
    4f02:	9a05      	ldr	r2, [sp, #20]
    4f04:	9b01      	ldr	r3, [sp, #4]
    4f06:	4013      	ands	r3, r2
    4f08:	9305      	str	r3, [sp, #20]
    4f0a:	e019      	b.n	4f40 <Port_Ci_Port_Ip_GetAdcInterleaveVal+0xec>
    4f0c:	9b03      	ldr	r3, [sp, #12]
    4f0e:	4a0f      	ldr	r2, [pc, #60]	; (4f4c <Port_Ci_Port_Ip_GetAdcInterleaveVal+0xf8>)
    4f10:	4293      	cmp	r3, r2
    4f12:	d115      	bne.n	4f40 <Port_Ci_Port_Ip_GetAdcInterleaveVal+0xec>
    4f14:	9b02      	ldr	r3, [sp, #8]
    4f16:	2b00      	cmp	r3, #0
    4f18:	d003      	beq.n	4f22 <Port_Ci_Port_Ip_GetAdcInterleaveVal+0xce>
    4f1a:	9b02      	ldr	r3, [sp, #8]
    4f1c:	2b01      	cmp	r3, #1
    4f1e:	d007      	beq.n	4f30 <Port_Ci_Port_Ip_GetAdcInterleaveVal+0xdc>
    4f20:	e00e      	b.n	4f40 <Port_Ci_Port_Ip_GetAdcInterleaveVal+0xec>
    4f22:	230b      	movs	r3, #11
    4f24:	9305      	str	r3, [sp, #20]
    4f26:	9a05      	ldr	r2, [sp, #20]
    4f28:	9b01      	ldr	r3, [sp, #4]
    4f2a:	4013      	ands	r3, r2
    4f2c:	9305      	str	r3, [sp, #20]
    4f2e:	e007      	b.n	4f40 <Port_Ci_Port_Ip_GetAdcInterleaveVal+0xec>
    4f30:	2307      	movs	r3, #7
    4f32:	9305      	str	r3, [sp, #20]
    4f34:	9a05      	ldr	r2, [sp, #20]
    4f36:	9b01      	ldr	r3, [sp, #4]
    4f38:	4013      	ands	r3, r2
    4f3a:	9305      	str	r3, [sp, #20]
    4f3c:	e000      	b.n	4f40 <Port_Ci_Port_Ip_GetAdcInterleaveVal+0xec>
    4f3e:	bf00      	nop
    4f40:	9b05      	ldr	r3, [sp, #20]
    4f42:	4618      	mov	r0, r3
    4f44:	b006      	add	sp, #24
    4f46:	4770      	bx	lr
    4f48:	4004a000 	.word	0x4004a000
    4f4c:	4004b000 	.word	0x4004b000

00004f50 <Port_Ci_Port_Ip_ConfigureInterleave>:
    4f50:	b500      	push	{lr}
    4f52:	b089      	sub	sp, #36	; 0x24
    4f54:	9003      	str	r0, [sp, #12]
    4f56:	9102      	str	r1, [sp, #8]
    4f58:	9201      	str	r2, [sp, #4]
    4f5a:	9b01      	ldr	r3, [sp, #4]
    4f5c:	9307      	str	r3, [sp, #28]
    4f5e:	9b01      	ldr	r3, [sp, #4]
    4f60:	2b08      	cmp	r3, #8
    4f62:	d121      	bne.n	4fa8 <Port_Ci_Port_Ip_ConfigureInterleave+0x58>
    4f64:	4b13      	ldr	r3, [pc, #76]	; (4fb4 <Port_Ci_Port_Ip_ConfigureInterleave+0x64>)
    4f66:	685b      	ldr	r3, [r3, #4]
    4f68:	f003 030f 	and.w	r3, r3, #15
    4f6c:	9306      	str	r3, [sp, #24]
    4f6e:	9a06      	ldr	r2, [sp, #24]
    4f70:	9902      	ldr	r1, [sp, #8]
    4f72:	9803      	ldr	r0, [sp, #12]
    4f74:	f7ff ff6e 	bl	4e54 <Port_Ci_Port_Ip_GetAdcInterleaveVal>
    4f78:	9005      	str	r0, [sp, #20]
    4f7a:	9b05      	ldr	r3, [sp, #20]
    4f7c:	2bff      	cmp	r3, #255	; 0xff
    4f7e:	d011      	beq.n	4fa4 <Port_Ci_Port_Ip_ConfigureInterleave+0x54>
    4f80:	f003 ff54 	bl	8e2c <SchM_Enter_Port_PORT_EXCLUSIVE_AREA_05>
    4f84:	4b0b      	ldr	r3, [pc, #44]	; (4fb4 <Port_Ci_Port_Ip_ConfigureInterleave+0x64>)
    4f86:	685b      	ldr	r3, [r3, #4]
    4f88:	4a0a      	ldr	r2, [pc, #40]	; (4fb4 <Port_Ci_Port_Ip_ConfigureInterleave+0x64>)
    4f8a:	f023 030f 	bic.w	r3, r3, #15
    4f8e:	6053      	str	r3, [r2, #4]
    4f90:	4b08      	ldr	r3, [pc, #32]	; (4fb4 <Port_Ci_Port_Ip_ConfigureInterleave+0x64>)
    4f92:	685a      	ldr	r2, [r3, #4]
    4f94:	9b05      	ldr	r3, [sp, #20]
    4f96:	f003 030f 	and.w	r3, r3, #15
    4f9a:	4906      	ldr	r1, [pc, #24]	; (4fb4 <Port_Ci_Port_Ip_ConfigureInterleave+0x64>)
    4f9c:	4313      	orrs	r3, r2
    4f9e:	604b      	str	r3, [r1, #4]
    4fa0:	f003 ff70 	bl	8e84 <SchM_Exit_Port_PORT_EXCLUSIVE_AREA_05>
    4fa4:	2300      	movs	r3, #0
    4fa6:	9307      	str	r3, [sp, #28]
    4fa8:	9b07      	ldr	r3, [sp, #28]
    4faa:	4618      	mov	r0, r3
    4fac:	b009      	add	sp, #36	; 0x24
    4fae:	f85d fb04 	ldr.w	pc, [sp], #4
    4fb2:	bf00      	nop
    4fb4:	40048000 	.word	0x40048000

00004fb8 <Port_Ci_Port_Ip_PinInit>:
    4fb8:	b500      	push	{lr}
    4fba:	b087      	sub	sp, #28
    4fbc:	9001      	str	r0, [sp, #4]
    4fbe:	2300      	movs	r3, #0
    4fc0:	9305      	str	r3, [sp, #20]
    4fc2:	2300      	movs	r3, #0
    4fc4:	9304      	str	r3, [sp, #16]
    4fc6:	2300      	movs	r3, #0
    4fc8:	9303      	str	r3, [sp, #12]
    4fca:	9b01      	ldr	r3, [sp, #4]
    4fcc:	68db      	ldr	r3, [r3, #12]
    4fce:	2b02      	cmp	r3, #2
    4fd0:	d00a      	beq.n	4fe8 <Port_Ci_Port_Ip_PinInit+0x30>
    4fd2:	9b05      	ldr	r3, [sp, #20]
    4fd4:	f043 0302 	orr.w	r3, r3, #2
    4fd8:	9305      	str	r3, [sp, #20]
    4fda:	9b01      	ldr	r3, [sp, #4]
    4fdc:	68db      	ldr	r3, [r3, #12]
    4fde:	f003 0301 	and.w	r3, r3, #1
    4fe2:	9a05      	ldr	r2, [sp, #20]
    4fe4:	4313      	orrs	r3, r2
    4fe6:	9305      	str	r3, [sp, #20]
    4fe8:	9b01      	ldr	r3, [sp, #4]
    4fea:	699b      	ldr	r3, [r3, #24]
    4fec:	019b      	lsls	r3, r3, #6
    4fee:	f003 0340 	and.w	r3, r3, #64	; 0x40
    4ff2:	9a05      	ldr	r2, [sp, #20]
    4ff4:	4313      	orrs	r3, r2
    4ff6:	9305      	str	r3, [sp, #20]
    4ff8:	9b01      	ldr	r3, [sp, #4]
    4ffa:	6a1b      	ldr	r3, [r3, #32]
    4ffc:	03db      	lsls	r3, r3, #15
    4ffe:	b29b      	uxth	r3, r3
    5000:	9a05      	ldr	r2, [sp, #20]
    5002:	4313      	orrs	r3, r2
    5004:	9305      	str	r3, [sp, #20]
    5006:	9b01      	ldr	r3, [sp, #4]
    5008:	7f1b      	ldrb	r3, [r3, #28]
    500a:	2b00      	cmp	r3, #0
    500c:	d001      	beq.n	5012 <Port_Ci_Port_Ip_PinInit+0x5a>
    500e:	2310      	movs	r3, #16
    5010:	e000      	b.n	5014 <Port_Ci_Port_Ip_PinInit+0x5c>
    5012:	2300      	movs	r3, #0
    5014:	9a05      	ldr	r2, [sp, #20]
    5016:	4313      	orrs	r3, r2
    5018:	9305      	str	r3, [sp, #20]
    501a:	9b01      	ldr	r3, [sp, #4]
    501c:	691b      	ldr	r3, [r3, #16]
    501e:	9304      	str	r3, [sp, #16]
    5020:	9b01      	ldr	r3, [sp, #4]
    5022:	6818      	ldr	r0, [r3, #0]
    5024:	9b01      	ldr	r3, [sp, #4]
    5026:	689b      	ldr	r3, [r3, #8]
    5028:	9a04      	ldr	r2, [sp, #16]
    502a:	4619      	mov	r1, r3
    502c:	f7ff ff90 	bl	4f50 <Port_Ci_Port_Ip_ConfigureInterleave>
    5030:	9003      	str	r0, [sp, #12]
    5032:	9b03      	ldr	r3, [sp, #12]
    5034:	9304      	str	r3, [sp, #16]
    5036:	9b04      	ldr	r3, [sp, #16]
    5038:	021b      	lsls	r3, r3, #8
    503a:	f403 63e0 	and.w	r3, r3, #1792	; 0x700
    503e:	9a05      	ldr	r2, [sp, #20]
    5040:	4313      	orrs	r3, r2
    5042:	9305      	str	r3, [sp, #20]
    5044:	f003 fd58 	bl	8af8 <SchM_Enter_Port_PORT_EXCLUSIVE_AREA_00>
    5048:	9b01      	ldr	r3, [sp, #4]
    504a:	681b      	ldr	r3, [r3, #0]
    504c:	f8d3 30c0 	ldr.w	r3, [r3, #192]	; 0xc0
    5050:	9302      	str	r3, [sp, #8]
    5052:	9b01      	ldr	r3, [sp, #4]
    5054:	689b      	ldr	r3, [r3, #8]
    5056:	2201      	movs	r2, #1
    5058:	fa02 f303 	lsl.w	r3, r2, r3
    505c:	43db      	mvns	r3, r3
    505e:	9a02      	ldr	r2, [sp, #8]
    5060:	4013      	ands	r3, r2
    5062:	9302      	str	r3, [sp, #8]
    5064:	9b01      	ldr	r3, [sp, #4]
    5066:	f893 3024 	ldrb.w	r3, [r3, #36]	; 0x24
    506a:	2b00      	cmp	r3, #0
    506c:	d001      	beq.n	5072 <Port_Ci_Port_Ip_PinInit+0xba>
    506e:	2201      	movs	r2, #1
    5070:	e000      	b.n	5074 <Port_Ci_Port_Ip_PinInit+0xbc>
    5072:	2200      	movs	r2, #0
    5074:	9b01      	ldr	r3, [sp, #4]
    5076:	689b      	ldr	r3, [r3, #8]
    5078:	fa02 f303 	lsl.w	r3, r2, r3
    507c:	9a02      	ldr	r2, [sp, #8]
    507e:	4313      	orrs	r3, r2
    5080:	9302      	str	r3, [sp, #8]
    5082:	9b01      	ldr	r3, [sp, #4]
    5084:	681b      	ldr	r3, [r3, #0]
    5086:	9a02      	ldr	r2, [sp, #8]
    5088:	f8c3 20c0 	str.w	r2, [r3, #192]	; 0xc0
    508c:	f003 fd60 	bl	8b50 <SchM_Exit_Port_PORT_EXCLUSIVE_AREA_00>
    5090:	9b04      	ldr	r3, [sp, #16]
    5092:	2b01      	cmp	r3, #1
    5094:	d16d      	bne.n	5172 <Port_Ci_Port_Ip_PinInit+0x1ba>
    5096:	9b01      	ldr	r3, [sp, #4]
    5098:	695b      	ldr	r3, [r3, #20]
    509a:	2b02      	cmp	r3, #2
    509c:	d138      	bne.n	5110 <Port_Ci_Port_Ip_PinInit+0x158>
    509e:	9b01      	ldr	r3, [sp, #4]
    50a0:	f893 3025 	ldrb.w	r3, [r3, #37]	; 0x25
    50a4:	2b01      	cmp	r3, #1
    50a6:	d10f      	bne.n	50c8 <Port_Ci_Port_Ip_PinInit+0x110>
    50a8:	f003 fd78 	bl	8b9c <SchM_Enter_Port_PORT_EXCLUSIVE_AREA_01>
    50ac:	9b01      	ldr	r3, [sp, #4]
    50ae:	685b      	ldr	r3, [r3, #4]
    50b0:	6859      	ldr	r1, [r3, #4]
    50b2:	9b01      	ldr	r3, [sp, #4]
    50b4:	689b      	ldr	r3, [r3, #8]
    50b6:	2201      	movs	r2, #1
    50b8:	409a      	lsls	r2, r3
    50ba:	9b01      	ldr	r3, [sp, #4]
    50bc:	685b      	ldr	r3, [r3, #4]
    50be:	430a      	orrs	r2, r1
    50c0:	605a      	str	r2, [r3, #4]
    50c2:	f003 fd97 	bl	8bf4 <SchM_Exit_Port_PORT_EXCLUSIVE_AREA_01>
    50c6:	e013      	b.n	50f0 <Port_Ci_Port_Ip_PinInit+0x138>
    50c8:	9b01      	ldr	r3, [sp, #4]
    50ca:	f893 3025 	ldrb.w	r3, [r3, #37]	; 0x25
    50ce:	2b00      	cmp	r3, #0
    50d0:	d10e      	bne.n	50f0 <Port_Ci_Port_Ip_PinInit+0x138>
    50d2:	f003 fdb5 	bl	8c40 <SchM_Enter_Port_PORT_EXCLUSIVE_AREA_02>
    50d6:	9b01      	ldr	r3, [sp, #4]
    50d8:	685b      	ldr	r3, [r3, #4]
    50da:	6899      	ldr	r1, [r3, #8]
    50dc:	9b01      	ldr	r3, [sp, #4]
    50de:	689b      	ldr	r3, [r3, #8]
    50e0:	2201      	movs	r2, #1
    50e2:	409a      	lsls	r2, r3
    50e4:	9b01      	ldr	r3, [sp, #4]
    50e6:	685b      	ldr	r3, [r3, #4]
    50e8:	430a      	orrs	r2, r1
    50ea:	609a      	str	r2, [r3, #8]
    50ec:	f003 fdd4 	bl	8c98 <SchM_Exit_Port_PORT_EXCLUSIVE_AREA_02>
    50f0:	f003 fdf8 	bl	8ce4 <SchM_Enter_Port_PORT_EXCLUSIVE_AREA_03>
    50f4:	9b01      	ldr	r3, [sp, #4]
    50f6:	685b      	ldr	r3, [r3, #4]
    50f8:	6959      	ldr	r1, [r3, #20]
    50fa:	9b01      	ldr	r3, [sp, #4]
    50fc:	689b      	ldr	r3, [r3, #8]
    50fe:	2201      	movs	r2, #1
    5100:	409a      	lsls	r2, r3
    5102:	9b01      	ldr	r3, [sp, #4]
    5104:	685b      	ldr	r3, [r3, #4]
    5106:	430a      	orrs	r2, r1
    5108:	615a      	str	r2, [r3, #20]
    510a:	f003 fe17 	bl	8d3c <SchM_Exit_Port_PORT_EXCLUSIVE_AREA_03>
    510e:	e030      	b.n	5172 <Port_Ci_Port_Ip_PinInit+0x1ba>
    5110:	f003 fde8 	bl	8ce4 <SchM_Enter_Port_PORT_EXCLUSIVE_AREA_03>
    5114:	9b01      	ldr	r3, [sp, #4]
    5116:	685b      	ldr	r3, [r3, #4]
    5118:	6959      	ldr	r1, [r3, #20]
    511a:	9b01      	ldr	r3, [sp, #4]
    511c:	689b      	ldr	r3, [r3, #8]
    511e:	2201      	movs	r2, #1
    5120:	fa02 f303 	lsl.w	r3, r2, r3
    5124:	43da      	mvns	r2, r3
    5126:	9b01      	ldr	r3, [sp, #4]
    5128:	685b      	ldr	r3, [r3, #4]
    512a:	400a      	ands	r2, r1
    512c:	615a      	str	r2, [r3, #20]
    512e:	f003 fe05 	bl	8d3c <SchM_Exit_Port_PORT_EXCLUSIVE_AREA_03>
    5132:	f003 fe29 	bl	8d88 <SchM_Enter_Port_PORT_EXCLUSIVE_AREA_04>
    5136:	9b01      	ldr	r3, [sp, #4]
    5138:	685b      	ldr	r3, [r3, #4]
    513a:	6999      	ldr	r1, [r3, #24]
    513c:	9b01      	ldr	r3, [sp, #4]
    513e:	689b      	ldr	r3, [r3, #8]
    5140:	2201      	movs	r2, #1
    5142:	fa02 f303 	lsl.w	r3, r2, r3
    5146:	43da      	mvns	r2, r3
    5148:	9b01      	ldr	r3, [sp, #4]
    514a:	685b      	ldr	r3, [r3, #4]
    514c:	400a      	ands	r2, r1
    514e:	619a      	str	r2, [r3, #24]
    5150:	9b01      	ldr	r3, [sp, #4]
    5152:	695b      	ldr	r3, [r3, #20]
    5154:	2b03      	cmp	r3, #3
    5156:	d10a      	bne.n	516e <Port_Ci_Port_Ip_PinInit+0x1b6>
    5158:	9b01      	ldr	r3, [sp, #4]
    515a:	685b      	ldr	r3, [r3, #4]
    515c:	6999      	ldr	r1, [r3, #24]
    515e:	9b01      	ldr	r3, [sp, #4]
    5160:	689b      	ldr	r3, [r3, #8]
    5162:	2201      	movs	r2, #1
    5164:	409a      	lsls	r2, r3
    5166:	9b01      	ldr	r3, [sp, #4]
    5168:	685b      	ldr	r3, [r3, #4]
    516a:	430a      	orrs	r2, r1
    516c:	619a      	str	r2, [r3, #24]
    516e:	f003 fe37 	bl	8de0 <SchM_Exit_Port_PORT_EXCLUSIVE_AREA_04>
    5172:	9b01      	ldr	r3, [sp, #4]
    5174:	681b      	ldr	r3, [r3, #0]
    5176:	9a01      	ldr	r2, [sp, #4]
    5178:	6892      	ldr	r2, [r2, #8]
    517a:	9905      	ldr	r1, [sp, #20]
    517c:	f843 1022 	str.w	r1, [r3, r2, lsl #2]
    5180:	bf00      	nop
    5182:	b007      	add	sp, #28
    5184:	f85d fb04 	ldr.w	pc, [sp], #4

00005188 <Port_Ci_Port_Ip_Init>:
    5188:	b500      	push	{lr}
    518a:	b085      	sub	sp, #20
    518c:	9001      	str	r0, [sp, #4]
    518e:	9100      	str	r1, [sp, #0]
    5190:	2300      	movs	r3, #0
    5192:	9303      	str	r3, [sp, #12]
    5194:	e00d      	b.n	51b2 <Port_Ci_Port_Ip_Init+0x2a>
    5196:	9a03      	ldr	r2, [sp, #12]
    5198:	4613      	mov	r3, r2
    519a:	009b      	lsls	r3, r3, #2
    519c:	4413      	add	r3, r2
    519e:	00db      	lsls	r3, r3, #3
    51a0:	461a      	mov	r2, r3
    51a2:	9b00      	ldr	r3, [sp, #0]
    51a4:	4413      	add	r3, r2
    51a6:	4618      	mov	r0, r3
    51a8:	f7ff ff06 	bl	4fb8 <Port_Ci_Port_Ip_PinInit>
    51ac:	9b03      	ldr	r3, [sp, #12]
    51ae:	3301      	adds	r3, #1
    51b0:	9303      	str	r3, [sp, #12]
    51b2:	9a03      	ldr	r2, [sp, #12]
    51b4:	9b01      	ldr	r3, [sp, #4]
    51b6:	429a      	cmp	r2, r3
    51b8:	d3ed      	bcc.n	5196 <Port_Ci_Port_Ip_Init+0xe>
    51ba:	2300      	movs	r3, #0
    51bc:	4618      	mov	r0, r3
    51be:	b005      	add	sp, #20
    51c0:	f85d fb04 	ldr.w	pc, [sp], #4

000051c4 <Port_Ci_Port_Ip_SetMuxModeSel>:
    51c4:	b500      	push	{lr}
    51c6:	b087      	sub	sp, #28
    51c8:	9003      	str	r0, [sp, #12]
    51ca:	9102      	str	r1, [sp, #8]
    51cc:	9201      	str	r2, [sp, #4]
    51ce:	9a01      	ldr	r2, [sp, #4]
    51d0:	9902      	ldr	r1, [sp, #8]
    51d2:	9803      	ldr	r0, [sp, #12]
    51d4:	f7ff febc 	bl	4f50 <Port_Ci_Port_Ip_ConfigureInterleave>
    51d8:	9005      	str	r0, [sp, #20]
    51da:	f003 fe79 	bl	8ed0 <SchM_Enter_Port_PORT_EXCLUSIVE_AREA_06>
    51de:	9b03      	ldr	r3, [sp, #12]
    51e0:	9a02      	ldr	r2, [sp, #8]
    51e2:	f853 3022 	ldr.w	r3, [r3, r2, lsl #2]
    51e6:	9304      	str	r3, [sp, #16]
    51e8:	9b04      	ldr	r3, [sp, #16]
    51ea:	f423 63e0 	bic.w	r3, r3, #1792	; 0x700
    51ee:	9304      	str	r3, [sp, #16]
    51f0:	9b05      	ldr	r3, [sp, #20]
    51f2:	021b      	lsls	r3, r3, #8
    51f4:	f403 63e0 	and.w	r3, r3, #1792	; 0x700
    51f8:	9a04      	ldr	r2, [sp, #16]
    51fa:	4313      	orrs	r3, r2
    51fc:	9304      	str	r3, [sp, #16]
    51fe:	9b03      	ldr	r3, [sp, #12]
    5200:	9a02      	ldr	r2, [sp, #8]
    5202:	9904      	ldr	r1, [sp, #16]
    5204:	f843 1022 	str.w	r1, [r3, r2, lsl #2]
    5208:	f003 fe8e 	bl	8f28 <SchM_Exit_Port_PORT_EXCLUSIVE_AREA_06>
    520c:	bf00      	nop
    520e:	b007      	add	sp, #28
    5210:	f85d fb04 	ldr.w	pc, [sp], #4

00005214 <Port_Ci_Port_Ip_EnableDigitalFilter>:
    5214:	b500      	push	{lr}
    5216:	b083      	sub	sp, #12
    5218:	9001      	str	r0, [sp, #4]
    521a:	9100      	str	r1, [sp, #0]
    521c:	f003 feaa 	bl	8f74 <SchM_Enter_Port_PORT_EXCLUSIVE_AREA_07>
    5220:	9b01      	ldr	r3, [sp, #4]
    5222:	f8d3 20c0 	ldr.w	r2, [r3, #192]	; 0xc0
    5226:	2101      	movs	r1, #1
    5228:	9b00      	ldr	r3, [sp, #0]
    522a:	fa01 f303 	lsl.w	r3, r1, r3
    522e:	431a      	orrs	r2, r3
    5230:	9b01      	ldr	r3, [sp, #4]
    5232:	f8c3 20c0 	str.w	r2, [r3, #192]	; 0xc0
    5236:	f003 fec9 	bl	8fcc <SchM_Exit_Port_PORT_EXCLUSIVE_AREA_07>
    523a:	bf00      	nop
    523c:	b003      	add	sp, #12
    523e:	f85d fb04 	ldr.w	pc, [sp], #4

00005242 <Port_Ci_Port_Ip_DisableDigitalFilter>:
    5242:	b500      	push	{lr}
    5244:	b083      	sub	sp, #12
    5246:	9001      	str	r0, [sp, #4]
    5248:	9100      	str	r1, [sp, #0]
    524a:	f003 fee5 	bl	9018 <SchM_Enter_Port_PORT_EXCLUSIVE_AREA_08>
    524e:	9b01      	ldr	r3, [sp, #4]
    5250:	f8d3 20c0 	ldr.w	r2, [r3, #192]	; 0xc0
    5254:	2101      	movs	r1, #1
    5256:	9b00      	ldr	r3, [sp, #0]
    5258:	fa01 f303 	lsl.w	r3, r1, r3
    525c:	43db      	mvns	r3, r3
    525e:	401a      	ands	r2, r3
    5260:	9b01      	ldr	r3, [sp, #4]
    5262:	f8c3 20c0 	str.w	r2, [r3, #192]	; 0xc0
    5266:	f003 ff03 	bl	9070 <SchM_Exit_Port_PORT_EXCLUSIVE_AREA_08>
    526a:	bf00      	nop
    526c:	b003      	add	sp, #12
    526e:	f85d fb04 	ldr.w	pc, [sp], #4

00005272 <Port_Ci_Port_Ip_ConfigDigitalFilter>:
    5272:	b082      	sub	sp, #8
    5274:	9001      	str	r0, [sp, #4]
    5276:	9100      	str	r1, [sp, #0]
    5278:	9b00      	ldr	r3, [sp, #0]
    527a:	785b      	ldrb	r3, [r3, #1]
    527c:	f003 0201 	and.w	r2, r3, #1
    5280:	9b01      	ldr	r3, [sp, #4]
    5282:	f8c3 20c4 	str.w	r2, [r3, #196]	; 0xc4
    5286:	9b00      	ldr	r3, [sp, #0]
    5288:	789b      	ldrb	r3, [r3, #2]
    528a:	f003 021f 	and.w	r2, r3, #31
    528e:	9b01      	ldr	r3, [sp, #4]
    5290:	f8c3 20c8 	str.w	r2, [r3, #200]	; 0xc8
    5294:	bf00      	nop
    5296:	b002      	add	sp, #8
    5298:	4770      	bx	lr

0000529a <Port_Ci_Port_Ip_SetGlobalPinControl>:
    529a:	b086      	sub	sp, #24
    529c:	9003      	str	r0, [sp, #12]
    529e:	9301      	str	r3, [sp, #4]
    52a0:	460b      	mov	r3, r1
    52a2:	f8ad 300a 	strh.w	r3, [sp, #10]
    52a6:	4613      	mov	r3, r2
    52a8:	f8ad 3008 	strh.w	r3, [sp, #8]
    52ac:	2300      	movs	r3, #0
    52ae:	f8ad 3016 	strh.w	r3, [sp, #22]
    52b2:	f8bd 3016 	ldrh.w	r3, [sp, #22]
    52b6:	f043 0301 	orr.w	r3, r3, #1
    52ba:	f8ad 3016 	strh.w	r3, [sp, #22]
    52be:	f8bd 3016 	ldrh.w	r3, [sp, #22]
    52c2:	f043 0302 	orr.w	r3, r3, #2
    52c6:	f8ad 3016 	strh.w	r3, [sp, #22]
    52ca:	f8bd 3016 	ldrh.w	r3, [sp, #22]
    52ce:	f043 0310 	orr.w	r3, r3, #16
    52d2:	f8ad 3016 	strh.w	r3, [sp, #22]
    52d6:	f8bd 3016 	ldrh.w	r3, [sp, #22]
    52da:	f043 0340 	orr.w	r3, r3, #64	; 0x40
    52de:	f8ad 3016 	strh.w	r3, [sp, #22]
    52e2:	f8bd 3016 	ldrh.w	r3, [sp, #22]
    52e6:	f443 63e0 	orr.w	r3, r3, #1792	; 0x700
    52ea:	f8ad 3016 	strh.w	r3, [sp, #22]
    52ee:	f8bd 3016 	ldrh.w	r3, [sp, #22]
    52f2:	ea6f 4343 	mvn.w	r3, r3, lsl #17
    52f6:	ea6f 4353 	mvn.w	r3, r3, lsr #17
    52fa:	f8ad 3016 	strh.w	r3, [sp, #22]
    52fe:	f8bd 2016 	ldrh.w	r2, [sp, #22]
    5302:	f8bd 3008 	ldrh.w	r3, [sp, #8]
    5306:	4013      	ands	r3, r2
    5308:	f8ad 3016 	strh.w	r3, [sp, #22]
    530c:	9b01      	ldr	r3, [sp, #4]
    530e:	2b00      	cmp	r3, #0
    5310:	d003      	beq.n	531a <Port_Ci_Port_Ip_SetGlobalPinControl+0x80>
    5312:	9b01      	ldr	r3, [sp, #4]
    5314:	2b01      	cmp	r3, #1
    5316:	d00a      	beq.n	532e <Port_Ci_Port_Ip_SetGlobalPinControl+0x94>
    5318:	e013      	b.n	5342 <Port_Ci_Port_Ip_SetGlobalPinControl+0xa8>
    531a:	f8bd 300a 	ldrh.w	r3, [sp, #10]
    531e:	041a      	lsls	r2, r3, #16
    5320:	f8bd 3016 	ldrh.w	r3, [sp, #22]
    5324:	431a      	orrs	r2, r3
    5326:	9b03      	ldr	r3, [sp, #12]
    5328:	f8c3 2080 	str.w	r2, [r3, #128]	; 0x80
    532c:	e009      	b.n	5342 <Port_Ci_Port_Ip_SetGlobalPinControl+0xa8>
    532e:	f8bd 300a 	ldrh.w	r3, [sp, #10]
    5332:	041a      	lsls	r2, r3, #16
    5334:	f8bd 3016 	ldrh.w	r3, [sp, #22]
    5338:	431a      	orrs	r2, r3
    533a:	9b03      	ldr	r3, [sp, #12]
    533c:	f8c3 2084 	str.w	r2, [r3, #132]	; 0x84
    5340:	bf00      	nop
    5342:	bf00      	nop
    5344:	b006      	add	sp, #24
    5346:	4770      	bx	lr

00005348 <Port_Ipw_Init_UnusedPins>:
    5348:	b500      	push	{lr}
    534a:	b087      	sub	sp, #28
    534c:	9001      	str	r0, [sp, #4]
    534e:	9b01      	ldr	r3, [sp, #4]
    5350:	885b      	ldrh	r3, [r3, #2]
    5352:	f8ad 3014 	strh.w	r3, [sp, #20]
    5356:	9b01      	ldr	r3, [sp, #4]
    5358:	689b      	ldr	r3, [r3, #8]
    535a:	7a1b      	ldrb	r3, [r3, #8]
    535c:	f88d 3013 	strb.w	r3, [sp, #19]
    5360:	9b01      	ldr	r3, [sp, #4]
    5362:	689b      	ldr	r3, [r3, #8]
    5364:	681b      	ldr	r3, [r3, #0]
    5366:	9303      	str	r3, [sp, #12]
    5368:	9b01      	ldr	r3, [sp, #4]
    536a:	689b      	ldr	r3, [r3, #8]
    536c:	685b      	ldr	r3, [r3, #4]
    536e:	9302      	str	r3, [sp, #8]
    5370:	2300      	movs	r3, #0
    5372:	f8ad 3016 	strh.w	r3, [sp, #22]
    5376:	e111      	b.n	559c <Port_Ipw_Init_UnusedPins+0x254>
    5378:	9b02      	ldr	r3, [sp, #8]
    537a:	2b02      	cmp	r3, #2
    537c:	d169      	bne.n	5452 <Port_Ipw_Init_UnusedPins+0x10a>
    537e:	f89d 3013 	ldrb.w	r3, [sp, #19]
    5382:	2b01      	cmp	r3, #1
    5384:	d11a      	bne.n	53bc <Port_Ipw_Init_UnusedPins+0x74>
    5386:	9b01      	ldr	r3, [sp, #4]
    5388:	685a      	ldr	r2, [r3, #4]
    538a:	f8bd 3016 	ldrh.w	r3, [sp, #22]
    538e:	005b      	lsls	r3, r3, #1
    5390:	4413      	add	r3, r2
    5392:	881b      	ldrh	r3, [r3, #0]
    5394:	f003 021f 	and.w	r2, r3, #31
    5398:	9b01      	ldr	r3, [sp, #4]
    539a:	6859      	ldr	r1, [r3, #4]
    539c:	f8bd 3016 	ldrh.w	r3, [sp, #22]
    53a0:	005b      	lsls	r3, r3, #1
    53a2:	440b      	add	r3, r1
    53a4:	881b      	ldrh	r3, [r3, #0]
    53a6:	095b      	lsrs	r3, r3, #5
    53a8:	b29b      	uxth	r3, r3
    53aa:	4619      	mov	r1, r3
    53ac:	4b81      	ldr	r3, [pc, #516]	; (55b4 <Port_Ipw_Init_UnusedPins+0x26c>)
    53ae:	f853 3021 	ldr.w	r3, [r3, r1, lsl #2]
    53b2:	2101      	movs	r1, #1
    53b4:	fa01 f202 	lsl.w	r2, r1, r2
    53b8:	605a      	str	r2, [r3, #4]
    53ba:	e01d      	b.n	53f8 <Port_Ipw_Init_UnusedPins+0xb0>
    53bc:	f89d 3013 	ldrb.w	r3, [sp, #19]
    53c0:	2b00      	cmp	r3, #0
    53c2:	d119      	bne.n	53f8 <Port_Ipw_Init_UnusedPins+0xb0>
    53c4:	9b01      	ldr	r3, [sp, #4]
    53c6:	685a      	ldr	r2, [r3, #4]
    53c8:	f8bd 3016 	ldrh.w	r3, [sp, #22]
    53cc:	005b      	lsls	r3, r3, #1
    53ce:	4413      	add	r3, r2
    53d0:	881b      	ldrh	r3, [r3, #0]
    53d2:	f003 021f 	and.w	r2, r3, #31
    53d6:	9b01      	ldr	r3, [sp, #4]
    53d8:	6859      	ldr	r1, [r3, #4]
    53da:	f8bd 3016 	ldrh.w	r3, [sp, #22]
    53de:	005b      	lsls	r3, r3, #1
    53e0:	440b      	add	r3, r1
    53e2:	881b      	ldrh	r3, [r3, #0]
    53e4:	095b      	lsrs	r3, r3, #5
    53e6:	b29b      	uxth	r3, r3
    53e8:	4619      	mov	r1, r3
    53ea:	4b72      	ldr	r3, [pc, #456]	; (55b4 <Port_Ipw_Init_UnusedPins+0x26c>)
    53ec:	f853 3021 	ldr.w	r3, [r3, r1, lsl #2]
    53f0:	2101      	movs	r1, #1
    53f2:	fa01 f202 	lsl.w	r2, r1, r2
    53f6:	609a      	str	r2, [r3, #8]
    53f8:	f003 fe60 	bl	90bc <SchM_Enter_Port_PORT_EXCLUSIVE_AREA_09>
    53fc:	9b01      	ldr	r3, [sp, #4]
    53fe:	685a      	ldr	r2, [r3, #4]
    5400:	f8bd 3016 	ldrh.w	r3, [sp, #22]
    5404:	005b      	lsls	r3, r3, #1
    5406:	4413      	add	r3, r2
    5408:	881b      	ldrh	r3, [r3, #0]
    540a:	095b      	lsrs	r3, r3, #5
    540c:	b29b      	uxth	r3, r3
    540e:	461a      	mov	r2, r3
    5410:	4b68      	ldr	r3, [pc, #416]	; (55b4 <Port_Ipw_Init_UnusedPins+0x26c>)
    5412:	f853 3022 	ldr.w	r3, [r3, r2, lsl #2]
    5416:	6959      	ldr	r1, [r3, #20]
    5418:	9b01      	ldr	r3, [sp, #4]
    541a:	685a      	ldr	r2, [r3, #4]
    541c:	f8bd 3016 	ldrh.w	r3, [sp, #22]
    5420:	005b      	lsls	r3, r3, #1
    5422:	4413      	add	r3, r2
    5424:	881b      	ldrh	r3, [r3, #0]
    5426:	f003 031f 	and.w	r3, r3, #31
    542a:	2201      	movs	r2, #1
    542c:	409a      	lsls	r2, r3
    542e:	9b01      	ldr	r3, [sp, #4]
    5430:	6858      	ldr	r0, [r3, #4]
    5432:	f8bd 3016 	ldrh.w	r3, [sp, #22]
    5436:	005b      	lsls	r3, r3, #1
    5438:	4403      	add	r3, r0
    543a:	881b      	ldrh	r3, [r3, #0]
    543c:	095b      	lsrs	r3, r3, #5
    543e:	b29b      	uxth	r3, r3
    5440:	4618      	mov	r0, r3
    5442:	4b5c      	ldr	r3, [pc, #368]	; (55b4 <Port_Ipw_Init_UnusedPins+0x26c>)
    5444:	f853 3020 	ldr.w	r3, [r3, r0, lsl #2]
    5448:	430a      	orrs	r2, r1
    544a:	615a      	str	r2, [r3, #20]
    544c:	f003 fe62 	bl	9114 <SchM_Exit_Port_PORT_EXCLUSIVE_AREA_09>
    5450:	e086      	b.n	5560 <Port_Ipw_Init_UnusedPins+0x218>
    5452:	f003 fe33 	bl	90bc <SchM_Enter_Port_PORT_EXCLUSIVE_AREA_09>
    5456:	9b01      	ldr	r3, [sp, #4]
    5458:	685a      	ldr	r2, [r3, #4]
    545a:	f8bd 3016 	ldrh.w	r3, [sp, #22]
    545e:	005b      	lsls	r3, r3, #1
    5460:	4413      	add	r3, r2
    5462:	881b      	ldrh	r3, [r3, #0]
    5464:	095b      	lsrs	r3, r3, #5
    5466:	b29b      	uxth	r3, r3
    5468:	461a      	mov	r2, r3
    546a:	4b52      	ldr	r3, [pc, #328]	; (55b4 <Port_Ipw_Init_UnusedPins+0x26c>)
    546c:	f853 3022 	ldr.w	r3, [r3, r2, lsl #2]
    5470:	6959      	ldr	r1, [r3, #20]
    5472:	9b01      	ldr	r3, [sp, #4]
    5474:	685a      	ldr	r2, [r3, #4]
    5476:	f8bd 3016 	ldrh.w	r3, [sp, #22]
    547a:	005b      	lsls	r3, r3, #1
    547c:	4413      	add	r3, r2
    547e:	881b      	ldrh	r3, [r3, #0]
    5480:	f003 031f 	and.w	r3, r3, #31
    5484:	2201      	movs	r2, #1
    5486:	fa02 f303 	lsl.w	r3, r2, r3
    548a:	43da      	mvns	r2, r3
    548c:	9b01      	ldr	r3, [sp, #4]
    548e:	6858      	ldr	r0, [r3, #4]
    5490:	f8bd 3016 	ldrh.w	r3, [sp, #22]
    5494:	005b      	lsls	r3, r3, #1
    5496:	4403      	add	r3, r0
    5498:	881b      	ldrh	r3, [r3, #0]
    549a:	095b      	lsrs	r3, r3, #5
    549c:	b29b      	uxth	r3, r3
    549e:	4618      	mov	r0, r3
    54a0:	4b44      	ldr	r3, [pc, #272]	; (55b4 <Port_Ipw_Init_UnusedPins+0x26c>)
    54a2:	f853 3020 	ldr.w	r3, [r3, r0, lsl #2]
    54a6:	400a      	ands	r2, r1
    54a8:	615a      	str	r2, [r3, #20]
    54aa:	f003 fe33 	bl	9114 <SchM_Exit_Port_PORT_EXCLUSIVE_AREA_09>
    54ae:	f003 fe57 	bl	9160 <SchM_Enter_Port_PORT_EXCLUSIVE_AREA_10>
    54b2:	9b01      	ldr	r3, [sp, #4]
    54b4:	685a      	ldr	r2, [r3, #4]
    54b6:	f8bd 3016 	ldrh.w	r3, [sp, #22]
    54ba:	005b      	lsls	r3, r3, #1
    54bc:	4413      	add	r3, r2
    54be:	881b      	ldrh	r3, [r3, #0]
    54c0:	095b      	lsrs	r3, r3, #5
    54c2:	b29b      	uxth	r3, r3
    54c4:	461a      	mov	r2, r3
    54c6:	4b3b      	ldr	r3, [pc, #236]	; (55b4 <Port_Ipw_Init_UnusedPins+0x26c>)
    54c8:	f853 3022 	ldr.w	r3, [r3, r2, lsl #2]
    54cc:	6999      	ldr	r1, [r3, #24]
    54ce:	9b01      	ldr	r3, [sp, #4]
    54d0:	685a      	ldr	r2, [r3, #4]
    54d2:	f8bd 3016 	ldrh.w	r3, [sp, #22]
    54d6:	005b      	lsls	r3, r3, #1
    54d8:	4413      	add	r3, r2
    54da:	881b      	ldrh	r3, [r3, #0]
    54dc:	f003 031f 	and.w	r3, r3, #31
    54e0:	2201      	movs	r2, #1
    54e2:	fa02 f303 	lsl.w	r3, r2, r3
    54e6:	43da      	mvns	r2, r3
    54e8:	9b01      	ldr	r3, [sp, #4]
    54ea:	6858      	ldr	r0, [r3, #4]
    54ec:	f8bd 3016 	ldrh.w	r3, [sp, #22]
    54f0:	005b      	lsls	r3, r3, #1
    54f2:	4403      	add	r3, r0
    54f4:	881b      	ldrh	r3, [r3, #0]
    54f6:	095b      	lsrs	r3, r3, #5
    54f8:	b29b      	uxth	r3, r3
    54fa:	4618      	mov	r0, r3
    54fc:	4b2d      	ldr	r3, [pc, #180]	; (55b4 <Port_Ipw_Init_UnusedPins+0x26c>)
    54fe:	f853 3020 	ldr.w	r3, [r3, r0, lsl #2]
    5502:	400a      	ands	r2, r1
    5504:	619a      	str	r2, [r3, #24]
    5506:	9b02      	ldr	r3, [sp, #8]
    5508:	2b03      	cmp	r3, #3
    550a:	d127      	bne.n	555c <Port_Ipw_Init_UnusedPins+0x214>
    550c:	9b01      	ldr	r3, [sp, #4]
    550e:	685a      	ldr	r2, [r3, #4]
    5510:	f8bd 3016 	ldrh.w	r3, [sp, #22]
    5514:	005b      	lsls	r3, r3, #1
    5516:	4413      	add	r3, r2
    5518:	881b      	ldrh	r3, [r3, #0]
    551a:	095b      	lsrs	r3, r3, #5
    551c:	b29b      	uxth	r3, r3
    551e:	461a      	mov	r2, r3
    5520:	4b24      	ldr	r3, [pc, #144]	; (55b4 <Port_Ipw_Init_UnusedPins+0x26c>)
    5522:	f853 3022 	ldr.w	r3, [r3, r2, lsl #2]
    5526:	6999      	ldr	r1, [r3, #24]
    5528:	9b01      	ldr	r3, [sp, #4]
    552a:	685a      	ldr	r2, [r3, #4]
    552c:	f8bd 3016 	ldrh.w	r3, [sp, #22]
    5530:	005b      	lsls	r3, r3, #1
    5532:	4413      	add	r3, r2
    5534:	881b      	ldrh	r3, [r3, #0]
    5536:	f003 031f 	and.w	r3, r3, #31
    553a:	2201      	movs	r2, #1
    553c:	409a      	lsls	r2, r3
    553e:	9b01      	ldr	r3, [sp, #4]
    5540:	6858      	ldr	r0, [r3, #4]
    5542:	f8bd 3016 	ldrh.w	r3, [sp, #22]
    5546:	005b      	lsls	r3, r3, #1
    5548:	4403      	add	r3, r0
    554a:	881b      	ldrh	r3, [r3, #0]
    554c:	095b      	lsrs	r3, r3, #5
    554e:	b29b      	uxth	r3, r3
    5550:	4618      	mov	r0, r3
    5552:	4b18      	ldr	r3, [pc, #96]	; (55b4 <Port_Ipw_Init_UnusedPins+0x26c>)
    5554:	f853 3020 	ldr.w	r3, [r3, r0, lsl #2]
    5558:	430a      	orrs	r2, r1
    555a:	619a      	str	r2, [r3, #24]
    555c:	f003 fe2c 	bl	91b8 <SchM_Exit_Port_PORT_EXCLUSIVE_AREA_10>
    5560:	9b01      	ldr	r3, [sp, #4]
    5562:	685a      	ldr	r2, [r3, #4]
    5564:	f8bd 3016 	ldrh.w	r3, [sp, #22]
    5568:	005b      	lsls	r3, r3, #1
    556a:	4413      	add	r3, r2
    556c:	881b      	ldrh	r3, [r3, #0]
    556e:	095b      	lsrs	r3, r3, #5
    5570:	b29b      	uxth	r3, r3
    5572:	461a      	mov	r2, r3
    5574:	4b10      	ldr	r3, [pc, #64]	; (55b8 <Port_Ipw_Init_UnusedPins+0x270>)
    5576:	f853 3022 	ldr.w	r3, [r3, r2, lsl #2]
    557a:	9a01      	ldr	r2, [sp, #4]
    557c:	6851      	ldr	r1, [r2, #4]
    557e:	f8bd 2016 	ldrh.w	r2, [sp, #22]
    5582:	0052      	lsls	r2, r2, #1
    5584:	440a      	add	r2, r1
    5586:	8812      	ldrh	r2, [r2, #0]
    5588:	f002 021f 	and.w	r2, r2, #31
    558c:	9903      	ldr	r1, [sp, #12]
    558e:	f843 1022 	str.w	r1, [r3, r2, lsl #2]
    5592:	f8bd 3016 	ldrh.w	r3, [sp, #22]
    5596:	3301      	adds	r3, #1
    5598:	f8ad 3016 	strh.w	r3, [sp, #22]
    559c:	f8bd 2016 	ldrh.w	r2, [sp, #22]
    55a0:	f8bd 3014 	ldrh.w	r3, [sp, #20]
    55a4:	429a      	cmp	r2, r3
    55a6:	f4ff aee7 	bcc.w	5378 <Port_Ipw_Init_UnusedPins+0x30>
    55aa:	bf00      	nop
    55ac:	bf00      	nop
    55ae:	b007      	add	sp, #28
    55b0:	f85d fb04 	ldr.w	pc, [sp], #4
    55b4:	0000baf0 	.word	0x0000baf0
    55b8:	0000badc 	.word	0x0000badc

000055bc <Port_Ipw_Init>:
    55bc:	b500      	push	{lr}
    55be:	b085      	sub	sp, #20
    55c0:	9001      	str	r0, [sp, #4]
    55c2:	9b01      	ldr	r3, [sp, #4]
    55c4:	7c1b      	ldrb	r3, [r3, #16]
    55c6:	f88d 300d 	strb.w	r3, [sp, #13]
    55ca:	2300      	movs	r3, #0
    55cc:	f8ad 300e 	strh.w	r3, [sp, #14]
    55d0:	e035      	b.n	563e <Port_Ipw_Init+0x82>
    55d2:	9b01      	ldr	r3, [sp, #4]
    55d4:	695a      	ldr	r2, [r3, #20]
    55d6:	f8bd 300e 	ldrh.w	r3, [sp, #14]
    55da:	00db      	lsls	r3, r3, #3
    55dc:	4413      	add	r3, r2
    55de:	781b      	ldrb	r3, [r3, #0]
    55e0:	f88d 300c 	strb.w	r3, [sp, #12]
    55e4:	f89d 300c 	ldrb.w	r3, [sp, #12]
    55e8:	4a1f      	ldr	r2, [pc, #124]	; (5668 <Port_Ipw_Init+0xac>)
    55ea:	f852 0023 	ldr.w	r0, [r2, r3, lsl #2]
    55ee:	9b01      	ldr	r3, [sp, #4]
    55f0:	695a      	ldr	r2, [r3, #20]
    55f2:	f8bd 300e 	ldrh.w	r3, [sp, #14]
    55f6:	00db      	lsls	r3, r3, #3
    55f8:	4413      	add	r3, r2
    55fa:	4619      	mov	r1, r3
    55fc:	f7ff fe39 	bl	5272 <Port_Ci_Port_Ip_ConfigDigitalFilter>
    5600:	f003 ff48 	bl	9494 <SchM_Enter_Port_PORT_EXCLUSIVE_AREA_15>
    5604:	f89d 300c 	ldrb.w	r3, [sp, #12]
    5608:	4a17      	ldr	r2, [pc, #92]	; (5668 <Port_Ipw_Init+0xac>)
    560a:	f852 3023 	ldr.w	r3, [r2, r3, lsl #2]
    560e:	f8d3 10c0 	ldr.w	r1, [r3, #192]	; 0xc0
    5612:	9b01      	ldr	r3, [sp, #4]
    5614:	695a      	ldr	r2, [r3, #20]
    5616:	f8bd 300e 	ldrh.w	r3, [sp, #14]
    561a:	00db      	lsls	r3, r3, #3
    561c:	4413      	add	r3, r2
    561e:	685a      	ldr	r2, [r3, #4]
    5620:	f89d 300c 	ldrb.w	r3, [sp, #12]
    5624:	4810      	ldr	r0, [pc, #64]	; (5668 <Port_Ipw_Init+0xac>)
    5626:	f850 3023 	ldr.w	r3, [r0, r3, lsl #2]
    562a:	430a      	orrs	r2, r1
    562c:	f8c3 20c0 	str.w	r2, [r3, #192]	; 0xc0
    5630:	f003 ff5c 	bl	94ec <SchM_Exit_Port_PORT_EXCLUSIVE_AREA_15>
    5634:	f8bd 300e 	ldrh.w	r3, [sp, #14]
    5638:	3301      	adds	r3, #1
    563a:	f8ad 300e 	strh.w	r3, [sp, #14]
    563e:	f89d 300d 	ldrb.w	r3, [sp, #13]
    5642:	b29b      	uxth	r3, r3
    5644:	f8bd 200e 	ldrh.w	r2, [sp, #14]
    5648:	429a      	cmp	r2, r3
    564a:	d3c2      	bcc.n	55d2 <Port_Ipw_Init+0x16>
    564c:	9b01      	ldr	r3, [sp, #4]
    564e:	6a1b      	ldr	r3, [r3, #32]
    5650:	4619      	mov	r1, r3
    5652:	2001      	movs	r0, #1
    5654:	f7ff fd98 	bl	5188 <Port_Ci_Port_Ip_Init>
    5658:	9801      	ldr	r0, [sp, #4]
    565a:	f7ff fe75 	bl	5348 <Port_Ipw_Init_UnusedPins>
    565e:	bf00      	nop
    5660:	b005      	add	sp, #20
    5662:	f85d fb04 	ldr.w	pc, [sp], #4
    5666:	bf00      	nop
    5668:	0000badc 	.word	0x0000badc

0000566c <Port_Ipw_RefreshPortDirection>:
    566c:	b500      	push	{lr}
    566e:	b085      	sub	sp, #20
    5670:	9001      	str	r0, [sp, #4]
    5672:	9b01      	ldr	r3, [sp, #4]
    5674:	881b      	ldrh	r3, [r3, #0]
    5676:	f8ad 300c 	strh.w	r3, [sp, #12]
    567a:	2300      	movs	r3, #0
    567c:	f8ad 300e 	strh.w	r3, [sp, #14]
    5680:	e0d2      	b.n	5828 <Port_Ipw_RefreshPortDirection+0x1bc>
    5682:	9b01      	ldr	r3, [sp, #4]
    5684:	68d9      	ldr	r1, [r3, #12]
    5686:	f8bd 200e 	ldrh.w	r2, [sp, #14]
    568a:	4613      	mov	r3, r2
    568c:	009b      	lsls	r3, r3, #2
    568e:	4413      	add	r3, r2
    5690:	009b      	lsls	r3, r3, #2
    5692:	440b      	add	r3, r1
    5694:	7c5b      	ldrb	r3, [r3, #17]
    5696:	f083 0301 	eor.w	r3, r3, #1
    569a:	b2db      	uxtb	r3, r3
    569c:	2b00      	cmp	r3, #0
    569e:	f000 80be 	beq.w	581e <Port_Ipw_RefreshPortDirection+0x1b2>
    56a2:	9b01      	ldr	r3, [sp, #4]
    56a4:	68d9      	ldr	r1, [r3, #12]
    56a6:	f8bd 200e 	ldrh.w	r2, [sp, #14]
    56aa:	4613      	mov	r3, r2
    56ac:	009b      	lsls	r3, r3, #2
    56ae:	4413      	add	r3, r2
    56b0:	009b      	lsls	r3, r3, #2
    56b2:	440b      	add	r3, r1
    56b4:	7c1b      	ldrb	r3, [r3, #16]
    56b6:	2b00      	cmp	r3, #0
    56b8:	f000 80b1 	beq.w	581e <Port_Ipw_RefreshPortDirection+0x1b2>
    56bc:	9b01      	ldr	r3, [sp, #4]
    56be:	68d9      	ldr	r1, [r3, #12]
    56c0:	f8bd 200e 	ldrh.w	r2, [sp, #14]
    56c4:	4613      	mov	r3, r2
    56c6:	009b      	lsls	r3, r3, #2
    56c8:	4413      	add	r3, r2
    56ca:	009b      	lsls	r3, r3, #2
    56cc:	440b      	add	r3, r1
    56ce:	881b      	ldrh	r3, [r3, #0]
    56d0:	f8ad 300a 	strh.w	r3, [sp, #10]
    56d4:	9b01      	ldr	r3, [sp, #4]
    56d6:	68d9      	ldr	r1, [r3, #12]
    56d8:	f8bd 200e 	ldrh.w	r2, [sp, #14]
    56dc:	4613      	mov	r3, r2
    56de:	009b      	lsls	r3, r3, #2
    56e0:	4413      	add	r3, r2
    56e2:	009b      	lsls	r3, r3, #2
    56e4:	440b      	add	r3, r1
    56e6:	68db      	ldr	r3, [r3, #12]
    56e8:	2b02      	cmp	r3, #2
    56ea:	d11d      	bne.n	5728 <Port_Ipw_RefreshPortDirection+0xbc>
    56ec:	f004 f81a 	bl	9724 <SchM_Enter_Port_PORT_EXCLUSIVE_AREA_19>
    56f0:	f8bd 300a 	ldrh.w	r3, [sp, #10]
    56f4:	095b      	lsrs	r3, r3, #5
    56f6:	b29b      	uxth	r3, r3
    56f8:	461a      	mov	r2, r3
    56fa:	4b51      	ldr	r3, [pc, #324]	; (5840 <Port_Ipw_RefreshPortDirection+0x1d4>)
    56fc:	f853 3022 	ldr.w	r3, [r3, r2, lsl #2]
    5700:	6959      	ldr	r1, [r3, #20]
    5702:	f8bd 300a 	ldrh.w	r3, [sp, #10]
    5706:	f003 031f 	and.w	r3, r3, #31
    570a:	2201      	movs	r2, #1
    570c:	409a      	lsls	r2, r3
    570e:	f8bd 300a 	ldrh.w	r3, [sp, #10]
    5712:	095b      	lsrs	r3, r3, #5
    5714:	b29b      	uxth	r3, r3
    5716:	4618      	mov	r0, r3
    5718:	4b49      	ldr	r3, [pc, #292]	; (5840 <Port_Ipw_RefreshPortDirection+0x1d4>)
    571a:	f853 3020 	ldr.w	r3, [r3, r0, lsl #2]
    571e:	430a      	orrs	r2, r1
    5720:	615a      	str	r2, [r3, #20]
    5722:	f004 f82b 	bl	977c <SchM_Exit_Port_PORT_EXCLUSIVE_AREA_19>
    5726:	e07a      	b.n	581e <Port_Ipw_RefreshPortDirection+0x1b2>
    5728:	9b01      	ldr	r3, [sp, #4]
    572a:	68d9      	ldr	r1, [r3, #12]
    572c:	f8bd 200e 	ldrh.w	r2, [sp, #14]
    5730:	4613      	mov	r3, r2
    5732:	009b      	lsls	r3, r3, #2
    5734:	4413      	add	r3, r2
    5736:	009b      	lsls	r3, r3, #2
    5738:	440b      	add	r3, r1
    573a:	68db      	ldr	r3, [r3, #12]
    573c:	2b01      	cmp	r3, #1
    573e:	d00b      	beq.n	5758 <Port_Ipw_RefreshPortDirection+0xec>
    5740:	9b01      	ldr	r3, [sp, #4]
    5742:	68d9      	ldr	r1, [r3, #12]
    5744:	f8bd 200e 	ldrh.w	r2, [sp, #14]
    5748:	4613      	mov	r3, r2
    574a:	009b      	lsls	r3, r3, #2
    574c:	4413      	add	r3, r2
    574e:	009b      	lsls	r3, r3, #2
    5750:	440b      	add	r3, r1
    5752:	68db      	ldr	r3, [r3, #12]
    5754:	2b03      	cmp	r3, #3
    5756:	d162      	bne.n	581e <Port_Ipw_RefreshPortDirection+0x1b2>
    5758:	f003 ffe4 	bl	9724 <SchM_Enter_Port_PORT_EXCLUSIVE_AREA_19>
    575c:	f8bd 300a 	ldrh.w	r3, [sp, #10]
    5760:	095b      	lsrs	r3, r3, #5
    5762:	b29b      	uxth	r3, r3
    5764:	461a      	mov	r2, r3
    5766:	4b36      	ldr	r3, [pc, #216]	; (5840 <Port_Ipw_RefreshPortDirection+0x1d4>)
    5768:	f853 3022 	ldr.w	r3, [r3, r2, lsl #2]
    576c:	6959      	ldr	r1, [r3, #20]
    576e:	f8bd 300a 	ldrh.w	r3, [sp, #10]
    5772:	f003 031f 	and.w	r3, r3, #31
    5776:	2201      	movs	r2, #1
    5778:	fa02 f303 	lsl.w	r3, r2, r3
    577c:	43da      	mvns	r2, r3
    577e:	f8bd 300a 	ldrh.w	r3, [sp, #10]
    5782:	095b      	lsrs	r3, r3, #5
    5784:	b29b      	uxth	r3, r3
    5786:	4618      	mov	r0, r3
    5788:	4b2d      	ldr	r3, [pc, #180]	; (5840 <Port_Ipw_RefreshPortDirection+0x1d4>)
    578a:	f853 3020 	ldr.w	r3, [r3, r0, lsl #2]
    578e:	400a      	ands	r2, r1
    5790:	615a      	str	r2, [r3, #20]
    5792:	f003 fff3 	bl	977c <SchM_Exit_Port_PORT_EXCLUSIVE_AREA_19>
    5796:	f004 f817 	bl	97c8 <SchM_Enter_Port_PORT_EXCLUSIVE_AREA_20>
    579a:	f8bd 300a 	ldrh.w	r3, [sp, #10]
    579e:	095b      	lsrs	r3, r3, #5
    57a0:	b29b      	uxth	r3, r3
    57a2:	461a      	mov	r2, r3
    57a4:	4b26      	ldr	r3, [pc, #152]	; (5840 <Port_Ipw_RefreshPortDirection+0x1d4>)
    57a6:	f853 3022 	ldr.w	r3, [r3, r2, lsl #2]
    57aa:	6999      	ldr	r1, [r3, #24]
    57ac:	f8bd 300a 	ldrh.w	r3, [sp, #10]
    57b0:	f003 031f 	and.w	r3, r3, #31
    57b4:	2201      	movs	r2, #1
    57b6:	fa02 f303 	lsl.w	r3, r2, r3
    57ba:	43da      	mvns	r2, r3
    57bc:	f8bd 300a 	ldrh.w	r3, [sp, #10]
    57c0:	095b      	lsrs	r3, r3, #5
    57c2:	b29b      	uxth	r3, r3
    57c4:	4618      	mov	r0, r3
    57c6:	4b1e      	ldr	r3, [pc, #120]	; (5840 <Port_Ipw_RefreshPortDirection+0x1d4>)
    57c8:	f853 3020 	ldr.w	r3, [r3, r0, lsl #2]
    57cc:	400a      	ands	r2, r1
    57ce:	619a      	str	r2, [r3, #24]
    57d0:	9b01      	ldr	r3, [sp, #4]
    57d2:	68d9      	ldr	r1, [r3, #12]
    57d4:	f8bd 200e 	ldrh.w	r2, [sp, #14]
    57d8:	4613      	mov	r3, r2
    57da:	009b      	lsls	r3, r3, #2
    57dc:	4413      	add	r3, r2
    57de:	009b      	lsls	r3, r3, #2
    57e0:	440b      	add	r3, r1
    57e2:	68db      	ldr	r3, [r3, #12]
    57e4:	2b03      	cmp	r3, #3
    57e6:	d118      	bne.n	581a <Port_Ipw_RefreshPortDirection+0x1ae>
    57e8:	f8bd 300a 	ldrh.w	r3, [sp, #10]
    57ec:	095b      	lsrs	r3, r3, #5
    57ee:	b29b      	uxth	r3, r3
    57f0:	461a      	mov	r2, r3
    57f2:	4b13      	ldr	r3, [pc, #76]	; (5840 <Port_Ipw_RefreshPortDirection+0x1d4>)
    57f4:	f853 3022 	ldr.w	r3, [r3, r2, lsl #2]
    57f8:	6999      	ldr	r1, [r3, #24]
    57fa:	f8bd 300a 	ldrh.w	r3, [sp, #10]
    57fe:	f003 031f 	and.w	r3, r3, #31
    5802:	2201      	movs	r2, #1
    5804:	409a      	lsls	r2, r3
    5806:	f8bd 300a 	ldrh.w	r3, [sp, #10]
    580a:	095b      	lsrs	r3, r3, #5
    580c:	b29b      	uxth	r3, r3
    580e:	4618      	mov	r0, r3
    5810:	4b0b      	ldr	r3, [pc, #44]	; (5840 <Port_Ipw_RefreshPortDirection+0x1d4>)
    5812:	f853 3020 	ldr.w	r3, [r3, r0, lsl #2]
    5816:	430a      	orrs	r2, r1
    5818:	619a      	str	r2, [r3, #24]
    581a:	f004 f801 	bl	9820 <SchM_Exit_Port_PORT_EXCLUSIVE_AREA_20>
    581e:	f8bd 300e 	ldrh.w	r3, [sp, #14]
    5822:	3301      	adds	r3, #1
    5824:	f8ad 300e 	strh.w	r3, [sp, #14]
    5828:	f8bd 200e 	ldrh.w	r2, [sp, #14]
    582c:	f8bd 300c 	ldrh.w	r3, [sp, #12]
    5830:	429a      	cmp	r2, r3
    5832:	f4ff af26 	bcc.w	5682 <Port_Ipw_RefreshPortDirection+0x16>
    5836:	bf00      	nop
    5838:	bf00      	nop
    583a:	b005      	add	sp, #20
    583c:	f85d fb04 	ldr.w	pc, [sp], #4
    5840:	0000baf0 	.word	0x0000baf0

00005844 <Ftm_Pwm_Ip_SetClockPs>:
    5844:	b082      	sub	sp, #8
    5846:	9001      	str	r0, [sp, #4]
    5848:	9100      	str	r1, [sp, #0]
    584a:	9b01      	ldr	r3, [sp, #4]
    584c:	681b      	ldr	r3, [r3, #0]
    584e:	f023 0207 	bic.w	r2, r3, #7
    5852:	9b00      	ldr	r3, [sp, #0]
    5854:	f003 0307 	and.w	r3, r3, #7
    5858:	431a      	orrs	r2, r3
    585a:	9b01      	ldr	r3, [sp, #4]
    585c:	601a      	str	r2, [r3, #0]
    585e:	bf00      	nop
    5860:	b002      	add	sp, #8
    5862:	4770      	bx	lr

00005864 <Ftm_Pwm_Ip_SetClockSource>:
    5864:	b082      	sub	sp, #8
    5866:	9001      	str	r0, [sp, #4]
    5868:	9100      	str	r1, [sp, #0]
    586a:	9b01      	ldr	r3, [sp, #4]
    586c:	681b      	ldr	r3, [r3, #0]
    586e:	f023 0218 	bic.w	r2, r3, #24
    5872:	9b00      	ldr	r3, [sp, #0]
    5874:	00db      	lsls	r3, r3, #3
    5876:	f003 0318 	and.w	r3, r3, #24
    587a:	431a      	orrs	r2, r3
    587c:	9b01      	ldr	r3, [sp, #4]
    587e:	601a      	str	r2, [r3, #0]
    5880:	bf00      	nop
    5882:	b002      	add	sp, #8
    5884:	4770      	bx	lr

00005886 <Ftm_Pwm_Ip_SetCpwms>:
    5886:	b082      	sub	sp, #8
    5888:	9001      	str	r0, [sp, #4]
    588a:	460b      	mov	r3, r1
    588c:	f88d 3003 	strb.w	r3, [sp, #3]
    5890:	9b01      	ldr	r3, [sp, #4]
    5892:	681b      	ldr	r3, [r3, #0]
    5894:	f023 0320 	bic.w	r3, r3, #32
    5898:	f89d 2003 	ldrb.w	r2, [sp, #3]
    589c:	2a00      	cmp	r2, #0
    589e:	d001      	beq.n	58a4 <Ftm_Pwm_Ip_SetCpwms+0x1e>
    58a0:	2220      	movs	r2, #32
    58a2:	e000      	b.n	58a6 <Ftm_Pwm_Ip_SetCpwms+0x20>
    58a4:	2200      	movs	r2, #0
    58a6:	431a      	orrs	r2, r3
    58a8:	9b01      	ldr	r3, [sp, #4]
    58aa:	601a      	str	r2, [r3, #0]
    58ac:	bf00      	nop
    58ae:	b002      	add	sp, #8
    58b0:	4770      	bx	lr

000058b2 <Ftm_Pwm_Ip_GetCpwms>:
    58b2:	b082      	sub	sp, #8
    58b4:	9001      	str	r0, [sp, #4]
    58b6:	9b01      	ldr	r3, [sp, #4]
    58b8:	681b      	ldr	r3, [r3, #0]
    58ba:	f003 0320 	and.w	r3, r3, #32
    58be:	2b00      	cmp	r3, #0
    58c0:	bf14      	ite	ne
    58c2:	2301      	movne	r3, #1
    58c4:	2300      	moveq	r3, #0
    58c6:	b2db      	uxtb	r3, r3
    58c8:	4618      	mov	r0, r3
    58ca:	b002      	add	sp, #8
    58cc:	4770      	bx	lr

000058ce <Ftm_Pwm_Ip_SetTimerOverflowInt>:
    58ce:	b082      	sub	sp, #8
    58d0:	9001      	str	r0, [sp, #4]
    58d2:	460b      	mov	r3, r1
    58d4:	f88d 3003 	strb.w	r3, [sp, #3]
    58d8:	9b01      	ldr	r3, [sp, #4]
    58da:	681b      	ldr	r3, [r3, #0]
    58dc:	f423 7380 	bic.w	r3, r3, #256	; 0x100
    58e0:	f89d 2003 	ldrb.w	r2, [sp, #3]
    58e4:	2a00      	cmp	r2, #0
    58e6:	d002      	beq.n	58ee <Ftm_Pwm_Ip_SetTimerOverflowInt+0x20>
    58e8:	f44f 7280 	mov.w	r2, #256	; 0x100
    58ec:	e000      	b.n	58f0 <Ftm_Pwm_Ip_SetTimerOverflowInt+0x22>
    58ee:	2200      	movs	r2, #0
    58f0:	431a      	orrs	r2, r3
    58f2:	9b01      	ldr	r3, [sp, #4]
    58f4:	601a      	str	r2, [r3, #0]
    58f6:	bf00      	nop
    58f8:	b002      	add	sp, #8
    58fa:	4770      	bx	lr

000058fc <Ftm_Pwm_Ip_ClearTimerOverflow>:
    58fc:	b082      	sub	sp, #8
    58fe:	9001      	str	r0, [sp, #4]
    5900:	9b01      	ldr	r3, [sp, #4]
    5902:	681b      	ldr	r3, [r3, #0]
    5904:	f423 7200 	bic.w	r2, r3, #512	; 0x200
    5908:	9b01      	ldr	r3, [sp, #4]
    590a:	601a      	str	r2, [r3, #0]
    590c:	bf00      	nop
    590e:	b002      	add	sp, #8
    5910:	4770      	bx	lr

00005912 <Ftm_Pwm_Ip_EnablePwmChannelOutputs>:
    5912:	b082      	sub	sp, #8
    5914:	9001      	str	r0, [sp, #4]
    5916:	460b      	mov	r3, r1
    5918:	f88d 3003 	strb.w	r3, [sp, #3]
    591c:	f89d 3003 	ldrb.w	r3, [sp, #3]
    5920:	3310      	adds	r3, #16
    5922:	2201      	movs	r2, #1
    5924:	409a      	lsls	r2, r3
    5926:	9b01      	ldr	r3, [sp, #4]
    5928:	681b      	ldr	r3, [r3, #0]
    592a:	431a      	orrs	r2, r3
    592c:	9b01      	ldr	r3, [sp, #4]
    592e:	601a      	str	r2, [r3, #0]
    5930:	bf00      	nop
    5932:	b002      	add	sp, #8
    5934:	4770      	bx	lr

00005936 <Ftm_Pwm_Ip_SetCounter>:
    5936:	b082      	sub	sp, #8
    5938:	9001      	str	r0, [sp, #4]
    593a:	460b      	mov	r3, r1
    593c:	f8ad 3002 	strh.w	r3, [sp, #2]
    5940:	9b01      	ldr	r3, [sp, #4]
    5942:	685b      	ldr	r3, [r3, #4]
    5944:	0c1b      	lsrs	r3, r3, #16
    5946:	041b      	lsls	r3, r3, #16
    5948:	f8bd 2002 	ldrh.w	r2, [sp, #2]
    594c:	431a      	orrs	r2, r3
    594e:	9b01      	ldr	r3, [sp, #4]
    5950:	605a      	str	r2, [r3, #4]
    5952:	bf00      	nop
    5954:	b002      	add	sp, #8
    5956:	4770      	bx	lr

00005958 <Ftm_Pwm_Ip_SetMod>:
    5958:	b082      	sub	sp, #8
    595a:	9001      	str	r0, [sp, #4]
    595c:	460b      	mov	r3, r1
    595e:	f8ad 3002 	strh.w	r3, [sp, #2]
    5962:	9b01      	ldr	r3, [sp, #4]
    5964:	689b      	ldr	r3, [r3, #8]
    5966:	0c1b      	lsrs	r3, r3, #16
    5968:	041b      	lsls	r3, r3, #16
    596a:	f8bd 2002 	ldrh.w	r2, [sp, #2]
    596e:	431a      	orrs	r2, r3
    5970:	9b01      	ldr	r3, [sp, #4]
    5972:	609a      	str	r2, [r3, #8]
    5974:	bf00      	nop
    5976:	b002      	add	sp, #8
    5978:	4770      	bx	lr

0000597a <Ftm_Pwm_Ip_GetChnEdgeLevel>:
    597a:	b084      	sub	sp, #16
    597c:	9001      	str	r0, [sp, #4]
    597e:	460b      	mov	r3, r1
    5980:	f88d 3003 	strb.w	r3, [sp, #3]
    5984:	f89d 3003 	ldrb.w	r3, [sp, #3]
    5988:	9a01      	ldr	r2, [sp, #4]
    598a:	3301      	adds	r3, #1
    598c:	00db      	lsls	r3, r3, #3
    598e:	4413      	add	r3, r2
    5990:	685b      	ldr	r3, [r3, #4]
    5992:	089b      	lsrs	r3, r3, #2
    5994:	b2db      	uxtb	r3, r3
    5996:	f003 0301 	and.w	r3, r3, #1
    599a:	f88d 300f 	strb.w	r3, [sp, #15]
    599e:	f89d 3003 	ldrb.w	r3, [sp, #3]
    59a2:	9a01      	ldr	r2, [sp, #4]
    59a4:	3301      	adds	r3, #1
    59a6:	00db      	lsls	r3, r3, #3
    59a8:	4413      	add	r3, r2
    59aa:	685b      	ldr	r3, [r3, #4]
    59ac:	08db      	lsrs	r3, r3, #3
    59ae:	b2db      	uxtb	r3, r3
    59b0:	005b      	lsls	r3, r3, #1
    59b2:	b2db      	uxtb	r3, r3
    59b4:	f003 0302 	and.w	r3, r3, #2
    59b8:	b2da      	uxtb	r2, r3
    59ba:	f89d 300f 	ldrb.w	r3, [sp, #15]
    59be:	4313      	orrs	r3, r2
    59c0:	f88d 300f 	strb.w	r3, [sp, #15]
    59c4:	f89d 300f 	ldrb.w	r3, [sp, #15]
    59c8:	4618      	mov	r0, r3
    59ca:	b004      	add	sp, #16
    59cc:	4770      	bx	lr

000059ce <Ftm_Pwm_Ip_SetChnEdgeLevel>:
    59ce:	b086      	sub	sp, #24
    59d0:	9003      	str	r0, [sp, #12]
    59d2:	460b      	mov	r3, r1
    59d4:	9201      	str	r2, [sp, #4]
    59d6:	f88d 300b 	strb.w	r3, [sp, #11]
    59da:	9b01      	ldr	r3, [sp, #4]
    59dc:	009b      	lsls	r3, r3, #2
    59de:	f003 0304 	and.w	r3, r3, #4
    59e2:	9305      	str	r3, [sp, #20]
    59e4:	9b01      	ldr	r3, [sp, #4]
    59e6:	009b      	lsls	r3, r3, #2
    59e8:	f003 0308 	and.w	r3, r3, #8
    59ec:	9304      	str	r3, [sp, #16]
    59ee:	f89d 300b 	ldrb.w	r3, [sp, #11]
    59f2:	9a03      	ldr	r2, [sp, #12]
    59f4:	3301      	adds	r3, #1
    59f6:	00db      	lsls	r3, r3, #3
    59f8:	4413      	add	r3, r2
    59fa:	685b      	ldr	r3, [r3, #4]
    59fc:	f023 0104 	bic.w	r1, r3, #4
    5a00:	f89d 300b 	ldrb.w	r3, [sp, #11]
    5a04:	9a05      	ldr	r2, [sp, #20]
    5a06:	430a      	orrs	r2, r1
    5a08:	9903      	ldr	r1, [sp, #12]
    5a0a:	3301      	adds	r3, #1
    5a0c:	00db      	lsls	r3, r3, #3
    5a0e:	440b      	add	r3, r1
    5a10:	605a      	str	r2, [r3, #4]
    5a12:	f89d 300b 	ldrb.w	r3, [sp, #11]
    5a16:	9a03      	ldr	r2, [sp, #12]
    5a18:	3301      	adds	r3, #1
    5a1a:	00db      	lsls	r3, r3, #3
    5a1c:	4413      	add	r3, r2
    5a1e:	685b      	ldr	r3, [r3, #4]
    5a20:	f023 0108 	bic.w	r1, r3, #8
    5a24:	f89d 300b 	ldrb.w	r3, [sp, #11]
    5a28:	9a04      	ldr	r2, [sp, #16]
    5a2a:	430a      	orrs	r2, r1
    5a2c:	9903      	ldr	r1, [sp, #12]
    5a2e:	3301      	adds	r3, #1
    5a30:	00db      	lsls	r3, r3, #3
    5a32:	440b      	add	r3, r1
    5a34:	605a      	str	r2, [r3, #4]
    5a36:	bf00      	nop
    5a38:	b006      	add	sp, #24
    5a3a:	4770      	bx	lr

00005a3c <Ftm_Pwm_Ip_SetChnMSBAMode>:
    5a3c:	b086      	sub	sp, #24
    5a3e:	9003      	str	r0, [sp, #12]
    5a40:	460b      	mov	r3, r1
    5a42:	9201      	str	r2, [sp, #4]
    5a44:	f88d 300b 	strb.w	r3, [sp, #11]
    5a48:	9b01      	ldr	r3, [sp, #4]
    5a4a:	009b      	lsls	r3, r3, #2
    5a4c:	f003 0310 	and.w	r3, r3, #16
    5a50:	9305      	str	r3, [sp, #20]
    5a52:	9b01      	ldr	r3, [sp, #4]
    5a54:	009b      	lsls	r3, r3, #2
    5a56:	f003 0320 	and.w	r3, r3, #32
    5a5a:	9304      	str	r3, [sp, #16]
    5a5c:	f89d 300b 	ldrb.w	r3, [sp, #11]
    5a60:	9a03      	ldr	r2, [sp, #12]
    5a62:	3301      	adds	r3, #1
    5a64:	00db      	lsls	r3, r3, #3
    5a66:	4413      	add	r3, r2
    5a68:	685b      	ldr	r3, [r3, #4]
    5a6a:	f023 0110 	bic.w	r1, r3, #16
    5a6e:	f89d 300b 	ldrb.w	r3, [sp, #11]
    5a72:	9a05      	ldr	r2, [sp, #20]
    5a74:	430a      	orrs	r2, r1
    5a76:	9903      	ldr	r1, [sp, #12]
    5a78:	3301      	adds	r3, #1
    5a7a:	00db      	lsls	r3, r3, #3
    5a7c:	440b      	add	r3, r1
    5a7e:	605a      	str	r2, [r3, #4]
    5a80:	f89d 300b 	ldrb.w	r3, [sp, #11]
    5a84:	9a03      	ldr	r2, [sp, #12]
    5a86:	3301      	adds	r3, #1
    5a88:	00db      	lsls	r3, r3, #3
    5a8a:	4413      	add	r3, r2
    5a8c:	685b      	ldr	r3, [r3, #4]
    5a8e:	f023 0120 	bic.w	r1, r3, #32
    5a92:	f89d 300b 	ldrb.w	r3, [sp, #11]
    5a96:	9a04      	ldr	r2, [sp, #16]
    5a98:	430a      	orrs	r2, r1
    5a9a:	9903      	ldr	r1, [sp, #12]
    5a9c:	3301      	adds	r3, #1
    5a9e:	00db      	lsls	r3, r3, #3
    5aa0:	440b      	add	r3, r1
    5aa2:	605a      	str	r2, [r3, #4]
    5aa4:	bf00      	nop
    5aa6:	b006      	add	sp, #24
    5aa8:	4770      	bx	lr

00005aaa <Ftm_Pwm_Ip_GetChnMode>:
    5aaa:	b084      	sub	sp, #16
    5aac:	9001      	str	r0, [sp, #4]
    5aae:	460b      	mov	r3, r1
    5ab0:	f88d 3003 	strb.w	r3, [sp, #3]
    5ab4:	f89d 3003 	ldrb.w	r3, [sp, #3]
    5ab8:	9a01      	ldr	r2, [sp, #4]
    5aba:	3301      	adds	r3, #1
    5abc:	00db      	lsls	r3, r3, #3
    5abe:	4413      	add	r3, r2
    5ac0:	685b      	ldr	r3, [r3, #4]
    5ac2:	091b      	lsrs	r3, r3, #4
    5ac4:	b2db      	uxtb	r3, r3
    5ac6:	f003 0301 	and.w	r3, r3, #1
    5aca:	f88d 300f 	strb.w	r3, [sp, #15]
    5ace:	f89d 3003 	ldrb.w	r3, [sp, #3]
    5ad2:	9a01      	ldr	r2, [sp, #4]
    5ad4:	3301      	adds	r3, #1
    5ad6:	00db      	lsls	r3, r3, #3
    5ad8:	4413      	add	r3, r2
    5ada:	685b      	ldr	r3, [r3, #4]
    5adc:	095b      	lsrs	r3, r3, #5
    5ade:	b2db      	uxtb	r3, r3
    5ae0:	005b      	lsls	r3, r3, #1
    5ae2:	b2db      	uxtb	r3, r3
    5ae4:	f003 0302 	and.w	r3, r3, #2
    5ae8:	b2da      	uxtb	r2, r3
    5aea:	f89d 300f 	ldrb.w	r3, [sp, #15]
    5aee:	4313      	orrs	r3, r2
    5af0:	f88d 300f 	strb.w	r3, [sp, #15]
    5af4:	f89d 300f 	ldrb.w	r3, [sp, #15]
    5af8:	4618      	mov	r0, r3
    5afa:	b004      	add	sp, #16
    5afc:	4770      	bx	lr

00005afe <Ftm_Pwm_Ip_UpdateChnInt>:
    5afe:	b082      	sub	sp, #8
    5b00:	9001      	str	r0, [sp, #4]
    5b02:	460b      	mov	r3, r1
    5b04:	f88d 3003 	strb.w	r3, [sp, #3]
    5b08:	4613      	mov	r3, r2
    5b0a:	f88d 3002 	strb.w	r3, [sp, #2]
    5b0e:	f89d 3003 	ldrb.w	r3, [sp, #3]
    5b12:	9a01      	ldr	r2, [sp, #4]
    5b14:	3301      	adds	r3, #1
    5b16:	00db      	lsls	r3, r3, #3
    5b18:	4413      	add	r3, r2
    5b1a:	685b      	ldr	r3, [r3, #4]
    5b1c:	f023 0240 	bic.w	r2, r3, #64	; 0x40
    5b20:	f89d 3002 	ldrb.w	r3, [sp, #2]
    5b24:	2b00      	cmp	r3, #0
    5b26:	d001      	beq.n	5b2c <Ftm_Pwm_Ip_UpdateChnInt+0x2e>
    5b28:	2140      	movs	r1, #64	; 0x40
    5b2a:	e000      	b.n	5b2e <Ftm_Pwm_Ip_UpdateChnInt+0x30>
    5b2c:	2100      	movs	r1, #0
    5b2e:	f89d 3003 	ldrb.w	r3, [sp, #3]
    5b32:	430a      	orrs	r2, r1
    5b34:	9901      	ldr	r1, [sp, #4]
    5b36:	3301      	adds	r3, #1
    5b38:	00db      	lsls	r3, r3, #3
    5b3a:	440b      	add	r3, r1
    5b3c:	605a      	str	r2, [r3, #4]
    5b3e:	bf00      	nop
    5b40:	b002      	add	sp, #8
    5b42:	4770      	bx	lr

00005b44 <Ftm_Pwm_Ip_ClearChnEventFlag>:
    5b44:	b082      	sub	sp, #8
    5b46:	9001      	str	r0, [sp, #4]
    5b48:	460b      	mov	r3, r1
    5b4a:	f88d 3003 	strb.w	r3, [sp, #3]
    5b4e:	f89d 3003 	ldrb.w	r3, [sp, #3]
    5b52:	9a01      	ldr	r2, [sp, #4]
    5b54:	3301      	adds	r3, #1
    5b56:	00db      	lsls	r3, r3, #3
    5b58:	4413      	add	r3, r2
    5b5a:	685a      	ldr	r2, [r3, #4]
    5b5c:	f89d 3003 	ldrb.w	r3, [sp, #3]
    5b60:	f022 0280 	bic.w	r2, r2, #128	; 0x80
    5b64:	9901      	ldr	r1, [sp, #4]
    5b66:	3301      	adds	r3, #1
    5b68:	00db      	lsls	r3, r3, #3
    5b6a:	440b      	add	r3, r1
    5b6c:	605a      	str	r2, [r3, #4]
    5b6e:	bf00      	nop
    5b70:	b002      	add	sp, #8
    5b72:	4770      	bx	lr

00005b74 <Ftm_Pwm_Ip_GetChOutputValue>:
    5b74:	b082      	sub	sp, #8
    5b76:	9001      	str	r0, [sp, #4]
    5b78:	460b      	mov	r3, r1
    5b7a:	f88d 3003 	strb.w	r3, [sp, #3]
    5b7e:	f89d 3003 	ldrb.w	r3, [sp, #3]
    5b82:	9a01      	ldr	r2, [sp, #4]
    5b84:	3301      	adds	r3, #1
    5b86:	00db      	lsls	r3, r3, #3
    5b88:	4413      	add	r3, r2
    5b8a:	685b      	ldr	r3, [r3, #4]
    5b8c:	f403 6380 	and.w	r3, r3, #1024	; 0x400
    5b90:	2b00      	cmp	r3, #0
    5b92:	bf14      	ite	ne
    5b94:	2301      	movne	r3, #1
    5b96:	2300      	moveq	r3, #0
    5b98:	b2db      	uxtb	r3, r3
    5b9a:	4618      	mov	r0, r3
    5b9c:	b002      	add	sp, #8
    5b9e:	4770      	bx	lr

00005ba0 <Ftm_Pwm_Ip_SetChnCountVal>:
    5ba0:	b082      	sub	sp, #8
    5ba2:	9001      	str	r0, [sp, #4]
    5ba4:	460b      	mov	r3, r1
    5ba6:	f88d 3003 	strb.w	r3, [sp, #3]
    5baa:	4613      	mov	r3, r2
    5bac:	f8ad 3000 	strh.w	r3, [sp]
    5bb0:	f89d 3003 	ldrb.w	r3, [sp, #3]
    5bb4:	f8bd 2000 	ldrh.w	r2, [sp]
    5bb8:	9901      	ldr	r1, [sp, #4]
    5bba:	3301      	adds	r3, #1
    5bbc:	00db      	lsls	r3, r3, #3
    5bbe:	440b      	add	r3, r1
    5bc0:	609a      	str	r2, [r3, #8]
    5bc2:	bf00      	nop
    5bc4:	b002      	add	sp, #8
    5bc6:	4770      	bx	lr

00005bc8 <Ftm_Pwm_Ip_SetCounterInitVal>:
    5bc8:	b082      	sub	sp, #8
    5bca:	9001      	str	r0, [sp, #4]
    5bcc:	460b      	mov	r3, r1
    5bce:	f8ad 3002 	strh.w	r3, [sp, #2]
    5bd2:	9b01      	ldr	r3, [sp, #4]
    5bd4:	6cdb      	ldr	r3, [r3, #76]	; 0x4c
    5bd6:	0c1b      	lsrs	r3, r3, #16
    5bd8:	041b      	lsls	r3, r3, #16
    5bda:	f8bd 2002 	ldrh.w	r2, [sp, #2]
    5bde:	431a      	orrs	r2, r3
    5be0:	9b01      	ldr	r3, [sp, #4]
    5be2:	64da      	str	r2, [r3, #76]	; 0x4c
    5be4:	bf00      	nop
    5be6:	b002      	add	sp, #8
    5be8:	4770      	bx	lr

00005bea <Ftm_Pwm_Ip_Enable>:
    5bea:	b082      	sub	sp, #8
    5bec:	9001      	str	r0, [sp, #4]
    5bee:	460b      	mov	r3, r1
    5bf0:	f88d 3003 	strb.w	r3, [sp, #3]
    5bf4:	9b01      	ldr	r3, [sp, #4]
    5bf6:	6d5b      	ldr	r3, [r3, #84]	; 0x54
    5bf8:	f023 0301 	bic.w	r3, r3, #1
    5bfc:	f89d 2003 	ldrb.w	r2, [sp, #3]
    5c00:	2a00      	cmp	r2, #0
    5c02:	d001      	beq.n	5c08 <Ftm_Pwm_Ip_Enable+0x1e>
    5c04:	2201      	movs	r2, #1
    5c06:	e000      	b.n	5c0a <Ftm_Pwm_Ip_Enable+0x20>
    5c08:	2200      	movs	r2, #0
    5c0a:	431a      	orrs	r2, r3
    5c0c:	9b01      	ldr	r3, [sp, #4]
    5c0e:	655a      	str	r2, [r3, #84]	; 0x54
    5c10:	bf00      	nop
    5c12:	b002      	add	sp, #8
    5c14:	4770      	bx	lr

00005c16 <Ftm_Pwm_Ip_SetPwmSyncMode>:
    5c16:	b082      	sub	sp, #8
    5c18:	9001      	str	r0, [sp, #4]
    5c1a:	460b      	mov	r3, r1
    5c1c:	f88d 3003 	strb.w	r3, [sp, #3]
    5c20:	9b01      	ldr	r3, [sp, #4]
    5c22:	6d5b      	ldr	r3, [r3, #84]	; 0x54
    5c24:	f023 0308 	bic.w	r3, r3, #8
    5c28:	f89d 2003 	ldrb.w	r2, [sp, #3]
    5c2c:	2a00      	cmp	r2, #0
    5c2e:	d001      	beq.n	5c34 <Ftm_Pwm_Ip_SetPwmSyncMode+0x1e>
    5c30:	2208      	movs	r2, #8
    5c32:	e000      	b.n	5c36 <Ftm_Pwm_Ip_SetPwmSyncMode+0x20>
    5c34:	2200      	movs	r2, #0
    5c36:	431a      	orrs	r2, r3
    5c38:	9b01      	ldr	r3, [sp, #4]
    5c3a:	655a      	str	r2, [r3, #84]	; 0x54
    5c3c:	bf00      	nop
    5c3e:	b002      	add	sp, #8
    5c40:	4770      	bx	lr

00005c42 <Ftm_Pwm_Ip_SetMinLoadingCmd>:
    5c42:	b082      	sub	sp, #8
    5c44:	9001      	str	r0, [sp, #4]
    5c46:	460b      	mov	r3, r1
    5c48:	f88d 3003 	strb.w	r3, [sp, #3]
    5c4c:	9b01      	ldr	r3, [sp, #4]
    5c4e:	6d9b      	ldr	r3, [r3, #88]	; 0x58
    5c50:	f023 0301 	bic.w	r3, r3, #1
    5c54:	f89d 2003 	ldrb.w	r2, [sp, #3]
    5c58:	2a00      	cmp	r2, #0
    5c5a:	d001      	beq.n	5c60 <Ftm_Pwm_Ip_SetMinLoadingCmd+0x1e>
    5c5c:	2201      	movs	r2, #1
    5c5e:	e000      	b.n	5c62 <Ftm_Pwm_Ip_SetMinLoadingCmd+0x20>
    5c60:	2200      	movs	r2, #0
    5c62:	431a      	orrs	r2, r3
    5c64:	9b01      	ldr	r3, [sp, #4]
    5c66:	659a      	str	r2, [r3, #88]	; 0x58
    5c68:	bf00      	nop
    5c6a:	b002      	add	sp, #8
    5c6c:	4770      	bx	lr

00005c6e <Ftm_Pwm_Ip_SetMaxLoadingCmd>:
    5c6e:	b082      	sub	sp, #8
    5c70:	9001      	str	r0, [sp, #4]
    5c72:	460b      	mov	r3, r1
    5c74:	f88d 3003 	strb.w	r3, [sp, #3]
    5c78:	9b01      	ldr	r3, [sp, #4]
    5c7a:	6d9b      	ldr	r3, [r3, #88]	; 0x58
    5c7c:	f023 0302 	bic.w	r3, r3, #2
    5c80:	f89d 2003 	ldrb.w	r2, [sp, #3]
    5c84:	2a00      	cmp	r2, #0
    5c86:	d001      	beq.n	5c8c <Ftm_Pwm_Ip_SetMaxLoadingCmd+0x1e>
    5c88:	2202      	movs	r2, #2
    5c8a:	e000      	b.n	5c8e <Ftm_Pwm_Ip_SetMaxLoadingCmd+0x20>
    5c8c:	2200      	movs	r2, #0
    5c8e:	431a      	orrs	r2, r3
    5c90:	9b01      	ldr	r3, [sp, #4]
    5c92:	659a      	str	r2, [r3, #88]	; 0x58
    5c94:	bf00      	nop
    5c96:	b002      	add	sp, #8
    5c98:	4770      	bx	lr

00005c9a <Ftm_Pwm_Ip_SetOutmaskPwmSyncModeCmd>:
    5c9a:	b082      	sub	sp, #8
    5c9c:	9001      	str	r0, [sp, #4]
    5c9e:	460b      	mov	r3, r1
    5ca0:	f88d 3003 	strb.w	r3, [sp, #3]
    5ca4:	9b01      	ldr	r3, [sp, #4]
    5ca6:	6d9b      	ldr	r3, [r3, #88]	; 0x58
    5ca8:	f023 0308 	bic.w	r3, r3, #8
    5cac:	f89d 2003 	ldrb.w	r2, [sp, #3]
    5cb0:	2a00      	cmp	r2, #0
    5cb2:	d001      	beq.n	5cb8 <Ftm_Pwm_Ip_SetOutmaskPwmSyncModeCmd+0x1e>
    5cb4:	2208      	movs	r2, #8
    5cb6:	e000      	b.n	5cba <Ftm_Pwm_Ip_SetOutmaskPwmSyncModeCmd+0x20>
    5cb8:	2200      	movs	r2, #0
    5cba:	431a      	orrs	r2, r3
    5cbc:	9b01      	ldr	r3, [sp, #4]
    5cbe:	659a      	str	r2, [r3, #88]	; 0x58
    5cc0:	bf00      	nop
    5cc2:	b002      	add	sp, #8
    5cc4:	4770      	bx	lr

00005cc6 <Ftm_Pwm_Ip_SetHardwareSyncTriggerSrc>:
    5cc6:	b082      	sub	sp, #8
    5cc8:	9001      	str	r0, [sp, #4]
    5cca:	460b      	mov	r3, r1
    5ccc:	f88d 3003 	strb.w	r3, [sp, #3]
    5cd0:	4613      	mov	r3, r2
    5cd2:	f88d 3002 	strb.w	r3, [sp, #2]
    5cd6:	f89d 3002 	ldrb.w	r3, [sp, #2]
    5cda:	2b00      	cmp	r3, #0
    5cdc:	d00a      	beq.n	5cf4 <Ftm_Pwm_Ip_SetHardwareSyncTriggerSrc+0x2e>
    5cde:	9b01      	ldr	r3, [sp, #4]
    5ce0:	6d9a      	ldr	r2, [r3, #88]	; 0x58
    5ce2:	f89d 3003 	ldrb.w	r3, [sp, #3]
    5ce6:	2110      	movs	r1, #16
    5ce8:	fa01 f303 	lsl.w	r3, r1, r3
    5cec:	431a      	orrs	r2, r3
    5cee:	9b01      	ldr	r3, [sp, #4]
    5cf0:	659a      	str	r2, [r3, #88]	; 0x58
    5cf2:	e00a      	b.n	5d0a <Ftm_Pwm_Ip_SetHardwareSyncTriggerSrc+0x44>
    5cf4:	9b01      	ldr	r3, [sp, #4]
    5cf6:	6d9a      	ldr	r2, [r3, #88]	; 0x58
    5cf8:	f89d 3003 	ldrb.w	r3, [sp, #3]
    5cfc:	2110      	movs	r1, #16
    5cfe:	fa01 f303 	lsl.w	r3, r1, r3
    5d02:	43db      	mvns	r3, r3
    5d04:	401a      	ands	r2, r3
    5d06:	9b01      	ldr	r3, [sp, #4]
    5d08:	659a      	str	r2, [r3, #88]	; 0x58
    5d0a:	bf00      	nop
    5d0c:	b002      	add	sp, #8
    5d0e:	4770      	bx	lr

00005d10 <Ftm_Pwm_Ip_SetSoftwareTriggerCmd>:
    5d10:	b082      	sub	sp, #8
    5d12:	9001      	str	r0, [sp, #4]
    5d14:	460b      	mov	r3, r1
    5d16:	f88d 3003 	strb.w	r3, [sp, #3]
    5d1a:	9b01      	ldr	r3, [sp, #4]
    5d1c:	6d9b      	ldr	r3, [r3, #88]	; 0x58
    5d1e:	f023 0380 	bic.w	r3, r3, #128	; 0x80
    5d22:	f89d 2003 	ldrb.w	r2, [sp, #3]
    5d26:	2a00      	cmp	r2, #0
    5d28:	d001      	beq.n	5d2e <Ftm_Pwm_Ip_SetSoftwareTriggerCmd+0x1e>
    5d2a:	2280      	movs	r2, #128	; 0x80
    5d2c:	e000      	b.n	5d30 <Ftm_Pwm_Ip_SetSoftwareTriggerCmd+0x20>
    5d2e:	2200      	movs	r2, #0
    5d30:	431a      	orrs	r2, r3
    5d32:	9b01      	ldr	r3, [sp, #4]
    5d34:	659a      	str	r2, [r3, #88]	; 0x58
    5d36:	bf00      	nop
    5d38:	b002      	add	sp, #8
    5d3a:	4770      	bx	lr

00005d3c <Ftm_Pwm_Ip_SetChnOutputInitStateCmd>:
    5d3c:	b084      	sub	sp, #16
    5d3e:	9003      	str	r0, [sp, #12]
    5d40:	460b      	mov	r3, r1
    5d42:	9201      	str	r2, [sp, #4]
    5d44:	f88d 300b 	strb.w	r3, [sp, #11]
    5d48:	9b01      	ldr	r3, [sp, #4]
    5d4a:	2b01      	cmp	r3, #1
    5d4c:	d10a      	bne.n	5d64 <Ftm_Pwm_Ip_SetChnOutputInitStateCmd+0x28>
    5d4e:	9b03      	ldr	r3, [sp, #12]
    5d50:	6dda      	ldr	r2, [r3, #92]	; 0x5c
    5d52:	f89d 300b 	ldrb.w	r3, [sp, #11]
    5d56:	2101      	movs	r1, #1
    5d58:	fa01 f303 	lsl.w	r3, r1, r3
    5d5c:	431a      	orrs	r2, r3
    5d5e:	9b03      	ldr	r3, [sp, #12]
    5d60:	65da      	str	r2, [r3, #92]	; 0x5c
    5d62:	e00a      	b.n	5d7a <Ftm_Pwm_Ip_SetChnOutputInitStateCmd+0x3e>
    5d64:	9b03      	ldr	r3, [sp, #12]
    5d66:	6dda      	ldr	r2, [r3, #92]	; 0x5c
    5d68:	f89d 300b 	ldrb.w	r3, [sp, #11]
    5d6c:	2101      	movs	r1, #1
    5d6e:	fa01 f303 	lsl.w	r3, r1, r3
    5d72:	43db      	mvns	r3, r3
    5d74:	401a      	ands	r2, r3
    5d76:	9b03      	ldr	r3, [sp, #12]
    5d78:	65da      	str	r2, [r3, #92]	; 0x5c
    5d7a:	bf00      	nop
    5d7c:	b004      	add	sp, #16
    5d7e:	4770      	bx	lr

00005d80 <Ftm_Pwm_Ip_SetChnOutputMask>:
    5d80:	b082      	sub	sp, #8
    5d82:	9001      	str	r0, [sp, #4]
    5d84:	460b      	mov	r3, r1
    5d86:	f88d 3003 	strb.w	r3, [sp, #3]
    5d8a:	4613      	mov	r3, r2
    5d8c:	f88d 3002 	strb.w	r3, [sp, #2]
    5d90:	f89d 3002 	ldrb.w	r3, [sp, #2]
    5d94:	2b00      	cmp	r3, #0
    5d96:	d00a      	beq.n	5dae <Ftm_Pwm_Ip_SetChnOutputMask+0x2e>
    5d98:	9b01      	ldr	r3, [sp, #4]
    5d9a:	6e1a      	ldr	r2, [r3, #96]	; 0x60
    5d9c:	f89d 3003 	ldrb.w	r3, [sp, #3]
    5da0:	2101      	movs	r1, #1
    5da2:	fa01 f303 	lsl.w	r3, r1, r3
    5da6:	431a      	orrs	r2, r3
    5da8:	9b01      	ldr	r3, [sp, #4]
    5daa:	661a      	str	r2, [r3, #96]	; 0x60
    5dac:	e00a      	b.n	5dc4 <Ftm_Pwm_Ip_SetChnOutputMask+0x44>
    5dae:	9b01      	ldr	r3, [sp, #4]
    5db0:	6e1a      	ldr	r2, [r3, #96]	; 0x60
    5db2:	f89d 3003 	ldrb.w	r3, [sp, #3]
    5db6:	2101      	movs	r1, #1
    5db8:	fa01 f303 	lsl.w	r3, r1, r3
    5dbc:	43db      	mvns	r3, r3
    5dbe:	401a      	ands	r2, r3
    5dc0:	9b01      	ldr	r3, [sp, #4]
    5dc2:	661a      	str	r2, [r3, #96]	; 0x60
    5dc4:	bf00      	nop
    5dc6:	b002      	add	sp, #8
    5dc8:	4770      	bx	lr

00005dca <Ftm_Pwm_Ip_SetOutmaskReg>:
    5dca:	b082      	sub	sp, #8
    5dcc:	9001      	str	r0, [sp, #4]
    5dce:	9100      	str	r1, [sp, #0]
    5dd0:	9b01      	ldr	r3, [sp, #4]
    5dd2:	6e1a      	ldr	r2, [r3, #96]	; 0x60
    5dd4:	9b00      	ldr	r3, [sp, #0]
    5dd6:	43db      	mvns	r3, r3
    5dd8:	401a      	ands	r2, r3
    5dda:	9b00      	ldr	r3, [sp, #0]
    5ddc:	431a      	orrs	r2, r3
    5dde:	9b01      	ldr	r3, [sp, #4]
    5de0:	661a      	str	r2, [r3, #96]	; 0x60
    5de2:	bf00      	nop
    5de4:	b002      	add	sp, #8
    5de6:	4770      	bx	lr

00005de8 <Ftm_Pwm_Ip_ClearOutmaskReg>:
    5de8:	b082      	sub	sp, #8
    5dea:	9001      	str	r0, [sp, #4]
    5dec:	9100      	str	r1, [sp, #0]
    5dee:	9b01      	ldr	r3, [sp, #4]
    5df0:	6e1a      	ldr	r2, [r3, #96]	; 0x60
    5df2:	9b00      	ldr	r3, [sp, #0]
    5df4:	43db      	mvns	r3, r3
    5df6:	401a      	ands	r2, r3
    5df8:	9b01      	ldr	r3, [sp, #4]
    5dfa:	661a      	str	r2, [r3, #96]	; 0x60
    5dfc:	bf00      	nop
    5dfe:	b002      	add	sp, #8
    5e00:	4770      	bx	lr

00005e02 <Ftm_Pwm_Ip_SetDualChnCombineCmd>:
    5e02:	b082      	sub	sp, #8
    5e04:	9001      	str	r0, [sp, #4]
    5e06:	460b      	mov	r3, r1
    5e08:	f88d 3003 	strb.w	r3, [sp, #3]
    5e0c:	4613      	mov	r3, r2
    5e0e:	f88d 3002 	strb.w	r3, [sp, #2]
    5e12:	f89d 3002 	ldrb.w	r3, [sp, #2]
    5e16:	2b00      	cmp	r3, #0
    5e18:	d00b      	beq.n	5e32 <Ftm_Pwm_Ip_SetDualChnCombineCmd+0x30>
    5e1a:	9b01      	ldr	r3, [sp, #4]
    5e1c:	6e5a      	ldr	r2, [r3, #100]	; 0x64
    5e1e:	f89d 3003 	ldrb.w	r3, [sp, #3]
    5e22:	00db      	lsls	r3, r3, #3
    5e24:	2101      	movs	r1, #1
    5e26:	fa01 f303 	lsl.w	r3, r1, r3
    5e2a:	431a      	orrs	r2, r3
    5e2c:	9b01      	ldr	r3, [sp, #4]
    5e2e:	665a      	str	r2, [r3, #100]	; 0x64
    5e30:	e00b      	b.n	5e4a <Ftm_Pwm_Ip_SetDualChnCombineCmd+0x48>
    5e32:	9b01      	ldr	r3, [sp, #4]
    5e34:	6e5a      	ldr	r2, [r3, #100]	; 0x64
    5e36:	f89d 3003 	ldrb.w	r3, [sp, #3]
    5e3a:	00db      	lsls	r3, r3, #3
    5e3c:	2101      	movs	r1, #1
    5e3e:	fa01 f303 	lsl.w	r3, r1, r3
    5e42:	43db      	mvns	r3, r3
    5e44:	401a      	ands	r2, r3
    5e46:	9b01      	ldr	r3, [sp, #4]
    5e48:	665a      	str	r2, [r3, #100]	; 0x64
    5e4a:	bf00      	nop
    5e4c:	b002      	add	sp, #8
    5e4e:	4770      	bx	lr

00005e50 <Ftm_Pwm_Ip_GetDualChnCombineCmd>:
    5e50:	b082      	sub	sp, #8
    5e52:	9001      	str	r0, [sp, #4]
    5e54:	460b      	mov	r3, r1
    5e56:	f88d 3003 	strb.w	r3, [sp, #3]
    5e5a:	9b01      	ldr	r3, [sp, #4]
    5e5c:	6e5a      	ldr	r2, [r3, #100]	; 0x64
    5e5e:	f89d 3003 	ldrb.w	r3, [sp, #3]
    5e62:	00db      	lsls	r3, r3, #3
    5e64:	fa22 f303 	lsr.w	r3, r2, r3
    5e68:	f003 0301 	and.w	r3, r3, #1
    5e6c:	2b00      	cmp	r3, #0
    5e6e:	bf14      	ite	ne
    5e70:	2301      	movne	r3, #1
    5e72:	2300      	moveq	r3, #0
    5e74:	b2db      	uxtb	r3, r3
    5e76:	4618      	mov	r0, r3
    5e78:	b002      	add	sp, #8
    5e7a:	4770      	bx	lr

00005e7c <Ftm_Pwm_Ip_SetDualChnCompCmd>:
    5e7c:	b082      	sub	sp, #8
    5e7e:	9001      	str	r0, [sp, #4]
    5e80:	460b      	mov	r3, r1
    5e82:	f88d 3003 	strb.w	r3, [sp, #3]
    5e86:	4613      	mov	r3, r2
    5e88:	f88d 3002 	strb.w	r3, [sp, #2]
    5e8c:	f89d 3002 	ldrb.w	r3, [sp, #2]
    5e90:	2b00      	cmp	r3, #0
    5e92:	d00b      	beq.n	5eac <Ftm_Pwm_Ip_SetDualChnCompCmd+0x30>
    5e94:	9b01      	ldr	r3, [sp, #4]
    5e96:	6e5a      	ldr	r2, [r3, #100]	; 0x64
    5e98:	f89d 3003 	ldrb.w	r3, [sp, #3]
    5e9c:	00db      	lsls	r3, r3, #3
    5e9e:	2102      	movs	r1, #2
    5ea0:	fa01 f303 	lsl.w	r3, r1, r3
    5ea4:	431a      	orrs	r2, r3
    5ea6:	9b01      	ldr	r3, [sp, #4]
    5ea8:	665a      	str	r2, [r3, #100]	; 0x64
    5eaa:	e00b      	b.n	5ec4 <Ftm_Pwm_Ip_SetDualChnCompCmd+0x48>
    5eac:	9b01      	ldr	r3, [sp, #4]
    5eae:	6e5a      	ldr	r2, [r3, #100]	; 0x64
    5eb0:	f89d 3003 	ldrb.w	r3, [sp, #3]
    5eb4:	00db      	lsls	r3, r3, #3
    5eb6:	2102      	movs	r1, #2
    5eb8:	fa01 f303 	lsl.w	r3, r1, r3
    5ebc:	43db      	mvns	r3, r3
    5ebe:	401a      	ands	r2, r3
    5ec0:	9b01      	ldr	r3, [sp, #4]
    5ec2:	665a      	str	r2, [r3, #100]	; 0x64
    5ec4:	bf00      	nop
    5ec6:	b002      	add	sp, #8
    5ec8:	4770      	bx	lr

00005eca <Ftm_Pwm_Ip_SetDualChnDeadtimeCmd>:
    5eca:	b082      	sub	sp, #8
    5ecc:	9001      	str	r0, [sp, #4]
    5ece:	460b      	mov	r3, r1
    5ed0:	f88d 3003 	strb.w	r3, [sp, #3]
    5ed4:	4613      	mov	r3, r2
    5ed6:	f88d 3002 	strb.w	r3, [sp, #2]
    5eda:	f89d 3002 	ldrb.w	r3, [sp, #2]
    5ede:	2b00      	cmp	r3, #0
    5ee0:	d00b      	beq.n	5efa <Ftm_Pwm_Ip_SetDualChnDeadtimeCmd+0x30>
    5ee2:	9b01      	ldr	r3, [sp, #4]
    5ee4:	6e5a      	ldr	r2, [r3, #100]	; 0x64
    5ee6:	f89d 3003 	ldrb.w	r3, [sp, #3]
    5eea:	00db      	lsls	r3, r3, #3
    5eec:	2110      	movs	r1, #16
    5eee:	fa01 f303 	lsl.w	r3, r1, r3
    5ef2:	431a      	orrs	r2, r3
    5ef4:	9b01      	ldr	r3, [sp, #4]
    5ef6:	665a      	str	r2, [r3, #100]	; 0x64
    5ef8:	e00b      	b.n	5f12 <Ftm_Pwm_Ip_SetDualChnDeadtimeCmd+0x48>
    5efa:	9b01      	ldr	r3, [sp, #4]
    5efc:	6e5a      	ldr	r2, [r3, #100]	; 0x64
    5efe:	f89d 3003 	ldrb.w	r3, [sp, #3]
    5f02:	00db      	lsls	r3, r3, #3
    5f04:	2110      	movs	r1, #16
    5f06:	fa01 f303 	lsl.w	r3, r1, r3
    5f0a:	43db      	mvns	r3, r3
    5f0c:	401a      	ands	r2, r3
    5f0e:	9b01      	ldr	r3, [sp, #4]
    5f10:	665a      	str	r2, [r3, #100]	; 0x64
    5f12:	bf00      	nop
    5f14:	b002      	add	sp, #8
    5f16:	4770      	bx	lr

00005f18 <Ftm_Pwm_Ip_SetDualChnPwmSyncCmd>:
    5f18:	b082      	sub	sp, #8
    5f1a:	9001      	str	r0, [sp, #4]
    5f1c:	460b      	mov	r3, r1
    5f1e:	f88d 3003 	strb.w	r3, [sp, #3]
    5f22:	4613      	mov	r3, r2
    5f24:	f88d 3002 	strb.w	r3, [sp, #2]
    5f28:	f89d 3002 	ldrb.w	r3, [sp, #2]
    5f2c:	2b00      	cmp	r3, #0
    5f2e:	d00b      	beq.n	5f48 <Ftm_Pwm_Ip_SetDualChnPwmSyncCmd+0x30>
    5f30:	9b01      	ldr	r3, [sp, #4]
    5f32:	6e5a      	ldr	r2, [r3, #100]	; 0x64
    5f34:	f89d 3003 	ldrb.w	r3, [sp, #3]
    5f38:	00db      	lsls	r3, r3, #3
    5f3a:	2120      	movs	r1, #32
    5f3c:	fa01 f303 	lsl.w	r3, r1, r3
    5f40:	431a      	orrs	r2, r3
    5f42:	9b01      	ldr	r3, [sp, #4]
    5f44:	665a      	str	r2, [r3, #100]	; 0x64
    5f46:	e00b      	b.n	5f60 <Ftm_Pwm_Ip_SetDualChnPwmSyncCmd+0x48>
    5f48:	9b01      	ldr	r3, [sp, #4]
    5f4a:	6e5a      	ldr	r2, [r3, #100]	; 0x64
    5f4c:	f89d 3003 	ldrb.w	r3, [sp, #3]
    5f50:	00db      	lsls	r3, r3, #3
    5f52:	2120      	movs	r1, #32
    5f54:	fa01 f303 	lsl.w	r3, r1, r3
    5f58:	43db      	mvns	r3, r3
    5f5a:	401a      	ands	r2, r3
    5f5c:	9b01      	ldr	r3, [sp, #4]
    5f5e:	665a      	str	r2, [r3, #100]	; 0x64
    5f60:	bf00      	nop
    5f62:	b002      	add	sp, #8
    5f64:	4770      	bx	lr

00005f66 <Ftm_Pwm_Ip_SetDualChnMCombineCmd>:
    5f66:	b082      	sub	sp, #8
    5f68:	9001      	str	r0, [sp, #4]
    5f6a:	460b      	mov	r3, r1
    5f6c:	f88d 3003 	strb.w	r3, [sp, #3]
    5f70:	4613      	mov	r3, r2
    5f72:	f88d 3002 	strb.w	r3, [sp, #2]
    5f76:	f89d 3002 	ldrb.w	r3, [sp, #2]
    5f7a:	2b00      	cmp	r3, #0
    5f7c:	d00b      	beq.n	5f96 <Ftm_Pwm_Ip_SetDualChnMCombineCmd+0x30>
    5f7e:	9b01      	ldr	r3, [sp, #4]
    5f80:	6e5a      	ldr	r2, [r3, #100]	; 0x64
    5f82:	f89d 3003 	ldrb.w	r3, [sp, #3]
    5f86:	00db      	lsls	r3, r3, #3
    5f88:	2180      	movs	r1, #128	; 0x80
    5f8a:	fa01 f303 	lsl.w	r3, r1, r3
    5f8e:	431a      	orrs	r2, r3
    5f90:	9b01      	ldr	r3, [sp, #4]
    5f92:	665a      	str	r2, [r3, #100]	; 0x64
    5f94:	e00b      	b.n	5fae <Ftm_Pwm_Ip_SetDualChnMCombineCmd+0x48>
    5f96:	9b01      	ldr	r3, [sp, #4]
    5f98:	6e5a      	ldr	r2, [r3, #100]	; 0x64
    5f9a:	f89d 3003 	ldrb.w	r3, [sp, #3]
    5f9e:	00db      	lsls	r3, r3, #3
    5fa0:	2180      	movs	r1, #128	; 0x80
    5fa2:	fa01 f303 	lsl.w	r3, r1, r3
    5fa6:	43db      	mvns	r3, r3
    5fa8:	401a      	ands	r2, r3
    5faa:	9b01      	ldr	r3, [sp, #4]
    5fac:	665a      	str	r2, [r3, #100]	; 0x64
    5fae:	bf00      	nop
    5fb0:	b002      	add	sp, #8
    5fb2:	4770      	bx	lr

00005fb4 <Ftm_Pwm_Ip_SetDeadtimeCount>:
    5fb4:	b082      	sub	sp, #8
    5fb6:	9001      	str	r0, [sp, #4]
    5fb8:	460b      	mov	r3, r1
    5fba:	f88d 3003 	strb.w	r3, [sp, #3]
    5fbe:	9b01      	ldr	r3, [sp, #4]
    5fc0:	6e9b      	ldr	r3, [r3, #104]	; 0x68
    5fc2:	f023 023f 	bic.w	r2, r3, #63	; 0x3f
    5fc6:	f89d 3003 	ldrb.w	r3, [sp, #3]
    5fca:	f003 033f 	and.w	r3, r3, #63	; 0x3f
    5fce:	431a      	orrs	r2, r3
    5fd0:	9b01      	ldr	r3, [sp, #4]
    5fd2:	669a      	str	r2, [r3, #104]	; 0x68
    5fd4:	bf00      	nop
    5fd6:	b002      	add	sp, #8
    5fd8:	4770      	bx	lr

00005fda <Ftm_Pwm_Ip_SetDeadtimePrescaler>:
    5fda:	b082      	sub	sp, #8
    5fdc:	9001      	str	r0, [sp, #4]
    5fde:	9100      	str	r1, [sp, #0]
    5fe0:	9b01      	ldr	r3, [sp, #4]
    5fe2:	6e9b      	ldr	r3, [r3, #104]	; 0x68
    5fe4:	f023 02c0 	bic.w	r2, r3, #192	; 0xc0
    5fe8:	9b00      	ldr	r3, [sp, #0]
    5fea:	b2db      	uxtb	r3, r3
    5fec:	019b      	lsls	r3, r3, #6
    5fee:	b2db      	uxtb	r3, r3
    5ff0:	431a      	orrs	r2, r3
    5ff2:	9b01      	ldr	r3, [sp, #4]
    5ff4:	669a      	str	r2, [r3, #104]	; 0x68
    5ff6:	bf00      	nop
    5ff8:	b002      	add	sp, #8
    5ffa:	4770      	bx	lr

00005ffc <Ftm_Pwm_Ip_SetExtDeadtimeValue>:
    5ffc:	b082      	sub	sp, #8
    5ffe:	9001      	str	r0, [sp, #4]
    6000:	460b      	mov	r3, r1
    6002:	f88d 3003 	strb.w	r3, [sp, #3]
    6006:	9b01      	ldr	r3, [sp, #4]
    6008:	6e9b      	ldr	r3, [r3, #104]	; 0x68
    600a:	f423 2270 	bic.w	r2, r3, #983040	; 0xf0000
    600e:	f89d 3003 	ldrb.w	r3, [sp, #3]
    6012:	041b      	lsls	r3, r3, #16
    6014:	f403 2370 	and.w	r3, r3, #983040	; 0xf0000
    6018:	431a      	orrs	r2, r3
    601a:	9b01      	ldr	r3, [sp, #4]
    601c:	669a      	str	r2, [r3, #104]	; 0x68
    601e:	bf00      	nop
    6020:	b002      	add	sp, #8
    6022:	4770      	bx	lr

00006024 <Ftm_Pwm_Ip_SetInitTriggerCmd>:
    6024:	b082      	sub	sp, #8
    6026:	9001      	str	r0, [sp, #4]
    6028:	460b      	mov	r3, r1
    602a:	f88d 3003 	strb.w	r3, [sp, #3]
    602e:	9b01      	ldr	r3, [sp, #4]
    6030:	6edb      	ldr	r3, [r3, #108]	; 0x6c
    6032:	f023 0340 	bic.w	r3, r3, #64	; 0x40
    6036:	f89d 2003 	ldrb.w	r2, [sp, #3]
    603a:	2a00      	cmp	r2, #0
    603c:	d001      	beq.n	6042 <Ftm_Pwm_Ip_SetInitTriggerCmd+0x1e>
    603e:	2240      	movs	r2, #64	; 0x40
    6040:	e000      	b.n	6044 <Ftm_Pwm_Ip_SetInitTriggerCmd+0x20>
    6042:	2200      	movs	r2, #0
    6044:	431a      	orrs	r2, r3
    6046:	9b01      	ldr	r3, [sp, #4]
    6048:	66da      	str	r2, [r3, #108]	; 0x6c
    604a:	bf00      	nop
    604c:	b002      	add	sp, #8
    604e:	4770      	bx	lr

00006050 <Ftm_Pwm_Ip_DisableTriggerMask>:
    6050:	b082      	sub	sp, #8
    6052:	9001      	str	r0, [sp, #4]
    6054:	9100      	str	r1, [sp, #0]
    6056:	9b01      	ldr	r3, [sp, #4]
    6058:	6eda      	ldr	r2, [r3, #108]	; 0x6c
    605a:	9b00      	ldr	r3, [sp, #0]
    605c:	43db      	mvns	r3, r3
    605e:	401a      	ands	r2, r3
    6060:	9b01      	ldr	r3, [sp, #4]
    6062:	66da      	str	r2, [r3, #108]	; 0x6c
    6064:	bf00      	nop
    6066:	b002      	add	sp, #8
    6068:	4770      	bx	lr

0000606a <Ftm_Pwm_Ip_EnableTriggerMask>:
    606a:	b082      	sub	sp, #8
    606c:	9001      	str	r0, [sp, #4]
    606e:	9100      	str	r1, [sp, #0]
    6070:	9b01      	ldr	r3, [sp, #4]
    6072:	6eda      	ldr	r2, [r3, #108]	; 0x6c
    6074:	9b00      	ldr	r3, [sp, #0]
    6076:	43db      	mvns	r3, r3
    6078:	401a      	ands	r2, r3
    607a:	9b00      	ldr	r3, [sp, #0]
    607c:	431a      	orrs	r2, r3
    607e:	9b01      	ldr	r3, [sp, #4]
    6080:	66da      	str	r2, [r3, #108]	; 0x6c
    6082:	bf00      	nop
    6084:	b002      	add	sp, #8
    6086:	4770      	bx	lr

00006088 <Ftm_Pwm_Ip_SetChnOutputPolarityCmd>:
    6088:	b084      	sub	sp, #16
    608a:	9003      	str	r0, [sp, #12]
    608c:	460b      	mov	r3, r1
    608e:	9201      	str	r2, [sp, #4]
    6090:	f88d 300b 	strb.w	r3, [sp, #11]
    6094:	9b01      	ldr	r3, [sp, #4]
    6096:	2b00      	cmp	r3, #0
    6098:	d10b      	bne.n	60b2 <Ftm_Pwm_Ip_SetChnOutputPolarityCmd+0x2a>
    609a:	9b03      	ldr	r3, [sp, #12]
    609c:	6f1a      	ldr	r2, [r3, #112]	; 0x70
    609e:	f89d 300b 	ldrb.w	r3, [sp, #11]
    60a2:	2101      	movs	r1, #1
    60a4:	fa01 f303 	lsl.w	r3, r1, r3
    60a8:	43db      	mvns	r3, r3
    60aa:	401a      	ands	r2, r3
    60ac:	9b03      	ldr	r3, [sp, #12]
    60ae:	671a      	str	r2, [r3, #112]	; 0x70
    60b0:	e009      	b.n	60c6 <Ftm_Pwm_Ip_SetChnOutputPolarityCmd+0x3e>
    60b2:	9b03      	ldr	r3, [sp, #12]
    60b4:	6f1a      	ldr	r2, [r3, #112]	; 0x70
    60b6:	f89d 300b 	ldrb.w	r3, [sp, #11]
    60ba:	2101      	movs	r1, #1
    60bc:	fa01 f303 	lsl.w	r3, r1, r3
    60c0:	431a      	orrs	r2, r3
    60c2:	9b03      	ldr	r3, [sp, #12]
    60c4:	671a      	str	r2, [r3, #112]	; 0x70
    60c6:	bf00      	nop
    60c8:	b004      	add	sp, #16
    60ca:	4770      	bx	lr

000060cc <Ftm_Pwm_Ip_GetChnOutputPolarity>:
    60cc:	b082      	sub	sp, #8
    60ce:	9001      	str	r0, [sp, #4]
    60d0:	460b      	mov	r3, r1
    60d2:	f88d 3003 	strb.w	r3, [sp, #3]
    60d6:	9b01      	ldr	r3, [sp, #4]
    60d8:	6f1a      	ldr	r2, [r3, #112]	; 0x70
    60da:	f89d 3003 	ldrb.w	r3, [sp, #3]
    60de:	fa22 f303 	lsr.w	r3, r2, r3
    60e2:	f003 0301 	and.w	r3, r3, #1
    60e6:	2b01      	cmp	r3, #1
    60e8:	bf0c      	ite	eq
    60ea:	2301      	moveq	r3, #1
    60ec:	2300      	movne	r3, #0
    60ee:	b2db      	uxtb	r3, r3
    60f0:	4618      	mov	r0, r3
    60f2:	b002      	add	sp, #8
    60f4:	4770      	bx	lr

000060f6 <Ftm_Pwm_Ip_SetLoadFreq>:
    60f6:	b082      	sub	sp, #8
    60f8:	9001      	str	r0, [sp, #4]
    60fa:	460b      	mov	r3, r1
    60fc:	f88d 3003 	strb.w	r3, [sp, #3]
    6100:	9b01      	ldr	r3, [sp, #4]
    6102:	f8d3 3084 	ldr.w	r3, [r3, #132]	; 0x84
    6106:	f023 021f 	bic.w	r2, r3, #31
    610a:	f89d 3003 	ldrb.w	r3, [sp, #3]
    610e:	f003 031f 	and.w	r3, r3, #31
    6112:	431a      	orrs	r2, r3
    6114:	9b01      	ldr	r3, [sp, #4]
    6116:	f8c3 2084 	str.w	r2, [r3, #132]	; 0x84
    611a:	bf00      	nop
    611c:	b002      	add	sp, #8
    611e:	4770      	bx	lr

00006120 <Ftm_Pwm_Ip_SetBdmMode>:
    6120:	b082      	sub	sp, #8
    6122:	9001      	str	r0, [sp, #4]
    6124:	9100      	str	r1, [sp, #0]
    6126:	9b01      	ldr	r3, [sp, #4]
    6128:	f8d3 3084 	ldr.w	r3, [r3, #132]	; 0x84
    612c:	f023 02c0 	bic.w	r2, r3, #192	; 0xc0
    6130:	9b00      	ldr	r3, [sp, #0]
    6132:	019b      	lsls	r3, r3, #6
    6134:	b2db      	uxtb	r3, r3
    6136:	431a      	orrs	r2, r3
    6138:	9b01      	ldr	r3, [sp, #4]
    613a:	f8c3 2084 	str.w	r2, [r3, #132]	; 0x84
    613e:	bf00      	nop
    6140:	b002      	add	sp, #8
    6142:	4770      	bx	lr

00006144 <Ftm_Pwm_Ip_SetInitTriggerMode>:
    6144:	b082      	sub	sp, #8
    6146:	9001      	str	r0, [sp, #4]
    6148:	9100      	str	r1, [sp, #0]
    614a:	9b01      	ldr	r3, [sp, #4]
    614c:	f8d3 3084 	ldr.w	r3, [r3, #132]	; 0x84
    6150:	f423 6200 	bic.w	r2, r3, #2048	; 0x800
    6154:	9b00      	ldr	r3, [sp, #0]
    6156:	02db      	lsls	r3, r3, #11
    6158:	f403 6300 	and.w	r3, r3, #2048	; 0x800
    615c:	431a      	orrs	r2, r3
    615e:	9b01      	ldr	r3, [sp, #4]
    6160:	f8c3 2084 	str.w	r2, [r3, #132]	; 0x84
    6164:	bf00      	nop
    6166:	b002      	add	sp, #8
    6168:	4770      	bx	lr

0000616a <Ftm_Pwm_Ip_SetHwTriggerSyncModeCmd>:
    616a:	b082      	sub	sp, #8
    616c:	9001      	str	r0, [sp, #4]
    616e:	460b      	mov	r3, r1
    6170:	f88d 3003 	strb.w	r3, [sp, #3]
    6174:	9b01      	ldr	r3, [sp, #4]
    6176:	f8d3 308c 	ldr.w	r3, [r3, #140]	; 0x8c
    617a:	f023 0301 	bic.w	r3, r3, #1
    617e:	f89d 2003 	ldrb.w	r2, [sp, #3]
    6182:	2a00      	cmp	r2, #0
    6184:	d001      	beq.n	618a <Ftm_Pwm_Ip_SetHwTriggerSyncModeCmd+0x20>
    6186:	2201      	movs	r2, #1
    6188:	e000      	b.n	618c <Ftm_Pwm_Ip_SetHwTriggerSyncModeCmd+0x22>
    618a:	2200      	movs	r2, #0
    618c:	431a      	orrs	r2, r3
    618e:	9b01      	ldr	r3, [sp, #4]
    6190:	f8c3 208c 	str.w	r2, [r3, #140]	; 0x8c
    6194:	bf00      	nop
    6196:	b002      	add	sp, #8
    6198:	4770      	bx	lr

0000619a <Ftm_Pwm_Ip_SetCntinPwmSyncModeCmd>:
    619a:	b082      	sub	sp, #8
    619c:	9001      	str	r0, [sp, #4]
    619e:	460b      	mov	r3, r1
    61a0:	f88d 3003 	strb.w	r3, [sp, #3]
    61a4:	9b01      	ldr	r3, [sp, #4]
    61a6:	f8d3 308c 	ldr.w	r3, [r3, #140]	; 0x8c
    61aa:	f023 0304 	bic.w	r3, r3, #4
    61ae:	f89d 2003 	ldrb.w	r2, [sp, #3]
    61b2:	2a00      	cmp	r2, #0
    61b4:	d001      	beq.n	61ba <Ftm_Pwm_Ip_SetCntinPwmSyncModeCmd+0x20>
    61b6:	2204      	movs	r2, #4
    61b8:	e000      	b.n	61bc <Ftm_Pwm_Ip_SetCntinPwmSyncModeCmd+0x22>
    61ba:	2200      	movs	r2, #0
    61bc:	431a      	orrs	r2, r3
    61be:	9b01      	ldr	r3, [sp, #4]
    61c0:	f8c3 208c 	str.w	r2, [r3, #140]	; 0x8c
    61c4:	bf00      	nop
    61c6:	b002      	add	sp, #8
    61c8:	4770      	bx	lr

000061ca <Ftm_Pwm_Ip_SetInvctrlPwmSyncModeCmd>:
    61ca:	b082      	sub	sp, #8
    61cc:	9001      	str	r0, [sp, #4]
    61ce:	460b      	mov	r3, r1
    61d0:	f88d 3003 	strb.w	r3, [sp, #3]
    61d4:	9b01      	ldr	r3, [sp, #4]
    61d6:	f8d3 308c 	ldr.w	r3, [r3, #140]	; 0x8c
    61da:	f023 0310 	bic.w	r3, r3, #16
    61de:	f89d 2003 	ldrb.w	r2, [sp, #3]
    61e2:	2a00      	cmp	r2, #0
    61e4:	d001      	beq.n	61ea <Ftm_Pwm_Ip_SetInvctrlPwmSyncModeCmd+0x20>
    61e6:	2210      	movs	r2, #16
    61e8:	e000      	b.n	61ec <Ftm_Pwm_Ip_SetInvctrlPwmSyncModeCmd+0x22>
    61ea:	2200      	movs	r2, #0
    61ec:	431a      	orrs	r2, r3
    61ee:	9b01      	ldr	r3, [sp, #4]
    61f0:	f8c3 208c 	str.w	r2, [r3, #140]	; 0x8c
    61f4:	bf00      	nop
    61f6:	b002      	add	sp, #8
    61f8:	4770      	bx	lr

000061fa <Ftm_Pwm_Ip_SetSwoctrlPwmSyncModeCmd>:
    61fa:	b082      	sub	sp, #8
    61fc:	9001      	str	r0, [sp, #4]
    61fe:	460b      	mov	r3, r1
    6200:	f88d 3003 	strb.w	r3, [sp, #3]
    6204:	9b01      	ldr	r3, [sp, #4]
    6206:	f8d3 308c 	ldr.w	r3, [r3, #140]	; 0x8c
    620a:	f023 0320 	bic.w	r3, r3, #32
    620e:	f89d 2003 	ldrb.w	r2, [sp, #3]
    6212:	2a00      	cmp	r2, #0
    6214:	d001      	beq.n	621a <Ftm_Pwm_Ip_SetSwoctrlPwmSyncModeCmd+0x20>
    6216:	2220      	movs	r2, #32
    6218:	e000      	b.n	621c <Ftm_Pwm_Ip_SetSwoctrlPwmSyncModeCmd+0x22>
    621a:	2200      	movs	r2, #0
    621c:	431a      	orrs	r2, r3
    621e:	9b01      	ldr	r3, [sp, #4]
    6220:	f8c3 208c 	str.w	r2, [r3, #140]	; 0x8c
    6224:	bf00      	nop
    6226:	b002      	add	sp, #8
    6228:	4770      	bx	lr

0000622a <Ftm_Pwm_Ip_SetPwmSyncModeCmd>:
    622a:	b082      	sub	sp, #8
    622c:	9001      	str	r0, [sp, #4]
    622e:	460b      	mov	r3, r1
    6230:	f88d 3003 	strb.w	r3, [sp, #3]
    6234:	9b01      	ldr	r3, [sp, #4]
    6236:	f8d3 308c 	ldr.w	r3, [r3, #140]	; 0x8c
    623a:	f023 0380 	bic.w	r3, r3, #128	; 0x80
    623e:	f89d 2003 	ldrb.w	r2, [sp, #3]
    6242:	2a00      	cmp	r2, #0
    6244:	d001      	beq.n	624a <Ftm_Pwm_Ip_SetPwmSyncModeCmd+0x20>
    6246:	2280      	movs	r2, #128	; 0x80
    6248:	e000      	b.n	624c <Ftm_Pwm_Ip_SetPwmSyncModeCmd+0x22>
    624a:	2200      	movs	r2, #0
    624c:	431a      	orrs	r2, r3
    624e:	9b01      	ldr	r3, [sp, #4]
    6250:	f8c3 208c 	str.w	r2, [r3, #140]	; 0x8c
    6254:	bf00      	nop
    6256:	b002      	add	sp, #8
    6258:	4770      	bx	lr

0000625a <Ftm_Pwm_Ip_SetCounterSoftwareSyncModeCmd>:
    625a:	b082      	sub	sp, #8
    625c:	9001      	str	r0, [sp, #4]
    625e:	460b      	mov	r3, r1
    6260:	f88d 3003 	strb.w	r3, [sp, #3]
    6264:	9b01      	ldr	r3, [sp, #4]
    6266:	f8d3 308c 	ldr.w	r3, [r3, #140]	; 0x8c
    626a:	f423 7380 	bic.w	r3, r3, #256	; 0x100
    626e:	f89d 2003 	ldrb.w	r2, [sp, #3]
    6272:	2a00      	cmp	r2, #0
    6274:	d002      	beq.n	627c <Ftm_Pwm_Ip_SetCounterSoftwareSyncModeCmd+0x22>
    6276:	f44f 7280 	mov.w	r2, #256	; 0x100
    627a:	e000      	b.n	627e <Ftm_Pwm_Ip_SetCounterSoftwareSyncModeCmd+0x24>
    627c:	2200      	movs	r2, #0
    627e:	431a      	orrs	r2, r3
    6280:	9b01      	ldr	r3, [sp, #4]
    6282:	f8c3 208c 	str.w	r2, [r3, #140]	; 0x8c
    6286:	bf00      	nop
    6288:	b002      	add	sp, #8
    628a:	4770      	bx	lr

0000628c <Ftm_Pwm_Ip_SetModCntinCvSoftwareSyncModeCmd>:
    628c:	b082      	sub	sp, #8
    628e:	9001      	str	r0, [sp, #4]
    6290:	460b      	mov	r3, r1
    6292:	f88d 3003 	strb.w	r3, [sp, #3]
    6296:	9b01      	ldr	r3, [sp, #4]
    6298:	f8d3 308c 	ldr.w	r3, [r3, #140]	; 0x8c
    629c:	f423 7300 	bic.w	r3, r3, #512	; 0x200
    62a0:	f89d 2003 	ldrb.w	r2, [sp, #3]
    62a4:	2a00      	cmp	r2, #0
    62a6:	d002      	beq.n	62ae <Ftm_Pwm_Ip_SetModCntinCvSoftwareSyncModeCmd+0x22>
    62a8:	f44f 7200 	mov.w	r2, #512	; 0x200
    62ac:	e000      	b.n	62b0 <Ftm_Pwm_Ip_SetModCntinCvSoftwareSyncModeCmd+0x24>
    62ae:	2200      	movs	r2, #0
    62b0:	431a      	orrs	r2, r3
    62b2:	9b01      	ldr	r3, [sp, #4]
    62b4:	f8c3 208c 	str.w	r2, [r3, #140]	; 0x8c
    62b8:	bf00      	nop
    62ba:	b002      	add	sp, #8
    62bc:	4770      	bx	lr

000062be <Ftm_Pwm_Ip_SetOutmaskSoftwareSyncModeCmd>:
    62be:	b082      	sub	sp, #8
    62c0:	9001      	str	r0, [sp, #4]
    62c2:	460b      	mov	r3, r1
    62c4:	f88d 3003 	strb.w	r3, [sp, #3]
    62c8:	9b01      	ldr	r3, [sp, #4]
    62ca:	f8d3 308c 	ldr.w	r3, [r3, #140]	; 0x8c
    62ce:	f423 6380 	bic.w	r3, r3, #1024	; 0x400
    62d2:	f89d 2003 	ldrb.w	r2, [sp, #3]
    62d6:	2a00      	cmp	r2, #0
    62d8:	d002      	beq.n	62e0 <Ftm_Pwm_Ip_SetOutmaskSoftwareSyncModeCmd+0x22>
    62da:	f44f 6280 	mov.w	r2, #1024	; 0x400
    62de:	e000      	b.n	62e2 <Ftm_Pwm_Ip_SetOutmaskSoftwareSyncModeCmd+0x24>
    62e0:	2200      	movs	r2, #0
    62e2:	431a      	orrs	r2, r3
    62e4:	9b01      	ldr	r3, [sp, #4]
    62e6:	f8c3 208c 	str.w	r2, [r3, #140]	; 0x8c
    62ea:	bf00      	nop
    62ec:	b002      	add	sp, #8
    62ee:	4770      	bx	lr

000062f0 <Ftm_Pwm_Ip_SetInvctrlSoftwareSyncModeCmd>:
    62f0:	b082      	sub	sp, #8
    62f2:	9001      	str	r0, [sp, #4]
    62f4:	460b      	mov	r3, r1
    62f6:	f88d 3003 	strb.w	r3, [sp, #3]
    62fa:	9b01      	ldr	r3, [sp, #4]
    62fc:	f8d3 308c 	ldr.w	r3, [r3, #140]	; 0x8c
    6300:	f423 6300 	bic.w	r3, r3, #2048	; 0x800
    6304:	f89d 2003 	ldrb.w	r2, [sp, #3]
    6308:	2a00      	cmp	r2, #0
    630a:	d002      	beq.n	6312 <Ftm_Pwm_Ip_SetInvctrlSoftwareSyncModeCmd+0x22>
    630c:	f44f 6200 	mov.w	r2, #2048	; 0x800
    6310:	e000      	b.n	6314 <Ftm_Pwm_Ip_SetInvctrlSoftwareSyncModeCmd+0x24>
    6312:	2200      	movs	r2, #0
    6314:	431a      	orrs	r2, r3
    6316:	9b01      	ldr	r3, [sp, #4]
    6318:	f8c3 208c 	str.w	r2, [r3, #140]	; 0x8c
    631c:	bf00      	nop
    631e:	b002      	add	sp, #8
    6320:	4770      	bx	lr

00006322 <Ftm_Pwm_Ip_SetSwoctrlSoftwareSyncModeCmd>:
    6322:	b082      	sub	sp, #8
    6324:	9001      	str	r0, [sp, #4]
    6326:	460b      	mov	r3, r1
    6328:	f88d 3003 	strb.w	r3, [sp, #3]
    632c:	9b01      	ldr	r3, [sp, #4]
    632e:	f8d3 308c 	ldr.w	r3, [r3, #140]	; 0x8c
    6332:	f423 5380 	bic.w	r3, r3, #4096	; 0x1000
    6336:	f89d 2003 	ldrb.w	r2, [sp, #3]
    633a:	2a00      	cmp	r2, #0
    633c:	d002      	beq.n	6344 <Ftm_Pwm_Ip_SetSwoctrlSoftwareSyncModeCmd+0x22>
    633e:	f44f 5280 	mov.w	r2, #4096	; 0x1000
    6342:	e000      	b.n	6346 <Ftm_Pwm_Ip_SetSwoctrlSoftwareSyncModeCmd+0x24>
    6344:	2200      	movs	r2, #0
    6346:	431a      	orrs	r2, r3
    6348:	9b01      	ldr	r3, [sp, #4]
    634a:	f8c3 208c 	str.w	r2, [r3, #140]	; 0x8c
    634e:	bf00      	nop
    6350:	b002      	add	sp, #8
    6352:	4770      	bx	lr

00006354 <Ftm_Pwm_Ip_SetCounterHardwareSyncModeCmd>:
    6354:	b082      	sub	sp, #8
    6356:	9001      	str	r0, [sp, #4]
    6358:	460b      	mov	r3, r1
    635a:	f88d 3003 	strb.w	r3, [sp, #3]
    635e:	9b01      	ldr	r3, [sp, #4]
    6360:	f8d3 308c 	ldr.w	r3, [r3, #140]	; 0x8c
    6364:	f423 3380 	bic.w	r3, r3, #65536	; 0x10000
    6368:	f89d 2003 	ldrb.w	r2, [sp, #3]
    636c:	2a00      	cmp	r2, #0
    636e:	d002      	beq.n	6376 <Ftm_Pwm_Ip_SetCounterHardwareSyncModeCmd+0x22>
    6370:	f44f 3280 	mov.w	r2, #65536	; 0x10000
    6374:	e000      	b.n	6378 <Ftm_Pwm_Ip_SetCounterHardwareSyncModeCmd+0x24>
    6376:	2200      	movs	r2, #0
    6378:	431a      	orrs	r2, r3
    637a:	9b01      	ldr	r3, [sp, #4]
    637c:	f8c3 208c 	str.w	r2, [r3, #140]	; 0x8c
    6380:	bf00      	nop
    6382:	b002      	add	sp, #8
    6384:	4770      	bx	lr

00006386 <Ftm_Pwm_Ip_SetModCntinCvHardwareSyncModeCmd>:
    6386:	b082      	sub	sp, #8
    6388:	9001      	str	r0, [sp, #4]
    638a:	460b      	mov	r3, r1
    638c:	f88d 3003 	strb.w	r3, [sp, #3]
    6390:	9b01      	ldr	r3, [sp, #4]
    6392:	f8d3 308c 	ldr.w	r3, [r3, #140]	; 0x8c
    6396:	f423 3300 	bic.w	r3, r3, #131072	; 0x20000
    639a:	f89d 2003 	ldrb.w	r2, [sp, #3]
    639e:	2a00      	cmp	r2, #0
    63a0:	d002      	beq.n	63a8 <Ftm_Pwm_Ip_SetModCntinCvHardwareSyncModeCmd+0x22>
    63a2:	f44f 3200 	mov.w	r2, #131072	; 0x20000
    63a6:	e000      	b.n	63aa <Ftm_Pwm_Ip_SetModCntinCvHardwareSyncModeCmd+0x24>
    63a8:	2200      	movs	r2, #0
    63aa:	431a      	orrs	r2, r3
    63ac:	9b01      	ldr	r3, [sp, #4]
    63ae:	f8c3 208c 	str.w	r2, [r3, #140]	; 0x8c
    63b2:	bf00      	nop
    63b4:	b002      	add	sp, #8
    63b6:	4770      	bx	lr

000063b8 <Ftm_Pwm_Ip_SetOutmaskHardwareSyncModeCmd>:
    63b8:	b082      	sub	sp, #8
    63ba:	9001      	str	r0, [sp, #4]
    63bc:	460b      	mov	r3, r1
    63be:	f88d 3003 	strb.w	r3, [sp, #3]
    63c2:	9b01      	ldr	r3, [sp, #4]
    63c4:	f8d3 308c 	ldr.w	r3, [r3, #140]	; 0x8c
    63c8:	f423 2380 	bic.w	r3, r3, #262144	; 0x40000
    63cc:	f89d 2003 	ldrb.w	r2, [sp, #3]
    63d0:	2a00      	cmp	r2, #0
    63d2:	d002      	beq.n	63da <Ftm_Pwm_Ip_SetOutmaskHardwareSyncModeCmd+0x22>
    63d4:	f44f 2280 	mov.w	r2, #262144	; 0x40000
    63d8:	e000      	b.n	63dc <Ftm_Pwm_Ip_SetOutmaskHardwareSyncModeCmd+0x24>
    63da:	2200      	movs	r2, #0
    63dc:	431a      	orrs	r2, r3
    63de:	9b01      	ldr	r3, [sp, #4]
    63e0:	f8c3 208c 	str.w	r2, [r3, #140]	; 0x8c
    63e4:	bf00      	nop
    63e6:	b002      	add	sp, #8
    63e8:	4770      	bx	lr

000063ea <Ftm_Pwm_Ip_SetInvctrlHardwareSyncModeCmd>:
    63ea:	b082      	sub	sp, #8
    63ec:	9001      	str	r0, [sp, #4]
    63ee:	460b      	mov	r3, r1
    63f0:	f88d 3003 	strb.w	r3, [sp, #3]
    63f4:	9b01      	ldr	r3, [sp, #4]
    63f6:	f8d3 308c 	ldr.w	r3, [r3, #140]	; 0x8c
    63fa:	f423 2300 	bic.w	r3, r3, #524288	; 0x80000
    63fe:	f89d 2003 	ldrb.w	r2, [sp, #3]
    6402:	2a00      	cmp	r2, #0
    6404:	d002      	beq.n	640c <Ftm_Pwm_Ip_SetInvctrlHardwareSyncModeCmd+0x22>
    6406:	f44f 2200 	mov.w	r2, #524288	; 0x80000
    640a:	e000      	b.n	640e <Ftm_Pwm_Ip_SetInvctrlHardwareSyncModeCmd+0x24>
    640c:	2200      	movs	r2, #0
    640e:	431a      	orrs	r2, r3
    6410:	9b01      	ldr	r3, [sp, #4]
    6412:	f8c3 208c 	str.w	r2, [r3, #140]	; 0x8c
    6416:	bf00      	nop
    6418:	b002      	add	sp, #8
    641a:	4770      	bx	lr

0000641c <Ftm_Pwm_Ip_SetChnSoftwareCtrlVal>:
    641c:	b084      	sub	sp, #16
    641e:	9001      	str	r0, [sp, #4]
    6420:	460b      	mov	r3, r1
    6422:	f88d 3003 	strb.w	r3, [sp, #3]
    6426:	4613      	mov	r3, r2
    6428:	f88d 3002 	strb.w	r3, [sp, #2]
    642c:	9b01      	ldr	r3, [sp, #4]
    642e:	6f1a      	ldr	r2, [r3, #112]	; 0x70
    6430:	f89d 3003 	ldrb.w	r3, [sp, #3]
    6434:	fa22 f303 	lsr.w	r3, r2, r3
    6438:	b2db      	uxtb	r3, r3
    643a:	f003 0301 	and.w	r3, r3, #1
    643e:	f88d 300f 	strb.w	r3, [sp, #15]
    6442:	f89d 300f 	ldrb.w	r3, [sp, #15]
    6446:	2b00      	cmp	r3, #0
    6448:	bf14      	ite	ne
    644a:	2301      	movne	r3, #1
    644c:	2300      	moveq	r3, #0
    644e:	f88d 300e 	strb.w	r3, [sp, #14]
    6452:	f89d 2002 	ldrb.w	r2, [sp, #2]
    6456:	f89d 300e 	ldrb.w	r3, [sp, #14]
    645a:	429a      	cmp	r2, r3
    645c:	d00d      	beq.n	647a <Ftm_Pwm_Ip_SetChnSoftwareCtrlVal+0x5e>
    645e:	9b01      	ldr	r3, [sp, #4]
    6460:	f8d3 2094 	ldr.w	r2, [r3, #148]	; 0x94
    6464:	f89d 3003 	ldrb.w	r3, [sp, #3]
    6468:	3308      	adds	r3, #8
    646a:	2101      	movs	r1, #1
    646c:	fa01 f303 	lsl.w	r3, r1, r3
    6470:	431a      	orrs	r2, r3
    6472:	9b01      	ldr	r3, [sp, #4]
    6474:	f8c3 2094 	str.w	r2, [r3, #148]	; 0x94
    6478:	e00d      	b.n	6496 <Ftm_Pwm_Ip_SetChnSoftwareCtrlVal+0x7a>
    647a:	9b01      	ldr	r3, [sp, #4]
    647c:	f8d3 2094 	ldr.w	r2, [r3, #148]	; 0x94
    6480:	f89d 3003 	ldrb.w	r3, [sp, #3]
    6484:	3308      	adds	r3, #8
    6486:	2101      	movs	r1, #1
    6488:	fa01 f303 	lsl.w	r3, r1, r3
    648c:	43db      	mvns	r3, r3
    648e:	401a      	ands	r2, r3
    6490:	9b01      	ldr	r3, [sp, #4]
    6492:	f8c3 2094 	str.w	r2, [r3, #148]	; 0x94
    6496:	bf00      	nop
    6498:	b004      	add	sp, #16
    649a:	4770      	bx	lr

0000649c <Ftm_Pwm_Ip_SetChnSoftwareCtrlCmd>:
    649c:	b082      	sub	sp, #8
    649e:	9001      	str	r0, [sp, #4]
    64a0:	460b      	mov	r3, r1
    64a2:	f88d 3003 	strb.w	r3, [sp, #3]
    64a6:	4613      	mov	r3, r2
    64a8:	f88d 3002 	strb.w	r3, [sp, #2]
    64ac:	f89d 3002 	ldrb.w	r3, [sp, #2]
    64b0:	2b00      	cmp	r3, #0
    64b2:	d00c      	beq.n	64ce <Ftm_Pwm_Ip_SetChnSoftwareCtrlCmd+0x32>
    64b4:	9b01      	ldr	r3, [sp, #4]
    64b6:	f8d3 2094 	ldr.w	r2, [r3, #148]	; 0x94
    64ba:	f89d 3003 	ldrb.w	r3, [sp, #3]
    64be:	2101      	movs	r1, #1
    64c0:	fa01 f303 	lsl.w	r3, r1, r3
    64c4:	431a      	orrs	r2, r3
    64c6:	9b01      	ldr	r3, [sp, #4]
    64c8:	f8c3 2094 	str.w	r2, [r3, #148]	; 0x94
    64cc:	e00c      	b.n	64e8 <Ftm_Pwm_Ip_SetChnSoftwareCtrlCmd+0x4c>
    64ce:	9b01      	ldr	r3, [sp, #4]
    64d0:	f8d3 2094 	ldr.w	r2, [r3, #148]	; 0x94
    64d4:	f89d 3003 	ldrb.w	r3, [sp, #3]
    64d8:	2101      	movs	r1, #1
    64da:	fa01 f303 	lsl.w	r3, r1, r3
    64de:	43db      	mvns	r3, r3
    64e0:	401a      	ands	r2, r3
    64e2:	9b01      	ldr	r3, [sp, #4]
    64e4:	f8c3 2094 	str.w	r2, [r3, #148]	; 0x94
    64e8:	bf00      	nop
    64ea:	b002      	add	sp, #8
    64ec:	4770      	bx	lr

000064ee <Ftm_Pwm_Ip_SoftwareOutputControl>:
    64ee:	b082      	sub	sp, #8
    64f0:	9001      	str	r0, [sp, #4]
    64f2:	460b      	mov	r3, r1
    64f4:	f8ad 3002 	strh.w	r3, [sp, #2]
    64f8:	f8bd 2002 	ldrh.w	r2, [sp, #2]
    64fc:	9b01      	ldr	r3, [sp, #4]
    64fe:	f8c3 2094 	str.w	r2, [r3, #148]	; 0x94
    6502:	bf00      	nop
    6504:	b002      	add	sp, #8
    6506:	4770      	bx	lr

00006508 <Ftm_Pwm_Ip_SetPwmLoadChnSelCmd>:
    6508:	b082      	sub	sp, #8
    650a:	9001      	str	r0, [sp, #4]
    650c:	460b      	mov	r3, r1
    650e:	f88d 3003 	strb.w	r3, [sp, #3]
    6512:	4613      	mov	r3, r2
    6514:	f88d 3002 	strb.w	r3, [sp, #2]
    6518:	f89d 3002 	ldrb.w	r3, [sp, #2]
    651c:	2b00      	cmp	r3, #0
    651e:	d00c      	beq.n	653a <Ftm_Pwm_Ip_SetPwmLoadChnSelCmd+0x32>
    6520:	9b01      	ldr	r3, [sp, #4]
    6522:	f8d3 2098 	ldr.w	r2, [r3, #152]	; 0x98
    6526:	f89d 3003 	ldrb.w	r3, [sp, #3]
    652a:	2101      	movs	r1, #1
    652c:	fa01 f303 	lsl.w	r3, r1, r3
    6530:	431a      	orrs	r2, r3
    6532:	9b01      	ldr	r3, [sp, #4]
    6534:	f8c3 2098 	str.w	r2, [r3, #152]	; 0x98
    6538:	e00c      	b.n	6554 <Ftm_Pwm_Ip_SetPwmLoadChnSelCmd+0x4c>
    653a:	9b01      	ldr	r3, [sp, #4]
    653c:	f8d3 2098 	ldr.w	r2, [r3, #152]	; 0x98
    6540:	f89d 3003 	ldrb.w	r3, [sp, #3]
    6544:	2101      	movs	r1, #1
    6546:	fa01 f303 	lsl.w	r3, r1, r3
    654a:	43db      	mvns	r3, r3
    654c:	401a      	ands	r2, r3
    654e:	9b01      	ldr	r3, [sp, #4]
    6550:	f8c3 2098 	str.w	r2, [r3, #152]	; 0x98
    6554:	bf00      	nop
    6556:	b002      	add	sp, #8
    6558:	4770      	bx	lr

0000655a <Ftm_Pwm_Ip_SetHalfCycleCmd>:
    655a:	b082      	sub	sp, #8
    655c:	9001      	str	r0, [sp, #4]
    655e:	460b      	mov	r3, r1
    6560:	f88d 3003 	strb.w	r3, [sp, #3]
    6564:	f89d 3003 	ldrb.w	r3, [sp, #3]
    6568:	2b00      	cmp	r3, #0
    656a:	d008      	beq.n	657e <Ftm_Pwm_Ip_SetHalfCycleCmd+0x24>
    656c:	9b01      	ldr	r3, [sp, #4]
    656e:	f8d3 3098 	ldr.w	r3, [r3, #152]	; 0x98
    6572:	f443 7280 	orr.w	r2, r3, #256	; 0x100
    6576:	9b01      	ldr	r3, [sp, #4]
    6578:	f8c3 2098 	str.w	r2, [r3, #152]	; 0x98
    657c:	e007      	b.n	658e <Ftm_Pwm_Ip_SetHalfCycleCmd+0x34>
    657e:	9b01      	ldr	r3, [sp, #4]
    6580:	f8d3 3098 	ldr.w	r3, [r3, #152]	; 0x98
    6584:	f423 7280 	bic.w	r2, r3, #256	; 0x100
    6588:	9b01      	ldr	r3, [sp, #4]
    658a:	f8c3 2098 	str.w	r2, [r3, #152]	; 0x98
    658e:	bf00      	nop
    6590:	b002      	add	sp, #8
    6592:	4770      	bx	lr

00006594 <Ftm_Pwm_Ip_SetHalfCycleValue>:
    6594:	b082      	sub	sp, #8
    6596:	9001      	str	r0, [sp, #4]
    6598:	460b      	mov	r3, r1
    659a:	f8ad 3002 	strh.w	r3, [sp, #2]
    659e:	f8bd 2002 	ldrh.w	r2, [sp, #2]
    65a2:	9b01      	ldr	r3, [sp, #4]
    65a4:	f8c3 209c 	str.w	r2, [r3, #156]	; 0x9c
    65a8:	bf00      	nop
    65aa:	b002      	add	sp, #8
    65ac:	4770      	bx	lr

000065ae <Ftm_Pwm_Ip_GetSoftwareOutputControl>:
    65ae:	b082      	sub	sp, #8
    65b0:	9001      	str	r0, [sp, #4]
    65b2:	9b01      	ldr	r3, [sp, #4]
    65b4:	f8d3 3094 	ldr.w	r3, [r3, #148]	; 0x94
    65b8:	b29b      	uxth	r3, r3
    65ba:	4618      	mov	r0, r3
    65bc:	b002      	add	sp, #8
    65be:	4770      	bx	lr

000065c0 <Ftm_Pwm_Ip_GetPolInstance>:
    65c0:	b082      	sub	sp, #8
    65c2:	9001      	str	r0, [sp, #4]
    65c4:	9b01      	ldr	r3, [sp, #4]
    65c6:	6f1b      	ldr	r3, [r3, #112]	; 0x70
    65c8:	b29b      	uxth	r3, r3
    65ca:	4618      	mov	r0, r3
    65cc:	b002      	add	sp, #8
    65ce:	4770      	bx	lr

000065d0 <Ftm_Pwm_Ip_GetChannelMode>:
    65d0:	b500      	push	{lr}
    65d2:	b085      	sub	sp, #20
    65d4:	9001      	str	r0, [sp, #4]
    65d6:	460b      	mov	r3, r1
    65d8:	f88d 3003 	strb.w	r3, [sp, #3]
    65dc:	f89d 3003 	ldrb.w	r3, [sp, #3]
    65e0:	085b      	lsrs	r3, r3, #1
    65e2:	f88d 300b 	strb.w	r3, [sp, #11]
    65e6:	9b01      	ldr	r3, [sp, #4]
    65e8:	6e5a      	ldr	r2, [r3, #100]	; 0x64
    65ea:	f89d 300b 	ldrb.w	r3, [sp, #11]
    65ee:	00db      	lsls	r3, r3, #3
    65f0:	2101      	movs	r1, #1
    65f2:	fa01 f303 	lsl.w	r3, r1, r3
    65f6:	401a      	ands	r2, r3
    65f8:	f89d 300b 	ldrb.w	r3, [sp, #11]
    65fc:	00db      	lsls	r3, r3, #3
    65fe:	fa22 f303 	lsr.w	r3, r2, r3
    6602:	f88d 300a 	strb.w	r3, [sp, #10]
    6606:	9b01      	ldr	r3, [sp, #4]
    6608:	6e5a      	ldr	r2, [r3, #100]	; 0x64
    660a:	f89d 300b 	ldrb.w	r3, [sp, #11]
    660e:	00db      	lsls	r3, r3, #3
    6610:	2180      	movs	r1, #128	; 0x80
    6612:	fa01 f303 	lsl.w	r3, r1, r3
    6616:	401a      	ands	r2, r3
    6618:	f89d 300b 	ldrb.w	r3, [sp, #11]
    661c:	00db      	lsls	r3, r3, #3
    661e:	fa22 f303 	lsr.w	r3, r2, r3
    6622:	f88d 3009 	strb.w	r3, [sp, #9]
    6626:	f89d 3009 	ldrb.w	r3, [sp, #9]
    662a:	2b80      	cmp	r3, #128	; 0x80
    662c:	d101      	bne.n	6632 <Ftm_Pwm_Ip_GetChannelMode+0x62>
    662e:	2301      	movs	r3, #1
    6630:	e000      	b.n	6634 <Ftm_Pwm_Ip_GetChannelMode+0x64>
    6632:	2300      	movs	r3, #0
    6634:	f88d 3009 	strb.w	r3, [sp, #9]
    6638:	f89d 3003 	ldrb.w	r3, [sp, #3]
    663c:	4619      	mov	r1, r3
    663e:	9801      	ldr	r0, [sp, #4]
    6640:	f7ff f99b 	bl	597a <Ftm_Pwm_Ip_GetChnEdgeLevel>
    6644:	4603      	mov	r3, r0
    6646:	f88d 3008 	strb.w	r3, [sp, #8]
    664a:	f89d 3003 	ldrb.w	r3, [sp, #3]
    664e:	4619      	mov	r1, r3
    6650:	9801      	ldr	r0, [sp, #4]
    6652:	f7ff fa2a 	bl	5aaa <Ftm_Pwm_Ip_GetChnMode>
    6656:	4603      	mov	r3, r0
    6658:	009b      	lsls	r3, r3, #2
    665a:	b2da      	uxtb	r2, r3
    665c:	f89d 3008 	ldrb.w	r3, [sp, #8]
    6660:	4313      	orrs	r3, r2
    6662:	f88d 3008 	strb.w	r3, [sp, #8]
    6666:	9801      	ldr	r0, [sp, #4]
    6668:	f7ff f923 	bl	58b2 <Ftm_Pwm_Ip_GetCpwms>
    666c:	4603      	mov	r3, r0
    666e:	b2db      	uxtb	r3, r3
    6670:	011b      	lsls	r3, r3, #4
    6672:	b2da      	uxtb	r2, r3
    6674:	f89d 3008 	ldrb.w	r3, [sp, #8]
    6678:	4313      	orrs	r3, r2
    667a:	f88d 3008 	strb.w	r3, [sp, #8]
    667e:	f89d 300a 	ldrb.w	r3, [sp, #10]
    6682:	015b      	lsls	r3, r3, #5
    6684:	b2da      	uxtb	r2, r3
    6686:	f89d 3008 	ldrb.w	r3, [sp, #8]
    668a:	4313      	orrs	r3, r2
    668c:	f88d 3008 	strb.w	r3, [sp, #8]
    6690:	f89d 3009 	ldrb.w	r3, [sp, #9]
    6694:	019b      	lsls	r3, r3, #6
    6696:	b2da      	uxtb	r2, r3
    6698:	f89d 3008 	ldrb.w	r3, [sp, #8]
    669c:	4313      	orrs	r3, r2
    669e:	f88d 3008 	strb.w	r3, [sp, #8]
    66a2:	f89d 3008 	ldrb.w	r3, [sp, #8]
    66a6:	2b62      	cmp	r3, #98	; 0x62
    66a8:	d055      	beq.n	6756 <Ftm_Pwm_Ip_GetChannelMode+0x186>
    66aa:	2b62      	cmp	r3, #98	; 0x62
    66ac:	dc59      	bgt.n	6762 <Ftm_Pwm_Ip_GetChannelMode+0x192>
    66ae:	2b22      	cmp	r3, #34	; 0x22
    66b0:	dc3c      	bgt.n	672c <Ftm_Pwm_Ip_GetChannelMode+0x15c>
    66b2:	2b09      	cmp	r3, #9
    66b4:	db55      	blt.n	6762 <Ftm_Pwm_Ip_GetChannelMode+0x192>
    66b6:	3b09      	subs	r3, #9
    66b8:	2b19      	cmp	r3, #25
    66ba:	d852      	bhi.n	6762 <Ftm_Pwm_Ip_GetChannelMode+0x192>
    66bc:	a201      	add	r2, pc, #4	; (adr r2, 66c4 <Ftm_Pwm_Ip_GetChannelMode+0xf4>)
    66be:	f852 f023 	ldr.w	pc, [r2, r3, lsl #2]
    66c2:	bf00      	nop
    66c4:	00006739 	.word	0x00006739
    66c8:	00006733 	.word	0x00006733
    66cc:	00006763 	.word	0x00006763
    66d0:	00006763 	.word	0x00006763
    66d4:	00006763 	.word	0x00006763
    66d8:	00006763 	.word	0x00006763
    66dc:	00006763 	.word	0x00006763
    66e0:	00006763 	.word	0x00006763
    66e4:	00006745 	.word	0x00006745
    66e8:	0000673f 	.word	0x0000673f
    66ec:	00006763 	.word	0x00006763
    66f0:	00006763 	.word	0x00006763
    66f4:	00006763 	.word	0x00006763
    66f8:	00006763 	.word	0x00006763
    66fc:	00006763 	.word	0x00006763
    6700:	00006763 	.word	0x00006763
    6704:	00006763 	.word	0x00006763
    6708:	00006763 	.word	0x00006763
    670c:	00006763 	.word	0x00006763
    6710:	00006763 	.word	0x00006763
    6714:	00006763 	.word	0x00006763
    6718:	00006763 	.word	0x00006763
    671c:	00006763 	.word	0x00006763
    6720:	00006763 	.word	0x00006763
    6724:	00006751 	.word	0x00006751
    6728:	0000674b 	.word	0x0000674b
    672c:	2b61      	cmp	r3, #97	; 0x61
    672e:	d015      	beq.n	675c <Ftm_Pwm_Ip_GetChannelMode+0x18c>
    6730:	e017      	b.n	6762 <Ftm_Pwm_Ip_GetChannelMode+0x192>
    6732:	230a      	movs	r3, #10
    6734:	9303      	str	r3, [sp, #12]
    6736:	e017      	b.n	6768 <Ftm_Pwm_Ip_GetChannelMode+0x198>
    6738:	2309      	movs	r3, #9
    673a:	9303      	str	r3, [sp, #12]
    673c:	e014      	b.n	6768 <Ftm_Pwm_Ip_GetChannelMode+0x198>
    673e:	2312      	movs	r3, #18
    6740:	9303      	str	r3, [sp, #12]
    6742:	e011      	b.n	6768 <Ftm_Pwm_Ip_GetChannelMode+0x198>
    6744:	2311      	movs	r3, #17
    6746:	9303      	str	r3, [sp, #12]
    6748:	e00e      	b.n	6768 <Ftm_Pwm_Ip_GetChannelMode+0x198>
    674a:	2322      	movs	r3, #34	; 0x22
    674c:	9303      	str	r3, [sp, #12]
    674e:	e00b      	b.n	6768 <Ftm_Pwm_Ip_GetChannelMode+0x198>
    6750:	2321      	movs	r3, #33	; 0x21
    6752:	9303      	str	r3, [sp, #12]
    6754:	e008      	b.n	6768 <Ftm_Pwm_Ip_GetChannelMode+0x198>
    6756:	2362      	movs	r3, #98	; 0x62
    6758:	9303      	str	r3, [sp, #12]
    675a:	e005      	b.n	6768 <Ftm_Pwm_Ip_GetChannelMode+0x198>
    675c:	2361      	movs	r3, #97	; 0x61
    675e:	9303      	str	r3, [sp, #12]
    6760:	e002      	b.n	6768 <Ftm_Pwm_Ip_GetChannelMode+0x198>
    6762:	23ff      	movs	r3, #255	; 0xff
    6764:	9303      	str	r3, [sp, #12]
    6766:	bf00      	nop
    6768:	9b03      	ldr	r3, [sp, #12]
    676a:	4618      	mov	r0, r3
    676c:	b005      	add	sp, #20
    676e:	f85d fb04 	ldr.w	pc, [sp], #4

00006772 <Ftm_Pwm_Ip_UpdateWriteProtection>:
    6772:	b082      	sub	sp, #8
    6774:	9001      	str	r0, [sp, #4]
    6776:	460b      	mov	r3, r1
    6778:	f88d 3003 	strb.w	r3, [sp, #3]
    677c:	f89d 3003 	ldrb.w	r3, [sp, #3]
    6780:	2b00      	cmp	r3, #0
    6782:	d006      	beq.n	6792 <Ftm_Pwm_Ip_UpdateWriteProtection+0x20>
    6784:	9b01      	ldr	r3, [sp, #4]
    6786:	6f5b      	ldr	r3, [r3, #116]	; 0x74
    6788:	f043 0240 	orr.w	r2, r3, #64	; 0x40
    678c:	9b01      	ldr	r3, [sp, #4]
    678e:	675a      	str	r2, [r3, #116]	; 0x74
    6790:	e00b      	b.n	67aa <Ftm_Pwm_Ip_UpdateWriteProtection+0x38>
    6792:	9b01      	ldr	r3, [sp, #4]
    6794:	6f5b      	ldr	r3, [r3, #116]	; 0x74
    6796:	f003 0340 	and.w	r3, r3, #64	; 0x40
    679a:	2b00      	cmp	r3, #0
    679c:	d005      	beq.n	67aa <Ftm_Pwm_Ip_UpdateWriteProtection+0x38>
    679e:	9b01      	ldr	r3, [sp, #4]
    67a0:	6d5b      	ldr	r3, [r3, #84]	; 0x54
    67a2:	f043 0204 	orr.w	r2, r3, #4
    67a6:	9b01      	ldr	r3, [sp, #4]
    67a8:	655a      	str	r2, [r3, #84]	; 0x54
    67aa:	bf00      	nop
    67ac:	b002      	add	sp, #8
    67ae:	4770      	bx	lr

000067b0 <Ftm_Pwm_Ip_Reset>:
    67b0:	b500      	push	{lr}
    67b2:	b085      	sub	sp, #20
    67b4:	9001      	str	r0, [sp, #4]
    67b6:	2100      	movs	r1, #0
    67b8:	9801      	ldr	r0, [sp, #4]
    67ba:	f7ff ffda 	bl	6772 <Ftm_Pwm_Ip_UpdateWriteProtection>
    67be:	9b01      	ldr	r3, [sp, #4]
    67c0:	681a      	ldr	r2, [r3, #0]
    67c2:	9b01      	ldr	r3, [sp, #4]
    67c4:	601a      	str	r2, [r3, #0]
    67c6:	9b01      	ldr	r3, [sp, #4]
    67c8:	2200      	movs	r2, #0
    67ca:	605a      	str	r2, [r3, #4]
    67cc:	9b01      	ldr	r3, [sp, #4]
    67ce:	2200      	movs	r2, #0
    67d0:	609a      	str	r2, [r3, #8]
    67d2:	9b01      	ldr	r3, [sp, #4]
    67d4:	2200      	movs	r2, #0
    67d6:	64da      	str	r2, [r3, #76]	; 0x4c
    67d8:	9b01      	ldr	r3, [sp, #4]
    67da:	6d1a      	ldr	r2, [r3, #80]	; 0x50
    67dc:	9b01      	ldr	r3, [sp, #4]
    67de:	651a      	str	r2, [r3, #80]	; 0x50
    67e0:	9b01      	ldr	r3, [sp, #4]
    67e2:	2204      	movs	r2, #4
    67e4:	655a      	str	r2, [r3, #84]	; 0x54
    67e6:	9b01      	ldr	r3, [sp, #4]
    67e8:	2200      	movs	r2, #0
    67ea:	659a      	str	r2, [r3, #88]	; 0x58
    67ec:	9b01      	ldr	r3, [sp, #4]
    67ee:	2200      	movs	r2, #0
    67f0:	65da      	str	r2, [r3, #92]	; 0x5c
    67f2:	9b01      	ldr	r3, [sp, #4]
    67f4:	2200      	movs	r2, #0
    67f6:	661a      	str	r2, [r3, #96]	; 0x60
    67f8:	9b01      	ldr	r3, [sp, #4]
    67fa:	2200      	movs	r2, #0
    67fc:	665a      	str	r2, [r3, #100]	; 0x64
    67fe:	9b01      	ldr	r3, [sp, #4]
    6800:	2200      	movs	r2, #0
    6802:	669a      	str	r2, [r3, #104]	; 0x68
    6804:	9b01      	ldr	r3, [sp, #4]
    6806:	6eda      	ldr	r2, [r3, #108]	; 0x6c
    6808:	9b01      	ldr	r3, [sp, #4]
    680a:	66da      	str	r2, [r3, #108]	; 0x6c
    680c:	9b01      	ldr	r3, [sp, #4]
    680e:	2200      	movs	r2, #0
    6810:	671a      	str	r2, [r3, #112]	; 0x70
    6812:	9b01      	ldr	r3, [sp, #4]
    6814:	2200      	movs	r2, #0
    6816:	675a      	str	r2, [r3, #116]	; 0x74
    6818:	9b01      	ldr	r3, [sp, #4]
    681a:	2200      	movs	r2, #0
    681c:	679a      	str	r2, [r3, #120]	; 0x78
    681e:	9b01      	ldr	r3, [sp, #4]
    6820:	2200      	movs	r2, #0
    6822:	f8c3 2080 	str.w	r2, [r3, #128]	; 0x80
    6826:	9b01      	ldr	r3, [sp, #4]
    6828:	2200      	movs	r2, #0
    682a:	f8c3 2084 	str.w	r2, [r3, #132]	; 0x84
    682e:	9b01      	ldr	r3, [sp, #4]
    6830:	2200      	movs	r2, #0
    6832:	f8c3 208c 	str.w	r2, [r3, #140]	; 0x8c
    6836:	9b01      	ldr	r3, [sp, #4]
    6838:	2200      	movs	r2, #0
    683a:	f8c3 2090 	str.w	r2, [r3, #144]	; 0x90
    683e:	9b01      	ldr	r3, [sp, #4]
    6840:	2200      	movs	r2, #0
    6842:	f8c3 2094 	str.w	r2, [r3, #148]	; 0x94
    6846:	9b01      	ldr	r3, [sp, #4]
    6848:	2200      	movs	r2, #0
    684a:	f8c3 2098 	str.w	r2, [r3, #152]	; 0x98
    684e:	9b01      	ldr	r3, [sp, #4]
    6850:	2200      	movs	r2, #0
    6852:	f8c3 209c 	str.w	r2, [r3, #156]	; 0x9c
    6856:	2300      	movs	r3, #0
    6858:	f88d 300f 	strb.w	r3, [sp, #15]
    685c:	e014      	b.n	6888 <Ftm_Pwm_Ip_Reset+0xd8>
    685e:	f89d 300f 	ldrb.w	r3, [sp, #15]
    6862:	9a01      	ldr	r2, [sp, #4]
    6864:	3301      	adds	r3, #1
    6866:	00db      	lsls	r3, r3, #3
    6868:	4413      	add	r3, r2
    686a:	2200      	movs	r2, #0
    686c:	605a      	str	r2, [r3, #4]
    686e:	f89d 300f 	ldrb.w	r3, [sp, #15]
    6872:	9a01      	ldr	r2, [sp, #4]
    6874:	3301      	adds	r3, #1
    6876:	00db      	lsls	r3, r3, #3
    6878:	4413      	add	r3, r2
    687a:	2200      	movs	r2, #0
    687c:	609a      	str	r2, [r3, #8]
    687e:	f89d 300f 	ldrb.w	r3, [sp, #15]
    6882:	3301      	adds	r3, #1
    6884:	f88d 300f 	strb.w	r3, [sp, #15]
    6888:	f89d 300f 	ldrb.w	r3, [sp, #15]
    688c:	2b07      	cmp	r3, #7
    688e:	d9e6      	bls.n	685e <Ftm_Pwm_Ip_Reset+0xae>
    6890:	bf00      	nop
    6892:	bf00      	nop
    6894:	b005      	add	sp, #20
    6896:	f85d fb04 	ldr.w	pc, [sp], #4

0000689a <Ftm_Pwm_Ip_SetChnTriggerCmd>:
    689a:	b084      	sub	sp, #16
    689c:	9001      	str	r0, [sp, #4]
    689e:	460b      	mov	r3, r1
    68a0:	f88d 3003 	strb.w	r3, [sp, #3]
    68a4:	4613      	mov	r3, r2
    68a6:	f88d 3002 	strb.w	r3, [sp, #2]
    68aa:	2300      	movs	r3, #0
    68ac:	9303      	str	r3, [sp, #12]
    68ae:	f89d 3003 	ldrb.w	r3, [sp, #3]
    68b2:	2b01      	cmp	r3, #1
    68b4:	d806      	bhi.n	68c4 <Ftm_Pwm_Ip_SetChnTriggerCmd+0x2a>
    68b6:	f89d 3003 	ldrb.w	r3, [sp, #3]
    68ba:	2210      	movs	r2, #16
    68bc:	fa02 f303 	lsl.w	r3, r2, r3
    68c0:	9303      	str	r3, [sp, #12]
    68c2:	e013      	b.n	68ec <Ftm_Pwm_Ip_SetChnTriggerCmd+0x52>
    68c4:	f89d 3003 	ldrb.w	r3, [sp, #3]
    68c8:	2b05      	cmp	r3, #5
    68ca:	d807      	bhi.n	68dc <Ftm_Pwm_Ip_SetChnTriggerCmd+0x42>
    68cc:	f89d 3003 	ldrb.w	r3, [sp, #3]
    68d0:	3b02      	subs	r3, #2
    68d2:	2201      	movs	r2, #1
    68d4:	fa02 f303 	lsl.w	r3, r2, r3
    68d8:	9303      	str	r3, [sp, #12]
    68da:	e007      	b.n	68ec <Ftm_Pwm_Ip_SetChnTriggerCmd+0x52>
    68dc:	f89d 3003 	ldrb.w	r3, [sp, #3]
    68e0:	3b06      	subs	r3, #6
    68e2:	f44f 7280 	mov.w	r2, #256	; 0x100
    68e6:	fa02 f303 	lsl.w	r3, r2, r3
    68ea:	9303      	str	r3, [sp, #12]
    68ec:	f89d 3002 	ldrb.w	r3, [sp, #2]
    68f0:	2b00      	cmp	r3, #0
    68f2:	d006      	beq.n	6902 <Ftm_Pwm_Ip_SetChnTriggerCmd+0x68>
    68f4:	9b01      	ldr	r3, [sp, #4]
    68f6:	6eda      	ldr	r2, [r3, #108]	; 0x6c
    68f8:	9b03      	ldr	r3, [sp, #12]
    68fa:	431a      	orrs	r2, r3
    68fc:	9b01      	ldr	r3, [sp, #4]
    68fe:	66da      	str	r2, [r3, #108]	; 0x6c
    6900:	e006      	b.n	6910 <Ftm_Pwm_Ip_SetChnTriggerCmd+0x76>
    6902:	9b01      	ldr	r3, [sp, #4]
    6904:	6eda      	ldr	r2, [r3, #108]	; 0x6c
    6906:	9b03      	ldr	r3, [sp, #12]
    6908:	43db      	mvns	r3, r3
    690a:	401a      	ands	r2, r3
    690c:	9b01      	ldr	r3, [sp, #4]
    690e:	66da      	str	r2, [r3, #108]	; 0x6c
    6910:	bf00      	nop
    6912:	b004      	add	sp, #16
    6914:	4770      	bx	lr

00006916 <Ftm_Pwm_Ip_SetFaultControlMode>:
    6916:	b082      	sub	sp, #8
    6918:	9001      	str	r0, [sp, #4]
    691a:	9100      	str	r1, [sp, #0]
    691c:	9b00      	ldr	r3, [sp, #0]
    691e:	2b03      	cmp	r3, #3
    6920:	d82a      	bhi.n	6978 <Ftm_Pwm_Ip_SetFaultControlMode+0x62>
    6922:	a201      	add	r2, pc, #4	; (adr r2, 6928 <Ftm_Pwm_Ip_SetFaultControlMode+0x12>)
    6924:	f852 f023 	ldr.w	pc, [r2, r3, lsl #2]
    6928:	00006939 	.word	0x00006939
    692c:	00006947 	.word	0x00006947
    6930:	00006959 	.word	0x00006959
    6934:	0000696b 	.word	0x0000696b
    6938:	9b01      	ldr	r3, [sp, #4]
    693a:	6d5b      	ldr	r3, [r3, #84]	; 0x54
    693c:	f023 0260 	bic.w	r2, r3, #96	; 0x60
    6940:	9b01      	ldr	r3, [sp, #4]
    6942:	655a      	str	r2, [r3, #84]	; 0x54
    6944:	e019      	b.n	697a <Ftm_Pwm_Ip_SetFaultControlMode+0x64>
    6946:	9b01      	ldr	r3, [sp, #4]
    6948:	6d5b      	ldr	r3, [r3, #84]	; 0x54
    694a:	f023 0360 	bic.w	r3, r3, #96	; 0x60
    694e:	f043 0220 	orr.w	r2, r3, #32
    6952:	9b01      	ldr	r3, [sp, #4]
    6954:	655a      	str	r2, [r3, #84]	; 0x54
    6956:	e010      	b.n	697a <Ftm_Pwm_Ip_SetFaultControlMode+0x64>
    6958:	9b01      	ldr	r3, [sp, #4]
    695a:	6d5b      	ldr	r3, [r3, #84]	; 0x54
    695c:	f023 0360 	bic.w	r3, r3, #96	; 0x60
    6960:	f043 0240 	orr.w	r2, r3, #64	; 0x40
    6964:	9b01      	ldr	r3, [sp, #4]
    6966:	655a      	str	r2, [r3, #84]	; 0x54
    6968:	e007      	b.n	697a <Ftm_Pwm_Ip_SetFaultControlMode+0x64>
    696a:	9b01      	ldr	r3, [sp, #4]
    696c:	6d5b      	ldr	r3, [r3, #84]	; 0x54
    696e:	f043 0260 	orr.w	r2, r3, #96	; 0x60
    6972:	9b01      	ldr	r3, [sp, #4]
    6974:	655a      	str	r2, [r3, #84]	; 0x54
    6976:	e000      	b.n	697a <Ftm_Pwm_Ip_SetFaultControlMode+0x64>
    6978:	bf00      	nop
    697a:	bf00      	nop
    697c:	b002      	add	sp, #8
    697e:	4770      	bx	lr

00006980 <Ftm_Pwm_Ip_SetDualChFaultCtr>:
    6980:	b082      	sub	sp, #8
    6982:	9001      	str	r0, [sp, #4]
    6984:	460b      	mov	r3, r1
    6986:	f88d 3003 	strb.w	r3, [sp, #3]
    698a:	4613      	mov	r3, r2
    698c:	f88d 3002 	strb.w	r3, [sp, #2]
    6990:	f89d 3002 	ldrb.w	r3, [sp, #2]
    6994:	2b00      	cmp	r3, #0
    6996:	d00b      	beq.n	69b0 <Ftm_Pwm_Ip_SetDualChFaultCtr+0x30>
    6998:	9b01      	ldr	r3, [sp, #4]
    699a:	6e5a      	ldr	r2, [r3, #100]	; 0x64
    699c:	f89d 3003 	ldrb.w	r3, [sp, #3]
    69a0:	00db      	lsls	r3, r3, #3
    69a2:	2140      	movs	r1, #64	; 0x40
    69a4:	fa01 f303 	lsl.w	r3, r1, r3
    69a8:	431a      	orrs	r2, r3
    69aa:	9b01      	ldr	r3, [sp, #4]
    69ac:	665a      	str	r2, [r3, #100]	; 0x64
    69ae:	e00b      	b.n	69c8 <Ftm_Pwm_Ip_SetDualChFaultCtr+0x48>
    69b0:	9b01      	ldr	r3, [sp, #4]
    69b2:	6e5a      	ldr	r2, [r3, #100]	; 0x64
    69b4:	f89d 3003 	ldrb.w	r3, [sp, #3]
    69b8:	00db      	lsls	r3, r3, #3
    69ba:	2140      	movs	r1, #64	; 0x40
    69bc:	fa01 f303 	lsl.w	r3, r1, r3
    69c0:	43db      	mvns	r3, r3
    69c2:	401a      	ands	r2, r3
    69c4:	9b01      	ldr	r3, [sp, #4]
    69c6:	665a      	str	r2, [r3, #100]	; 0x64
    69c8:	bf00      	nop
    69ca:	b002      	add	sp, #8
    69cc:	4770      	bx	lr

000069ce <Ftm_Pwm_Ip_SetFaultInterruptEnable>:
    69ce:	b082      	sub	sp, #8
    69d0:	9001      	str	r0, [sp, #4]
    69d2:	460b      	mov	r3, r1
    69d4:	f88d 3003 	strb.w	r3, [sp, #3]
    69d8:	9b01      	ldr	r3, [sp, #4]
    69da:	6d5b      	ldr	r3, [r3, #84]	; 0x54
    69dc:	f023 0380 	bic.w	r3, r3, #128	; 0x80
    69e0:	f89d 2003 	ldrb.w	r2, [sp, #3]
    69e4:	2a00      	cmp	r2, #0
    69e6:	d001      	beq.n	69ec <Ftm_Pwm_Ip_SetFaultInterruptEnable+0x1e>
    69e8:	2280      	movs	r2, #128	; 0x80
    69ea:	e000      	b.n	69ee <Ftm_Pwm_Ip_SetFaultInterruptEnable+0x20>
    69ec:	2200      	movs	r2, #0
    69ee:	431a      	orrs	r2, r3
    69f0:	9b01      	ldr	r3, [sp, #4]
    69f2:	655a      	str	r2, [r3, #84]	; 0x54
    69f4:	bf00      	nop
    69f6:	b002      	add	sp, #8
    69f8:	4770      	bx	lr

000069fa <Ftm_Pwm_Ip_ClearFaultFlag>:
    69fa:	b082      	sub	sp, #8
    69fc:	9001      	str	r0, [sp, #4]
    69fe:	9b01      	ldr	r3, [sp, #4]
    6a00:	6f5b      	ldr	r3, [r3, #116]	; 0x74
    6a02:	f023 0280 	bic.w	r2, r3, #128	; 0x80
    6a06:	9b01      	ldr	r3, [sp, #4]
    6a08:	675a      	str	r2, [r3, #116]	; 0x74
    6a0a:	bf00      	nop
    6a0c:	b002      	add	sp, #8
    6a0e:	4770      	bx	lr

00006a10 <Ftm_Pwm_Ip_SetFaultFilterValue>:
    6a10:	b082      	sub	sp, #8
    6a12:	9001      	str	r0, [sp, #4]
    6a14:	460b      	mov	r3, r1
    6a16:	f88d 3003 	strb.w	r3, [sp, #3]
    6a1a:	9b01      	ldr	r3, [sp, #4]
    6a1c:	6fdb      	ldr	r3, [r3, #124]	; 0x7c
    6a1e:	f423 6270 	bic.w	r2, r3, #3840	; 0xf00
    6a22:	f89d 3003 	ldrb.w	r3, [sp, #3]
    6a26:	021b      	lsls	r3, r3, #8
    6a28:	f403 6370 	and.w	r3, r3, #3840	; 0xf00
    6a2c:	431a      	orrs	r2, r3
    6a2e:	9b01      	ldr	r3, [sp, #4]
    6a30:	67da      	str	r2, [r3, #124]	; 0x7c
    6a32:	bf00      	nop
    6a34:	b002      	add	sp, #8
    6a36:	4770      	bx	lr

00006a38 <Ftm_Pwm_Ip_SetFaultOutputState>:
    6a38:	b082      	sub	sp, #8
    6a3a:	9001      	str	r0, [sp, #4]
    6a3c:	9100      	str	r1, [sp, #0]
    6a3e:	9b01      	ldr	r3, [sp, #4]
    6a40:	6fdb      	ldr	r3, [r3, #124]	; 0x7c
    6a42:	f423 4300 	bic.w	r3, r3, #32768	; 0x8000
    6a46:	9a00      	ldr	r2, [sp, #0]
    6a48:	2a00      	cmp	r2, #0
    6a4a:	d002      	beq.n	6a52 <Ftm_Pwm_Ip_SetFaultOutputState+0x1a>
    6a4c:	f44f 4200 	mov.w	r2, #32768	; 0x8000
    6a50:	e000      	b.n	6a54 <Ftm_Pwm_Ip_SetFaultOutputState+0x1c>
    6a52:	2200      	movs	r2, #0
    6a54:	431a      	orrs	r2, r3
    6a56:	9b01      	ldr	r3, [sp, #4]
    6a58:	67da      	str	r2, [r3, #124]	; 0x7c
    6a5a:	bf00      	nop
    6a5c:	b002      	add	sp, #8
    6a5e:	4770      	bx	lr

00006a60 <Ftm_Pwm_Ip_SetFaultPolarity>:
    6a60:	b086      	sub	sp, #24
    6a62:	9003      	str	r0, [sp, #12]
    6a64:	460b      	mov	r3, r1
    6a66:	9201      	str	r2, [sp, #4]
    6a68:	f88d 300b 	strb.w	r3, [sp, #11]
    6a6c:	9b01      	ldr	r3, [sp, #4]
    6a6e:	2b00      	cmp	r3, #0
    6a70:	bf14      	ite	ne
    6a72:	2301      	movne	r3, #1
    6a74:	2300      	moveq	r3, #0
    6a76:	b2db      	uxtb	r3, r3
    6a78:	9305      	str	r3, [sp, #20]
    6a7a:	9b03      	ldr	r3, [sp, #12]
    6a7c:	f8d3 2088 	ldr.w	r2, [r3, #136]	; 0x88
    6a80:	f89d 300b 	ldrb.w	r3, [sp, #11]
    6a84:	2101      	movs	r1, #1
    6a86:	fa01 f303 	lsl.w	r3, r1, r3
    6a8a:	43db      	mvns	r3, r3
    6a8c:	401a      	ands	r2, r3
    6a8e:	f89d 300b 	ldrb.w	r3, [sp, #11]
    6a92:	9905      	ldr	r1, [sp, #20]
    6a94:	fa01 f303 	lsl.w	r3, r1, r3
    6a98:	431a      	orrs	r2, r3
    6a9a:	9b03      	ldr	r3, [sp, #12]
    6a9c:	f8c3 2088 	str.w	r2, [r3, #136]	; 0x88
    6aa0:	bf00      	nop
    6aa2:	b006      	add	sp, #24
    6aa4:	4770      	bx	lr

00006aa6 <Ftm_Pwm_Ip_SetFaultInputEn>:
    6aa6:	b084      	sub	sp, #16
    6aa8:	9001      	str	r0, [sp, #4]
    6aaa:	460b      	mov	r3, r1
    6aac:	f88d 3003 	strb.w	r3, [sp, #3]
    6ab0:	4613      	mov	r3, r2
    6ab2:	f88d 3002 	strb.w	r3, [sp, #2]
    6ab6:	f89d 3002 	ldrb.w	r3, [sp, #2]
    6aba:	2b00      	cmp	r3, #0
    6abc:	d001      	beq.n	6ac2 <Ftm_Pwm_Ip_SetFaultInputEn+0x1c>
    6abe:	2301      	movs	r3, #1
    6ac0:	e000      	b.n	6ac4 <Ftm_Pwm_Ip_SetFaultInputEn+0x1e>
    6ac2:	2300      	movs	r3, #0
    6ac4:	9303      	str	r3, [sp, #12]
    6ac6:	9b01      	ldr	r3, [sp, #4]
    6ac8:	6fda      	ldr	r2, [r3, #124]	; 0x7c
    6aca:	f89d 3003 	ldrb.w	r3, [sp, #3]
    6ace:	2101      	movs	r1, #1
    6ad0:	fa01 f303 	lsl.w	r3, r1, r3
    6ad4:	43db      	mvns	r3, r3
    6ad6:	401a      	ands	r2, r3
    6ad8:	f89d 3003 	ldrb.w	r3, [sp, #3]
    6adc:	9903      	ldr	r1, [sp, #12]
    6ade:	fa01 f303 	lsl.w	r3, r1, r3
    6ae2:	431a      	orrs	r2, r3
    6ae4:	9b01      	ldr	r3, [sp, #4]
    6ae6:	67da      	str	r2, [r3, #124]	; 0x7c
    6ae8:	bf00      	nop
    6aea:	b004      	add	sp, #16
    6aec:	4770      	bx	lr

00006aee <Ftm_Pwm_Ip_SetFaultFilterEn>:
    6aee:	b084      	sub	sp, #16
    6af0:	9001      	str	r0, [sp, #4]
    6af2:	460b      	mov	r3, r1
    6af4:	f88d 3003 	strb.w	r3, [sp, #3]
    6af8:	4613      	mov	r3, r2
    6afa:	f88d 3002 	strb.w	r3, [sp, #2]
    6afe:	f89d 3002 	ldrb.w	r3, [sp, #2]
    6b02:	2b00      	cmp	r3, #0
    6b04:	d001      	beq.n	6b0a <Ftm_Pwm_Ip_SetFaultFilterEn+0x1c>
    6b06:	2301      	movs	r3, #1
    6b08:	e000      	b.n	6b0c <Ftm_Pwm_Ip_SetFaultFilterEn+0x1e>
    6b0a:	2300      	movs	r3, #0
    6b0c:	9303      	str	r3, [sp, #12]
    6b0e:	9b01      	ldr	r3, [sp, #4]
    6b10:	6fda      	ldr	r2, [r3, #124]	; 0x7c
    6b12:	f89d 3003 	ldrb.w	r3, [sp, #3]
    6b16:	2110      	movs	r1, #16
    6b18:	fa01 f303 	lsl.w	r3, r1, r3
    6b1c:	43db      	mvns	r3, r3
    6b1e:	401a      	ands	r2, r3
    6b20:	f89d 3003 	ldrb.w	r3, [sp, #3]
    6b24:	9903      	ldr	r1, [sp, #12]
    6b26:	fa01 f303 	lsl.w	r3, r1, r3
    6b2a:	011b      	lsls	r3, r3, #4
    6b2c:	431a      	orrs	r2, r3
    6b2e:	9b01      	ldr	r3, [sp, #4]
    6b30:	67da      	str	r2, [r3, #124]	; 0x7c
    6b32:	bf00      	nop
    6b34:	b004      	add	sp, #16
    6b36:	4770      	bx	lr

00006b38 <Ftm_Pwm_Ip_SetSimOutputBufferEn>:
    6b38:	b082      	sub	sp, #8
    6b3a:	9001      	str	r0, [sp, #4]
    6b3c:	460b      	mov	r3, r1
    6b3e:	f88d 3003 	strb.w	r3, [sp, #3]
    6b42:	f89d 3003 	ldrb.w	r3, [sp, #3]
    6b46:	f44f 3280 	mov.w	r2, #65536	; 0x10000
    6b4a:	409a      	lsls	r2, r3
    6b4c:	9b01      	ldr	r3, [sp, #4]
    6b4e:	6a1b      	ldr	r3, [r3, #32]
    6b50:	431a      	orrs	r2, r3
    6b52:	9b01      	ldr	r3, [sp, #4]
    6b54:	621a      	str	r2, [r3, #32]
    6b56:	bf00      	nop
    6b58:	b002      	add	sp, #8
    6b5a:	4770      	bx	lr

00006b5c <Ftm_Pwm_Ip_CalculatePhaseShift>:
    6b5c:	b084      	sub	sp, #16
    6b5e:	4603      	mov	r3, r0
    6b60:	f88d 3007 	strb.w	r3, [sp, #7]
    6b64:	460b      	mov	r3, r1
    6b66:	f8ad 3004 	strh.w	r3, [sp, #4]
    6b6a:	4613      	mov	r3, r2
    6b6c:	f8ad 3002 	strh.w	r3, [sp, #2]
    6b70:	2300      	movs	r3, #0
    6b72:	f8ad 300e 	strh.w	r3, [sp, #14]
    6b76:	f89d 3007 	ldrb.w	r3, [sp, #7]
    6b7a:	4a17      	ldr	r2, [pc, #92]	; (6bd8 <Ftm_Pwm_Ip_CalculatePhaseShift+0x7c>)
    6b7c:	f832 3013 	ldrh.w	r3, [r2, r3, lsl #1]
    6b80:	f8bd 2004 	ldrh.w	r2, [sp, #4]
    6b84:	429a      	cmp	r2, r3
    6b86:	d107      	bne.n	6b98 <Ftm_Pwm_Ip_CalculatePhaseShift+0x3c>
    6b88:	f89d 3007 	ldrb.w	r3, [sp, #7]
    6b8c:	4a12      	ldr	r2, [pc, #72]	; (6bd8 <Ftm_Pwm_Ip_CalculatePhaseShift+0x7c>)
    6b8e:	f832 3013 	ldrh.w	r3, [r2, r3, lsl #1]
    6b92:	f8ad 300e 	strh.w	r3, [sp, #14]
    6b96:	e019      	b.n	6bcc <Ftm_Pwm_Ip_CalculatePhaseShift+0x70>
    6b98:	f8bd 3004 	ldrh.w	r3, [sp, #4]
    6b9c:	2b00      	cmp	r3, #0
    6b9e:	d104      	bne.n	6baa <Ftm_Pwm_Ip_CalculatePhaseShift+0x4e>
    6ba0:	f8bd 3002 	ldrh.w	r3, [sp, #2]
    6ba4:	f8ad 300e 	strh.w	r3, [sp, #14]
    6ba8:	e010      	b.n	6bcc <Ftm_Pwm_Ip_CalculatePhaseShift+0x70>
    6baa:	f8bd 2002 	ldrh.w	r2, [sp, #2]
    6bae:	f8bd 3004 	ldrh.w	r3, [sp, #4]
    6bb2:	4413      	add	r3, r2
    6bb4:	f89d 2007 	ldrb.w	r2, [sp, #7]
    6bb8:	4907      	ldr	r1, [pc, #28]	; (6bd8 <Ftm_Pwm_Ip_CalculatePhaseShift+0x7c>)
    6bba:	f831 2012 	ldrh.w	r2, [r1, r2, lsl #1]
    6bbe:	fb93 f1f2 	sdiv	r1, r3, r2
    6bc2:	fb01 f202 	mul.w	r2, r1, r2
    6bc6:	1a9b      	subs	r3, r3, r2
    6bc8:	f8ad 300e 	strh.w	r3, [sp, #14]
    6bcc:	f8bd 300e 	ldrh.w	r3, [sp, #14]
    6bd0:	4618      	mov	r0, r3
    6bd2:	b004      	add	sp, #16
    6bd4:	4770      	bx	lr
    6bd6:	bf00      	nop
    6bd8:	1fff8cfc 	.word	0x1fff8cfc

00006bdc <Ftm_Pwm_Ip_InitPair>:
    6bdc:	b500      	push	{lr}
    6bde:	b085      	sub	sp, #20
    6be0:	4603      	mov	r3, r0
    6be2:	9100      	str	r1, [sp, #0]
    6be4:	f88d 3007 	strb.w	r3, [sp, #7]
    6be8:	f89d 3007 	ldrb.w	r3, [sp, #7]
    6bec:	4a40      	ldr	r2, [pc, #256]	; (6cf0 <Ftm_Pwm_Ip_InitPair+0x114>)
    6bee:	f852 3023 	ldr.w	r3, [r2, r3, lsl #2]
    6bf2:	9303      	str	r3, [sp, #12]
    6bf4:	2300      	movs	r3, #0
    6bf6:	f88d 300b 	strb.w	r3, [sp, #11]
    6bfa:	2300      	movs	r3, #0
    6bfc:	f88d 300a 	strb.w	r3, [sp, #10]
    6c00:	9b00      	ldr	r3, [sp, #0]
    6c02:	781b      	ldrb	r3, [r3, #0]
    6c04:	005b      	lsls	r3, r3, #1
    6c06:	f88d 300b 	strb.w	r3, [sp, #11]
    6c0a:	f89d 300b 	ldrb.w	r3, [sp, #11]
    6c0e:	3301      	adds	r3, #1
    6c10:	f88d 300a 	strb.w	r3, [sp, #10]
    6c14:	f89d 3007 	ldrb.w	r3, [sp, #7]
    6c18:	9a00      	ldr	r2, [sp, #0]
    6c1a:	7812      	ldrb	r2, [r2, #0]
    6c1c:	4610      	mov	r0, r2
    6c1e:	9a00      	ldr	r2, [sp, #0]
    6c20:	8951      	ldrh	r1, [r2, #10]
    6c22:	4a34      	ldr	r2, [pc, #208]	; (6cf4 <Ftm_Pwm_Ip_InitPair+0x118>)
    6c24:	009b      	lsls	r3, r3, #2
    6c26:	4403      	add	r3, r0
    6c28:	f822 1013 	strh.w	r1, [r2, r3, lsl #1]
    6c2c:	9b00      	ldr	r3, [sp, #0]
    6c2e:	7819      	ldrb	r1, [r3, #0]
    6c30:	9b00      	ldr	r3, [sp, #0]
    6c32:	789b      	ldrb	r3, [r3, #2]
    6c34:	461a      	mov	r2, r3
    6c36:	9803      	ldr	r0, [sp, #12]
    6c38:	f7ff f920 	bl	5e7c <Ftm_Pwm_Ip_SetDualChnCompCmd>
    6c3c:	9b00      	ldr	r3, [sp, #0]
    6c3e:	789b      	ldrb	r3, [r3, #2]
    6c40:	2b00      	cmp	r3, #0
    6c42:	d02f      	beq.n	6ca4 <Ftm_Pwm_Ip_InitPair+0xc8>
    6c44:	f89d 300b 	ldrb.w	r3, [sp, #11]
    6c48:	4619      	mov	r1, r3
    6c4a:	9803      	ldr	r0, [sp, #12]
    6c4c:	f7ff fa3e 	bl	60cc <Ftm_Pwm_Ip_GetChnOutputPolarity>
    6c50:	4603      	mov	r3, r0
    6c52:	2b01      	cmp	r3, #1
    6c54:	d113      	bne.n	6c7e <Ftm_Pwm_Ip_InitPair+0xa2>
    6c56:	9b00      	ldr	r3, [sp, #0]
    6c58:	685b      	ldr	r3, [r3, #4]
    6c5a:	2b01      	cmp	r3, #1
    6c5c:	d107      	bne.n	6c6e <Ftm_Pwm_Ip_InitPair+0x92>
    6c5e:	f89d 300a 	ldrb.w	r3, [sp, #10]
    6c62:	2200      	movs	r2, #0
    6c64:	4619      	mov	r1, r3
    6c66:	9803      	ldr	r0, [sp, #12]
    6c68:	f7ff fa0e 	bl	6088 <Ftm_Pwm_Ip_SetChnOutputPolarityCmd>
    6c6c:	e01a      	b.n	6ca4 <Ftm_Pwm_Ip_InitPair+0xc8>
    6c6e:	f89d 300a 	ldrb.w	r3, [sp, #10]
    6c72:	2201      	movs	r2, #1
    6c74:	4619      	mov	r1, r3
    6c76:	9803      	ldr	r0, [sp, #12]
    6c78:	f7ff fa06 	bl	6088 <Ftm_Pwm_Ip_SetChnOutputPolarityCmd>
    6c7c:	e012      	b.n	6ca4 <Ftm_Pwm_Ip_InitPair+0xc8>
    6c7e:	9b00      	ldr	r3, [sp, #0]
    6c80:	685b      	ldr	r3, [r3, #4]
    6c82:	2b01      	cmp	r3, #1
    6c84:	d107      	bne.n	6c96 <Ftm_Pwm_Ip_InitPair+0xba>
    6c86:	f89d 300a 	ldrb.w	r3, [sp, #10]
    6c8a:	2201      	movs	r2, #1
    6c8c:	4619      	mov	r1, r3
    6c8e:	9803      	ldr	r0, [sp, #12]
    6c90:	f7ff f9fa 	bl	6088 <Ftm_Pwm_Ip_SetChnOutputPolarityCmd>
    6c94:	e006      	b.n	6ca4 <Ftm_Pwm_Ip_InitPair+0xc8>
    6c96:	f89d 300a 	ldrb.w	r3, [sp, #10]
    6c9a:	2200      	movs	r2, #0
    6c9c:	4619      	mov	r1, r3
    6c9e:	9803      	ldr	r0, [sp, #12]
    6ca0:	f7ff f9f2 	bl	6088 <Ftm_Pwm_Ip_SetChnOutputPolarityCmd>
    6ca4:	f89d 300a 	ldrb.w	r3, [sp, #10]
    6ca8:	4619      	mov	r1, r3
    6caa:	9803      	ldr	r0, [sp, #12]
    6cac:	f7fe fe31 	bl	5912 <Ftm_Pwm_Ip_EnablePwmChannelOutputs>
    6cb0:	9b00      	ldr	r3, [sp, #0]
    6cb2:	7819      	ldrb	r1, [r3, #0]
    6cb4:	9b00      	ldr	r3, [sp, #0]
    6cb6:	7a5b      	ldrb	r3, [r3, #9]
    6cb8:	461a      	mov	r2, r3
    6cba:	9803      	ldr	r0, [sp, #12]
    6cbc:	f7ff f92c 	bl	5f18 <Ftm_Pwm_Ip_SetDualChnPwmSyncCmd>
    6cc0:	9b00      	ldr	r3, [sp, #0]
    6cc2:	7819      	ldrb	r1, [r3, #0]
    6cc4:	9b00      	ldr	r3, [sp, #0]
    6cc6:	785b      	ldrb	r3, [r3, #1]
    6cc8:	461a      	mov	r2, r3
    6cca:	9803      	ldr	r0, [sp, #12]
    6ccc:	f7ff f8fd 	bl	5eca <Ftm_Pwm_Ip_SetDualChnDeadtimeCmd>
    6cd0:	9b00      	ldr	r3, [sp, #0]
    6cd2:	7a1a      	ldrb	r2, [r3, #8]
    6cd4:	f89d 300a 	ldrb.w	r3, [sp, #10]
    6cd8:	4619      	mov	r1, r3
    6cda:	9803      	ldr	r0, [sp, #12]
    6cdc:	f7ff fddd 	bl	689a <Ftm_Pwm_Ip_SetChnTriggerCmd>
    6ce0:	2101      	movs	r1, #1
    6ce2:	9803      	ldr	r0, [sp, #12]
    6ce4:	f7ff f814 	bl	5d10 <Ftm_Pwm_Ip_SetSoftwareTriggerCmd>
    6ce8:	bf00      	nop
    6cea:	b005      	add	sp, #20
    6cec:	f85d fb04 	ldr.w	pc, [sp], #4
    6cf0:	0000bb04 	.word	0x0000bb04
    6cf4:	1fff8d44 	.word	0x1fff8d44

00006cf8 <Ftm_Pwm_Ip_DisableCmpIrq>:
    6cf8:	b500      	push	{lr}
    6cfa:	b085      	sub	sp, #20
    6cfc:	4603      	mov	r3, r0
    6cfe:	460a      	mov	r2, r1
    6d00:	f88d 3007 	strb.w	r3, [sp, #7]
    6d04:	4613      	mov	r3, r2
    6d06:	f88d 3006 	strb.w	r3, [sp, #6]
    6d0a:	f89d 3007 	ldrb.w	r3, [sp, #7]
    6d0e:	4a0a      	ldr	r2, [pc, #40]	; (6d38 <Ftm_Pwm_Ip_DisableCmpIrq+0x40>)
    6d10:	f852 3023 	ldr.w	r3, [r2, r3, lsl #2]
    6d14:	9303      	str	r3, [sp, #12]
    6d16:	f89d 3006 	ldrb.w	r3, [sp, #6]
    6d1a:	2200      	movs	r2, #0
    6d1c:	4619      	mov	r1, r3
    6d1e:	9803      	ldr	r0, [sp, #12]
    6d20:	f7fe feed 	bl	5afe <Ftm_Pwm_Ip_UpdateChnInt>
    6d24:	f89d 3006 	ldrb.w	r3, [sp, #6]
    6d28:	4619      	mov	r1, r3
    6d2a:	9803      	ldr	r0, [sp, #12]
    6d2c:	f7fe ff0a 	bl	5b44 <Ftm_Pwm_Ip_ClearChnEventFlag>
    6d30:	bf00      	nop
    6d32:	b005      	add	sp, #20
    6d34:	f85d fb04 	ldr.w	pc, [sp], #4
    6d38:	0000bb04 	.word	0x0000bb04

00006d3c <Ftm_Pwm_Ip_ConfigureSWandHWSync>:
    6d3c:	b500      	push	{lr}
    6d3e:	b085      	sub	sp, #20
    6d40:	4603      	mov	r3, r0
    6d42:	9100      	str	r1, [sp, #0]
    6d44:	f88d 3007 	strb.w	r3, [sp, #7]
    6d48:	f89d 3007 	ldrb.w	r3, [sp, #7]
    6d4c:	4a53      	ldr	r2, [pc, #332]	; (6e9c <Ftm_Pwm_Ip_ConfigureSWandHWSync+0x160>)
    6d4e:	f852 3023 	ldr.w	r3, [r2, r3, lsl #2]
    6d52:	9303      	str	r3, [sp, #12]
    6d54:	9b00      	ldr	r3, [sp, #0]
    6d56:	681b      	ldr	r3, [r3, #0]
    6d58:	2b00      	cmp	r3, #0
    6d5a:	d002      	beq.n	6d62 <Ftm_Pwm_Ip_ConfigureSWandHWSync+0x26>
    6d5c:	2b01      	cmp	r3, #1
    6d5e:	d04c      	beq.n	6dfa <Ftm_Pwm_Ip_ConfigureSWandHWSync+0xbe>
    6d60:	e097      	b.n	6e92 <Ftm_Pwm_Ip_ConfigureSWandHWSync+0x156>
    6d62:	9b00      	ldr	r3, [sp, #0]
    6d64:	699b      	ldr	r3, [r3, #24]
    6d66:	2b00      	cmp	r3, #0
    6d68:	bf14      	ite	ne
    6d6a:	2301      	movne	r3, #1
    6d6c:	2300      	moveq	r3, #0
    6d6e:	b2db      	uxtb	r3, r3
    6d70:	4619      	mov	r1, r3
    6d72:	9803      	ldr	r0, [sp, #12]
    6d74:	f7ff faa3 	bl	62be <Ftm_Pwm_Ip_SetOutmaskSoftwareSyncModeCmd>
    6d78:	2100      	movs	r1, #0
    6d7a:	9803      	ldr	r0, [sp, #12]
    6d7c:	f7ff fb1c 	bl	63b8 <Ftm_Pwm_Ip_SetOutmaskHardwareSyncModeCmd>
    6d80:	9b00      	ldr	r3, [sp, #0]
    6d82:	691b      	ldr	r3, [r3, #16]
    6d84:	2b00      	cmp	r3, #0
    6d86:	bf14      	ite	ne
    6d88:	2301      	movne	r3, #1
    6d8a:	2300      	moveq	r3, #0
    6d8c:	b2db      	uxtb	r3, r3
    6d8e:	4619      	mov	r1, r3
    6d90:	9803      	ldr	r0, [sp, #12]
    6d92:	f7ff faad 	bl	62f0 <Ftm_Pwm_Ip_SetInvctrlSoftwareSyncModeCmd>
    6d96:	2100      	movs	r1, #0
    6d98:	9803      	ldr	r0, [sp, #12]
    6d9a:	f7ff fb26 	bl	63ea <Ftm_Pwm_Ip_SetInvctrlHardwareSyncModeCmd>
    6d9e:	9b00      	ldr	r3, [sp, #0]
    6da0:	695b      	ldr	r3, [r3, #20]
    6da2:	2b00      	cmp	r3, #0
    6da4:	bf14      	ite	ne
    6da6:	2301      	movne	r3, #1
    6da8:	2300      	moveq	r3, #0
    6daa:	b2db      	uxtb	r3, r3
    6dac:	4619      	mov	r1, r3
    6dae:	9803      	ldr	r0, [sp, #12]
    6db0:	f7ff fab7 	bl	6322 <Ftm_Pwm_Ip_SetSwoctrlSoftwareSyncModeCmd>
    6db4:	2100      	movs	r1, #0
    6db6:	9803      	ldr	r0, [sp, #12]
    6db8:	f7ff fb17 	bl	63ea <Ftm_Pwm_Ip_SetInvctrlHardwareSyncModeCmd>
    6dbc:	9b00      	ldr	r3, [sp, #0]
    6dbe:	69db      	ldr	r3, [r3, #28]
    6dc0:	2b00      	cmp	r3, #0
    6dc2:	bf14      	ite	ne
    6dc4:	2301      	movne	r3, #1
    6dc6:	2300      	moveq	r3, #0
    6dc8:	b2db      	uxtb	r3, r3
    6dca:	4619      	mov	r1, r3
    6dcc:	9803      	ldr	r0, [sp, #12]
    6dce:	f7ff fa5d 	bl	628c <Ftm_Pwm_Ip_SetModCntinCvSoftwareSyncModeCmd>
    6dd2:	2100      	movs	r1, #0
    6dd4:	9803      	ldr	r0, [sp, #12]
    6dd6:	f7ff fad6 	bl	6386 <Ftm_Pwm_Ip_SetModCntinCvHardwareSyncModeCmd>
    6dda:	9b00      	ldr	r3, [sp, #0]
    6ddc:	6a1b      	ldr	r3, [r3, #32]
    6dde:	2b00      	cmp	r3, #0
    6de0:	bf14      	ite	ne
    6de2:	2301      	movne	r3, #1
    6de4:	2300      	moveq	r3, #0
    6de6:	b2db      	uxtb	r3, r3
    6de8:	4619      	mov	r1, r3
    6dea:	9803      	ldr	r0, [sp, #12]
    6dec:	f7ff fa35 	bl	625a <Ftm_Pwm_Ip_SetCounterSoftwareSyncModeCmd>
    6df0:	2100      	movs	r1, #0
    6df2:	9803      	ldr	r0, [sp, #12]
    6df4:	f7ff faae 	bl	6354 <Ftm_Pwm_Ip_SetCounterHardwareSyncModeCmd>
    6df8:	e04b      	b.n	6e92 <Ftm_Pwm_Ip_ConfigureSWandHWSync+0x156>
    6dfa:	2100      	movs	r1, #0
    6dfc:	9803      	ldr	r0, [sp, #12]
    6dfe:	f7ff fa5e 	bl	62be <Ftm_Pwm_Ip_SetOutmaskSoftwareSyncModeCmd>
    6e02:	9b00      	ldr	r3, [sp, #0]
    6e04:	699b      	ldr	r3, [r3, #24]
    6e06:	2b00      	cmp	r3, #0
    6e08:	bf14      	ite	ne
    6e0a:	2301      	movne	r3, #1
    6e0c:	2300      	moveq	r3, #0
    6e0e:	b2db      	uxtb	r3, r3
    6e10:	4619      	mov	r1, r3
    6e12:	9803      	ldr	r0, [sp, #12]
    6e14:	f7ff fad0 	bl	63b8 <Ftm_Pwm_Ip_SetOutmaskHardwareSyncModeCmd>
    6e18:	2100      	movs	r1, #0
    6e1a:	9803      	ldr	r0, [sp, #12]
    6e1c:	f7ff fa68 	bl	62f0 <Ftm_Pwm_Ip_SetInvctrlSoftwareSyncModeCmd>
    6e20:	9b00      	ldr	r3, [sp, #0]
    6e22:	691b      	ldr	r3, [r3, #16]
    6e24:	2b00      	cmp	r3, #0
    6e26:	bf14      	ite	ne
    6e28:	2301      	movne	r3, #1
    6e2a:	2300      	moveq	r3, #0
    6e2c:	b2db      	uxtb	r3, r3
    6e2e:	4619      	mov	r1, r3
    6e30:	9803      	ldr	r0, [sp, #12]
    6e32:	f7ff fada 	bl	63ea <Ftm_Pwm_Ip_SetInvctrlHardwareSyncModeCmd>
    6e36:	2100      	movs	r1, #0
    6e38:	9803      	ldr	r0, [sp, #12]
    6e3a:	f7ff fa72 	bl	6322 <Ftm_Pwm_Ip_SetSwoctrlSoftwareSyncModeCmd>
    6e3e:	9b00      	ldr	r3, [sp, #0]
    6e40:	695b      	ldr	r3, [r3, #20]
    6e42:	2b00      	cmp	r3, #0
    6e44:	bf14      	ite	ne
    6e46:	2301      	movne	r3, #1
    6e48:	2300      	moveq	r3, #0
    6e4a:	b2db      	uxtb	r3, r3
    6e4c:	4619      	mov	r1, r3
    6e4e:	9803      	ldr	r0, [sp, #12]
    6e50:	f7ff facb 	bl	63ea <Ftm_Pwm_Ip_SetInvctrlHardwareSyncModeCmd>
    6e54:	2100      	movs	r1, #0
    6e56:	9803      	ldr	r0, [sp, #12]
    6e58:	f7ff fa18 	bl	628c <Ftm_Pwm_Ip_SetModCntinCvSoftwareSyncModeCmd>
    6e5c:	9b00      	ldr	r3, [sp, #0]
    6e5e:	69db      	ldr	r3, [r3, #28]
    6e60:	2b00      	cmp	r3, #0
    6e62:	bf14      	ite	ne
    6e64:	2301      	movne	r3, #1
    6e66:	2300      	moveq	r3, #0
    6e68:	b2db      	uxtb	r3, r3
    6e6a:	4619      	mov	r1, r3
    6e6c:	9803      	ldr	r0, [sp, #12]
    6e6e:	f7ff fa8a 	bl	6386 <Ftm_Pwm_Ip_SetModCntinCvHardwareSyncModeCmd>
    6e72:	2100      	movs	r1, #0
    6e74:	9803      	ldr	r0, [sp, #12]
    6e76:	f7ff f9f0 	bl	625a <Ftm_Pwm_Ip_SetCounterSoftwareSyncModeCmd>
    6e7a:	9b00      	ldr	r3, [sp, #0]
    6e7c:	6a1b      	ldr	r3, [r3, #32]
    6e7e:	2b00      	cmp	r3, #0
    6e80:	bf14      	ite	ne
    6e82:	2301      	movne	r3, #1
    6e84:	2300      	moveq	r3, #0
    6e86:	b2db      	uxtb	r3, r3
    6e88:	4619      	mov	r1, r3
    6e8a:	9803      	ldr	r0, [sp, #12]
    6e8c:	f7ff fa62 	bl	6354 <Ftm_Pwm_Ip_SetCounterHardwareSyncModeCmd>
    6e90:	bf00      	nop
    6e92:	bf00      	nop
    6e94:	b005      	add	sp, #20
    6e96:	f85d fb04 	ldr.w	pc, [sp], #4
    6e9a:	bf00      	nop
    6e9c:	0000bb04 	.word	0x0000bb04

00006ea0 <Ftm_Pwm_Ip_ConfigureSyncType>:
    6ea0:	b500      	push	{lr}
    6ea2:	b085      	sub	sp, #20
    6ea4:	4603      	mov	r3, r0
    6ea6:	9100      	str	r1, [sp, #0]
    6ea8:	f88d 3007 	strb.w	r3, [sp, #7]
    6eac:	f89d 3007 	ldrb.w	r3, [sp, #7]
    6eb0:	4a19      	ldr	r2, [pc, #100]	; (6f18 <Ftm_Pwm_Ip_ConfigureSyncType+0x78>)
    6eb2:	f852 3023 	ldr.w	r3, [r2, r3, lsl #2]
    6eb6:	9303      	str	r3, [sp, #12]
    6eb8:	9b00      	ldr	r3, [sp, #0]
    6eba:	699b      	ldr	r3, [r3, #24]
    6ebc:	2b00      	cmp	r3, #0
    6ebe:	bf14      	ite	ne
    6ec0:	2301      	movne	r3, #1
    6ec2:	2300      	moveq	r3, #0
    6ec4:	b2db      	uxtb	r3, r3
    6ec6:	4619      	mov	r1, r3
    6ec8:	9803      	ldr	r0, [sp, #12]
    6eca:	f7fe fee6 	bl	5c9a <Ftm_Pwm_Ip_SetOutmaskPwmSyncModeCmd>
    6ece:	9b00      	ldr	r3, [sp, #0]
    6ed0:	691b      	ldr	r3, [r3, #16]
    6ed2:	2b00      	cmp	r3, #0
    6ed4:	bf14      	ite	ne
    6ed6:	2301      	movne	r3, #1
    6ed8:	2300      	moveq	r3, #0
    6eda:	b2db      	uxtb	r3, r3
    6edc:	4619      	mov	r1, r3
    6ede:	9803      	ldr	r0, [sp, #12]
    6ee0:	f7ff f973 	bl	61ca <Ftm_Pwm_Ip_SetInvctrlPwmSyncModeCmd>
    6ee4:	9b00      	ldr	r3, [sp, #0]
    6ee6:	695b      	ldr	r3, [r3, #20]
    6ee8:	2b00      	cmp	r3, #0
    6eea:	bf14      	ite	ne
    6eec:	2301      	movne	r3, #1
    6eee:	2300      	moveq	r3, #0
    6ef0:	b2db      	uxtb	r3, r3
    6ef2:	4619      	mov	r1, r3
    6ef4:	9803      	ldr	r0, [sp, #12]
    6ef6:	f7ff f980 	bl	61fa <Ftm_Pwm_Ip_SetSwoctrlPwmSyncModeCmd>
    6efa:	9b00      	ldr	r3, [sp, #0]
    6efc:	69db      	ldr	r3, [r3, #28]
    6efe:	2b00      	cmp	r3, #0
    6f00:	bf14      	ite	ne
    6f02:	2301      	movne	r3, #1
    6f04:	2300      	moveq	r3, #0
    6f06:	b2db      	uxtb	r3, r3
    6f08:	4619      	mov	r1, r3
    6f0a:	9803      	ldr	r0, [sp, #12]
    6f0c:	f7ff f945 	bl	619a <Ftm_Pwm_Ip_SetCntinPwmSyncModeCmd>
    6f10:	bf00      	nop
    6f12:	b005      	add	sp, #20
    6f14:	f85d fb04 	ldr.w	pc, [sp], #4
    6f18:	0000bb04 	.word	0x0000bb04

00006f1c <Ftm_Pwm_Ip_UpdateSync>:
    6f1c:	b500      	push	{lr}
    6f1e:	b087      	sub	sp, #28
    6f20:	4603      	mov	r3, r0
    6f22:	9100      	str	r1, [sp, #0]
    6f24:	f88d 3007 	strb.w	r3, [sp, #7]
    6f28:	f89d 3007 	ldrb.w	r3, [sp, #7]
    6f2c:	4a42      	ldr	r2, [pc, #264]	; (7038 <Ftm_Pwm_Ip_UpdateSync+0x11c>)
    6f2e:	f852 3023 	ldr.w	r3, [r2, r3, lsl #2]
    6f32:	9304      	str	r3, [sp, #16]
    6f34:	2300      	movs	r3, #0
    6f36:	9305      	str	r3, [sp, #20]
    6f38:	2300      	movs	r3, #0
    6f3a:	f88d 300f 	strb.w	r3, [sp, #15]
    6f3e:	9b00      	ldr	r3, [sp, #0]
    6f40:	791b      	ldrb	r3, [r3, #4]
    6f42:	2b00      	cmp	r3, #0
    6f44:	d107      	bne.n	6f56 <Ftm_Pwm_Ip_UpdateSync+0x3a>
    6f46:	9b00      	ldr	r3, [sp, #0]
    6f48:	795b      	ldrb	r3, [r3, #5]
    6f4a:	2b00      	cmp	r3, #0
    6f4c:	d103      	bne.n	6f56 <Ftm_Pwm_Ip_UpdateSync+0x3a>
    6f4e:	9b00      	ldr	r3, [sp, #0]
    6f50:	799b      	ldrb	r3, [r3, #6]
    6f52:	2b00      	cmp	r3, #0
    6f54:	d001      	beq.n	6f5a <Ftm_Pwm_Ip_UpdateSync+0x3e>
    6f56:	2301      	movs	r3, #1
    6f58:	e000      	b.n	6f5c <Ftm_Pwm_Ip_UpdateSync+0x40>
    6f5a:	2300      	movs	r3, #0
    6f5c:	f88d 300f 	strb.w	r3, [sp, #15]
    6f60:	f89d 300f 	ldrb.w	r3, [sp, #15]
    6f64:	f003 0301 	and.w	r3, r3, #1
    6f68:	f88d 300f 	strb.w	r3, [sp, #15]
    6f6c:	9b00      	ldr	r3, [sp, #0]
    6f6e:	681b      	ldr	r3, [r3, #0]
    6f70:	2b00      	cmp	r3, #0
    6f72:	d105      	bne.n	6f80 <Ftm_Pwm_Ip_UpdateSync+0x64>
    6f74:	f89d 300f 	ldrb.w	r3, [sp, #15]
    6f78:	2b00      	cmp	r3, #0
    6f7a:	d001      	beq.n	6f80 <Ftm_Pwm_Ip_UpdateSync+0x64>
    6f7c:	2301      	movs	r3, #1
    6f7e:	9305      	str	r3, [sp, #20]
    6f80:	9b00      	ldr	r3, [sp, #0]
    6f82:	6a1b      	ldr	r3, [r3, #32]
    6f84:	2b02      	cmp	r3, #2
    6f86:	d101      	bne.n	6f8c <Ftm_Pwm_Ip_UpdateSync+0x70>
    6f88:	2301      	movs	r3, #1
    6f8a:	9305      	str	r3, [sp, #20]
    6f8c:	9b05      	ldr	r3, [sp, #20]
    6f8e:	2b00      	cmp	r3, #0
    6f90:	d14c      	bne.n	702c <Ftm_Pwm_Ip_UpdateSync+0x110>
    6f92:	f89d 3007 	ldrb.w	r3, [sp, #7]
    6f96:	9900      	ldr	r1, [sp, #0]
    6f98:	4618      	mov	r0, r3
    6f9a:	f7ff fecf 	bl	6d3c <Ftm_Pwm_Ip_ConfigureSWandHWSync>
    6f9e:	2101      	movs	r1, #1
    6fa0:	9804      	ldr	r0, [sp, #16]
    6fa2:	f7ff f942 	bl	622a <Ftm_Pwm_Ip_SetPwmSyncModeCmd>
    6fa6:	9b00      	ldr	r3, [sp, #0]
    6fa8:	791b      	ldrb	r3, [r3, #4]
    6faa:	461a      	mov	r2, r3
    6fac:	2100      	movs	r1, #0
    6fae:	9804      	ldr	r0, [sp, #16]
    6fb0:	f7fe fe89 	bl	5cc6 <Ftm_Pwm_Ip_SetHardwareSyncTriggerSrc>
    6fb4:	9b00      	ldr	r3, [sp, #0]
    6fb6:	795b      	ldrb	r3, [r3, #5]
    6fb8:	461a      	mov	r2, r3
    6fba:	2101      	movs	r1, #1
    6fbc:	9804      	ldr	r0, [sp, #16]
    6fbe:	f7fe fe82 	bl	5cc6 <Ftm_Pwm_Ip_SetHardwareSyncTriggerSrc>
    6fc2:	9b00      	ldr	r3, [sp, #0]
    6fc4:	799b      	ldrb	r3, [r3, #6]
    6fc6:	461a      	mov	r2, r3
    6fc8:	2102      	movs	r1, #2
    6fca:	9804      	ldr	r0, [sp, #16]
    6fcc:	f7fe fe7b 	bl	5cc6 <Ftm_Pwm_Ip_SetHardwareSyncTriggerSrc>
    6fd0:	9b00      	ldr	r3, [sp, #0]
    6fd2:	79db      	ldrb	r3, [r3, #7]
    6fd4:	4619      	mov	r1, r3
    6fd6:	9804      	ldr	r0, [sp, #16]
    6fd8:	f7ff f8c7 	bl	616a <Ftm_Pwm_Ip_SetHwTriggerSyncModeCmd>
    6fdc:	9b00      	ldr	r3, [sp, #0]
    6fde:	7a1b      	ldrb	r3, [r3, #8]
    6fe0:	4619      	mov	r1, r3
    6fe2:	9804      	ldr	r0, [sp, #16]
    6fe4:	f7fe fe43 	bl	5c6e <Ftm_Pwm_Ip_SetMaxLoadingCmd>
    6fe8:	9b00      	ldr	r3, [sp, #0]
    6fea:	7a5b      	ldrb	r3, [r3, #9]
    6fec:	4619      	mov	r1, r3
    6fee:	9804      	ldr	r0, [sp, #16]
    6ff0:	f7fe fe27 	bl	5c42 <Ftm_Pwm_Ip_SetMinLoadingCmd>
    6ff4:	9b00      	ldr	r3, [sp, #0]
    6ff6:	7a9b      	ldrb	r3, [r3, #10]
    6ff8:	2b00      	cmp	r3, #0
    6ffa:	d005      	beq.n	7008 <Ftm_Pwm_Ip_UpdateSync+0xec>
    6ffc:	9b00      	ldr	r3, [sp, #0]
    6ffe:	899b      	ldrh	r3, [r3, #12]
    7000:	4619      	mov	r1, r3
    7002:	9804      	ldr	r0, [sp, #16]
    7004:	f7ff fac6 	bl	6594 <Ftm_Pwm_Ip_SetHalfCycleValue>
    7008:	9b00      	ldr	r3, [sp, #0]
    700a:	7a9b      	ldrb	r3, [r3, #10]
    700c:	4619      	mov	r1, r3
    700e:	9804      	ldr	r0, [sp, #16]
    7010:	f7ff faa3 	bl	655a <Ftm_Pwm_Ip_SetHalfCycleCmd>
    7014:	9b00      	ldr	r3, [sp, #0]
    7016:	7b9b      	ldrb	r3, [r3, #14]
    7018:	4619      	mov	r1, r3
    701a:	9804      	ldr	r0, [sp, #16]
    701c:	f7ff f86b 	bl	60f6 <Ftm_Pwm_Ip_SetLoadFreq>
    7020:	f89d 3007 	ldrb.w	r3, [sp, #7]
    7024:	9900      	ldr	r1, [sp, #0]
    7026:	4618      	mov	r0, r3
    7028:	f7ff ff3a 	bl	6ea0 <Ftm_Pwm_Ip_ConfigureSyncType>
    702c:	9b05      	ldr	r3, [sp, #20]
    702e:	4618      	mov	r0, r3
    7030:	b007      	add	sp, #28
    7032:	f85d fb04 	ldr.w	pc, [sp], #4
    7036:	bf00      	nop
    7038:	0000bb04 	.word	0x0000bb04

0000703c <Ftm_Pwm_Ip_ResetAndFirstConfigure>:
    703c:	b500      	push	{lr}
    703e:	b085      	sub	sp, #20
    7040:	4603      	mov	r3, r0
    7042:	9100      	str	r1, [sp, #0]
    7044:	f88d 3007 	strb.w	r3, [sp, #7]
    7048:	f89d 3007 	ldrb.w	r3, [sp, #7]
    704c:	4a1f      	ldr	r2, [pc, #124]	; (70cc <Ftm_Pwm_Ip_ResetAndFirstConfigure+0x90>)
    704e:	f852 3023 	ldr.w	r3, [r2, r3, lsl #2]
    7052:	9303      	str	r3, [sp, #12]
    7054:	9803      	ldr	r0, [sp, #12]
    7056:	f7ff fbab 	bl	67b0 <Ftm_Pwm_Ip_Reset>
    705a:	2100      	movs	r1, #0
    705c:	9803      	ldr	r0, [sp, #12]
    705e:	f7fe fc01 	bl	5864 <Ftm_Pwm_Ip_SetClockSource>
    7062:	9803      	ldr	r0, [sp, #12]
    7064:	f7fe fc4a 	bl	58fc <Ftm_Pwm_Ip_ClearTimerOverflow>
    7068:	9b00      	ldr	r3, [sp, #0]
    706a:	68db      	ldr	r3, [r3, #12]
    706c:	2b00      	cmp	r3, #0
    706e:	bf14      	ite	ne
    7070:	2301      	movne	r3, #1
    7072:	2300      	moveq	r3, #0
    7074:	b2db      	uxtb	r3, r3
    7076:	4619      	mov	r1, r3
    7078:	9803      	ldr	r0, [sp, #12]
    707a:	f7fe fc04 	bl	5886 <Ftm_Pwm_Ip_SetCpwms>
    707e:	2100      	movs	r1, #0
    7080:	9803      	ldr	r0, [sp, #12]
    7082:	f7fe fdb2 	bl	5bea <Ftm_Pwm_Ip_Enable>
    7086:	9b00      	ldr	r3, [sp, #0]
    7088:	6a9b      	ldr	r3, [r3, #40]	; 0x28
    708a:	4619      	mov	r1, r3
    708c:	9803      	ldr	r0, [sp, #12]
    708e:	f7ff f847 	bl	6120 <Ftm_Pwm_Ip_SetBdmMode>
    7092:	9b00      	ldr	r3, [sp, #0]
    7094:	8edb      	ldrh	r3, [r3, #54]	; 0x36
    7096:	b2db      	uxtb	r3, r3
    7098:	f003 033f 	and.w	r3, r3, #63	; 0x3f
    709c:	b2db      	uxtb	r3, r3
    709e:	4619      	mov	r1, r3
    70a0:	9803      	ldr	r0, [sp, #12]
    70a2:	f7fe ff87 	bl	5fb4 <Ftm_Pwm_Ip_SetDeadtimeCount>
    70a6:	9b00      	ldr	r3, [sp, #0]
    70a8:	8edb      	ldrh	r3, [r3, #54]	; 0x36
    70aa:	099b      	lsrs	r3, r3, #6
    70ac:	b29b      	uxth	r3, r3
    70ae:	b2db      	uxtb	r3, r3
    70b0:	4619      	mov	r1, r3
    70b2:	9803      	ldr	r0, [sp, #12]
    70b4:	f7fe ffa2 	bl	5ffc <Ftm_Pwm_Ip_SetExtDeadtimeValue>
    70b8:	9b00      	ldr	r3, [sp, #0]
    70ba:	6b9b      	ldr	r3, [r3, #56]	; 0x38
    70bc:	4619      	mov	r1, r3
    70be:	9803      	ldr	r0, [sp, #12]
    70c0:	f7fe ff8b 	bl	5fda <Ftm_Pwm_Ip_SetDeadtimePrescaler>
    70c4:	bf00      	nop
    70c6:	b005      	add	sp, #20
    70c8:	f85d fb04 	ldr.w	pc, [sp], #4
    70cc:	0000bb04 	.word	0x0000bb04

000070d0 <Ftm_Pwm_Ip_InitInstance>:
    70d0:	b500      	push	{lr}
    70d2:	b085      	sub	sp, #20
    70d4:	4603      	mov	r3, r0
    70d6:	9100      	str	r1, [sp, #0]
    70d8:	f88d 3007 	strb.w	r3, [sp, #7]
    70dc:	f89d 3007 	ldrb.w	r3, [sp, #7]
    70e0:	4a39      	ldr	r2, [pc, #228]	; (71c8 <Ftm_Pwm_Ip_InitInstance+0xf8>)
    70e2:	f852 3023 	ldr.w	r3, [r2, r3, lsl #2]
    70e6:	9303      	str	r3, [sp, #12]
    70e8:	4b38      	ldr	r3, [pc, #224]	; (71cc <Ftm_Pwm_Ip_InitInstance+0xfc>)
    70ea:	9302      	str	r3, [sp, #8]
    70ec:	f89d 3007 	ldrb.w	r3, [sp, #7]
    70f0:	4619      	mov	r1, r3
    70f2:	9802      	ldr	r0, [sp, #8]
    70f4:	f7ff fd20 	bl	6b38 <Ftm_Pwm_Ip_SetSimOutputBufferEn>
    70f8:	f89d 3007 	ldrb.w	r3, [sp, #7]
    70fc:	9900      	ldr	r1, [sp, #0]
    70fe:	4618      	mov	r0, r3
    7100:	f7ff ff9c 	bl	703c <Ftm_Pwm_Ip_ResetAndFirstConfigure>
    7104:	9b00      	ldr	r3, [sp, #0]
    7106:	6c9a      	ldr	r2, [r3, #72]	; 0x48
    7108:	f89d 3007 	ldrb.w	r3, [sp, #7]
    710c:	4611      	mov	r1, r2
    710e:	4618      	mov	r0, r3
    7110:	f7ff ff04 	bl	6f1c <Ftm_Pwm_Ip_UpdateSync>
    7114:	2100      	movs	r1, #0
    7116:	9803      	ldr	r0, [sp, #12]
    7118:	f7fe fd56 	bl	5bc8 <Ftm_Pwm_Ip_SetCounterInitVal>
    711c:	f89d 3007 	ldrb.w	r3, [sp, #7]
    7120:	9a00      	ldr	r2, [sp, #0]
    7122:	8e91      	ldrh	r1, [r2, #52]	; 0x34
    7124:	4a2a      	ldr	r2, [pc, #168]	; (71d0 <Ftm_Pwm_Ip_InitInstance+0x100>)
    7126:	f822 1013 	strh.w	r1, [r2, r3, lsl #1]
    712a:	f89d 3007 	ldrb.w	r3, [sp, #7]
    712e:	9a00      	ldr	r2, [sp, #0]
    7130:	6812      	ldr	r2, [r2, #0]
    7132:	4928      	ldr	r1, [pc, #160]	; (71d4 <Ftm_Pwm_Ip_InitInstance+0x104>)
    7134:	f841 2023 	str.w	r2, [r1, r3, lsl #2]
    7138:	f89d 3007 	ldrb.w	r3, [sp, #7]
    713c:	9a00      	ldr	r2, [sp, #0]
    713e:	6852      	ldr	r2, [r2, #4]
    7140:	4925      	ldr	r1, [pc, #148]	; (71d8 <Ftm_Pwm_Ip_InitInstance+0x108>)
    7142:	f841 2023 	str.w	r2, [r1, r3, lsl #2]
    7146:	f89d 3007 	ldrb.w	r3, [sp, #7]
    714a:	9a00      	ldr	r2, [sp, #0]
    714c:	6892      	ldr	r2, [r2, #8]
    714e:	4923      	ldr	r1, [pc, #140]	; (71dc <Ftm_Pwm_Ip_InitInstance+0x10c>)
    7150:	f841 2023 	str.w	r2, [r1, r3, lsl #2]
    7154:	9b00      	ldr	r3, [sp, #0]
    7156:	7c1b      	ldrb	r3, [r3, #16]
    7158:	2b00      	cmp	r3, #0
    715a:	d00e      	beq.n	717a <Ftm_Pwm_Ip_InitInstance+0xaa>
    715c:	f89d 3007 	ldrb.w	r3, [sp, #7]
    7160:	9a00      	ldr	r2, [sp, #0]
    7162:	6952      	ldr	r2, [r2, #20]
    7164:	491e      	ldr	r1, [pc, #120]	; (71e0 <Ftm_Pwm_Ip_InitInstance+0x110>)
    7166:	f841 2033 	str.w	r2, [r1, r3, lsl #3]
    716a:	f89d 3007 	ldrb.w	r3, [sp, #7]
    716e:	9a00      	ldr	r2, [sp, #0]
    7170:	6992      	ldr	r2, [r2, #24]
    7172:	491b      	ldr	r1, [pc, #108]	; (71e0 <Ftm_Pwm_Ip_InitInstance+0x110>)
    7174:	00db      	lsls	r3, r3, #3
    7176:	440b      	add	r3, r1
    7178:	605a      	str	r2, [r3, #4]
    717a:	9b00      	ldr	r3, [sp, #0]
    717c:	68db      	ldr	r3, [r3, #12]
    717e:	2b01      	cmp	r3, #1
    7180:	d108      	bne.n	7194 <Ftm_Pwm_Ip_InitInstance+0xc4>
    7182:	9b00      	ldr	r3, [sp, #0]
    7184:	8e9b      	ldrh	r3, [r3, #52]	; 0x34
    7186:	085b      	lsrs	r3, r3, #1
    7188:	b29b      	uxth	r3, r3
    718a:	4619      	mov	r1, r3
    718c:	9803      	ldr	r0, [sp, #12]
    718e:	f7fe fbe3 	bl	5958 <Ftm_Pwm_Ip_SetMod>
    7192:	e007      	b.n	71a4 <Ftm_Pwm_Ip_InitInstance+0xd4>
    7194:	9b00      	ldr	r3, [sp, #0]
    7196:	8e9b      	ldrh	r3, [r3, #52]	; 0x34
    7198:	3b01      	subs	r3, #1
    719a:	b29b      	uxth	r3, r3
    719c:	4619      	mov	r1, r3
    719e:	9803      	ldr	r0, [sp, #12]
    71a0:	f7fe fbda 	bl	5958 <Ftm_Pwm_Ip_SetMod>
    71a4:	9b00      	ldr	r3, [sp, #0]
    71a6:	f893 302d 	ldrb.w	r3, [r3, #45]	; 0x2d
    71aa:	4619      	mov	r1, r3
    71ac:	9803      	ldr	r0, [sp, #12]
    71ae:	f7fe ff39 	bl	6024 <Ftm_Pwm_Ip_SetInitTriggerCmd>
    71b2:	9b00      	ldr	r3, [sp, #0]
    71b4:	6b1b      	ldr	r3, [r3, #48]	; 0x30
    71b6:	4619      	mov	r1, r3
    71b8:	9803      	ldr	r0, [sp, #12]
    71ba:	f7fe ffc3 	bl	6144 <Ftm_Pwm_Ip_SetInitTriggerMode>
    71be:	bf00      	nop
    71c0:	b005      	add	sp, #20
    71c2:	f85d fb04 	ldr.w	pc, [sp], #4
    71c6:	bf00      	nop
    71c8:	0000bb04 	.word	0x0000bb04
    71cc:	40048000 	.word	0x40048000
    71d0:	1fff8cfc 	.word	0x1fff8cfc
    71d4:	1fff8ff4 	.word	0x1fff8ff4
    71d8:	1fff9004 	.word	0x1fff9004
    71dc:	1fff9014 	.word	0x1fff9014
    71e0:	1fff8ea4 	.word	0x1fff8ea4

000071e4 <Ftm_Pwm_Ip_InitInstanceStart>:
    71e4:	b500      	push	{lr}
    71e6:	b085      	sub	sp, #20
    71e8:	4603      	mov	r3, r0
    71ea:	9100      	str	r1, [sp, #0]
    71ec:	f88d 3007 	strb.w	r3, [sp, #7]
    71f0:	f89d 3007 	ldrb.w	r3, [sp, #7]
    71f4:	4a1a      	ldr	r2, [pc, #104]	; (7260 <Ftm_Pwm_Ip_InitInstanceStart+0x7c>)
    71f6:	f852 3023 	ldr.w	r3, [r2, r3, lsl #2]
    71fa:	9303      	str	r3, [sp, #12]
    71fc:	9b00      	ldr	r3, [sp, #0]
    71fe:	f893 3044 	ldrb.w	r3, [r3, #68]	; 0x44
    7202:	4619      	mov	r1, r3
    7204:	9803      	ldr	r0, [sp, #12]
    7206:	f7ff fc03 	bl	6a10 <Ftm_Pwm_Ip_SetFaultFilterValue>
    720a:	9b00      	ldr	r3, [sp, #0]
    720c:	6c1b      	ldr	r3, [r3, #64]	; 0x40
    720e:	4619      	mov	r1, r3
    7210:	9803      	ldr	r0, [sp, #12]
    7212:	f7ff fc11 	bl	6a38 <Ftm_Pwm_Ip_SetFaultOutputState>
    7216:	9b00      	ldr	r3, [sp, #0]
    7218:	6bdb      	ldr	r3, [r3, #60]	; 0x3c
    721a:	4619      	mov	r1, r3
    721c:	9803      	ldr	r0, [sp, #12]
    721e:	f7ff fb7a 	bl	6916 <Ftm_Pwm_Ip_SetFaultControlMode>
    7222:	2101      	movs	r1, #1
    7224:	9803      	ldr	r0, [sp, #12]
    7226:	f7fe fce0 	bl	5bea <Ftm_Pwm_Ip_Enable>
    722a:	2101      	movs	r1, #1
    722c:	9803      	ldr	r0, [sp, #12]
    722e:	f7fe fcf2 	bl	5c16 <Ftm_Pwm_Ip_SetPwmSyncMode>
    7232:	9b00      	ldr	r3, [sp, #0]
    7234:	685b      	ldr	r3, [r3, #4]
    7236:	4619      	mov	r1, r3
    7238:	9803      	ldr	r0, [sp, #12]
    723a:	f7fe fb03 	bl	5844 <Ftm_Pwm_Ip_SetClockPs>
    723e:	9b00      	ldr	r3, [sp, #0]
    7240:	681b      	ldr	r3, [r3, #0]
    7242:	4619      	mov	r1, r3
    7244:	9803      	ldr	r0, [sp, #12]
    7246:	f7fe fb0d 	bl	5864 <Ftm_Pwm_Ip_SetClockSource>
    724a:	f89d 3007 	ldrb.w	r3, [sp, #7]
    724e:	4a05      	ldr	r2, [pc, #20]	; (7264 <Ftm_Pwm_Ip_InitInstanceStart+0x80>)
    7250:	2101      	movs	r1, #1
    7252:	f842 1023 	str.w	r1, [r2, r3, lsl #2]
    7256:	bf00      	nop
    7258:	b005      	add	sp, #20
    725a:	f85d fb04 	ldr.w	pc, [sp], #4
    725e:	bf00      	nop
    7260:	0000bb04 	.word	0x0000bb04
    7264:	1fff8ec4 	.word	0x1fff8ec4

00007268 <Ftm_Pwm_Ip_ConfigurePairedChannel>:
    7268:	b500      	push	{lr}
    726a:	b085      	sub	sp, #20
    726c:	4603      	mov	r3, r0
    726e:	9100      	str	r1, [sp, #0]
    7270:	f88d 3007 	strb.w	r3, [sp, #7]
    7274:	f89d 3007 	ldrb.w	r3, [sp, #7]
    7278:	4a37      	ldr	r2, [pc, #220]	; (7358 <Ftm_Pwm_Ip_ConfigurePairedChannel+0xf0>)
    727a:	f852 3023 	ldr.w	r3, [r2, r3, lsl #2]
    727e:	9303      	str	r3, [sp, #12]
    7280:	2300      	movs	r3, #0
    7282:	f88d 300b 	strb.w	r3, [sp, #11]
    7286:	2300      	movs	r3, #0
    7288:	f88d 300a 	strb.w	r3, [sp, #10]
    728c:	9b00      	ldr	r3, [sp, #0]
    728e:	781b      	ldrb	r3, [r3, #0]
    7290:	f88d 300b 	strb.w	r3, [sp, #11]
    7294:	f89d 300b 	ldrb.w	r3, [sp, #11]
    7298:	085b      	lsrs	r3, r3, #1
    729a:	f88d 300a 	strb.w	r3, [sp, #10]
    729e:	f89d 300a 	ldrb.w	r3, [sp, #10]
    72a2:	2201      	movs	r2, #1
    72a4:	4619      	mov	r1, r3
    72a6:	9803      	ldr	r0, [sp, #12]
    72a8:	f7fe fe36 	bl	5f18 <Ftm_Pwm_Ip_SetDualChnPwmSyncCmd>
    72ac:	f89d 300a 	ldrb.w	r3, [sp, #10]
    72b0:	2201      	movs	r2, #1
    72b2:	4619      	mov	r1, r3
    72b4:	9803      	ldr	r0, [sp, #12]
    72b6:	f7ff fb63 	bl	6980 <Ftm_Pwm_Ip_SetDualChFaultCtr>
    72ba:	9b00      	ldr	r3, [sp, #0]
    72bc:	685b      	ldr	r3, [r3, #4]
    72be:	2b22      	cmp	r3, #34	; 0x22
    72c0:	d003      	beq.n	72ca <Ftm_Pwm_Ip_ConfigurePairedChannel+0x62>
    72c2:	9b00      	ldr	r3, [sp, #0]
    72c4:	685b      	ldr	r3, [r3, #4]
    72c6:	2b21      	cmp	r3, #33	; 0x21
    72c8:	d113      	bne.n	72f2 <Ftm_Pwm_Ip_ConfigurePairedChannel+0x8a>
    72ca:	f89d 300a 	ldrb.w	r3, [sp, #10]
    72ce:	005b      	lsls	r3, r3, #1
    72d0:	b2db      	uxtb	r3, r3
    72d2:	3301      	adds	r3, #1
    72d4:	b2d9      	uxtb	r1, r3
    72d6:	9b00      	ldr	r3, [sp, #0]
    72d8:	685b      	ldr	r3, [r3, #4]
    72da:	461a      	mov	r2, r3
    72dc:	9803      	ldr	r0, [sp, #12]
    72de:	f7fe fb76 	bl	59ce <Ftm_Pwm_Ip_SetChnEdgeLevel>
    72e2:	f89d 300a 	ldrb.w	r3, [sp, #10]
    72e6:	2201      	movs	r2, #1
    72e8:	4619      	mov	r1, r3
    72ea:	9803      	ldr	r0, [sp, #12]
    72ec:	f7fe fd89 	bl	5e02 <Ftm_Pwm_Ip_SetDualChnCombineCmd>
    72f0:	e021      	b.n	7336 <Ftm_Pwm_Ip_ConfigurePairedChannel+0xce>
    72f2:	9b00      	ldr	r3, [sp, #0]
    72f4:	685b      	ldr	r3, [r3, #4]
    72f6:	2b62      	cmp	r3, #98	; 0x62
    72f8:	d003      	beq.n	7302 <Ftm_Pwm_Ip_ConfigurePairedChannel+0x9a>
    72fa:	9b00      	ldr	r3, [sp, #0]
    72fc:	685b      	ldr	r3, [r3, #4]
    72fe:	2b61      	cmp	r3, #97	; 0x61
    7300:	d119      	bne.n	7336 <Ftm_Pwm_Ip_ConfigurePairedChannel+0xce>
    7302:	f89d 300a 	ldrb.w	r3, [sp, #10]
    7306:	005b      	lsls	r3, r3, #1
    7308:	b2db      	uxtb	r3, r3
    730a:	3301      	adds	r3, #1
    730c:	b2d9      	uxtb	r1, r3
    730e:	9b00      	ldr	r3, [sp, #0]
    7310:	685b      	ldr	r3, [r3, #4]
    7312:	461a      	mov	r2, r3
    7314:	9803      	ldr	r0, [sp, #12]
    7316:	f7fe fb5a 	bl	59ce <Ftm_Pwm_Ip_SetChnEdgeLevel>
    731a:	f89d 300a 	ldrb.w	r3, [sp, #10]
    731e:	2201      	movs	r2, #1
    7320:	4619      	mov	r1, r3
    7322:	9803      	ldr	r0, [sp, #12]
    7324:	f7fe fd6d 	bl	5e02 <Ftm_Pwm_Ip_SetDualChnCombineCmd>
    7328:	f89d 300a 	ldrb.w	r3, [sp, #10]
    732c:	2201      	movs	r2, #1
    732e:	4619      	mov	r1, r3
    7330:	9803      	ldr	r0, [sp, #12]
    7332:	f7fe fe18 	bl	5f66 <Ftm_Pwm_Ip_SetDualChnMCombineCmd>
    7336:	9b00      	ldr	r3, [sp, #0]
    7338:	6a5b      	ldr	r3, [r3, #36]	; 0x24
    733a:	2b00      	cmp	r3, #0
    733c:	d007      	beq.n	734e <Ftm_Pwm_Ip_ConfigurePairedChannel+0xe6>
    733e:	9b00      	ldr	r3, [sp, #0]
    7340:	6a5a      	ldr	r2, [r3, #36]	; 0x24
    7342:	f89d 3007 	ldrb.w	r3, [sp, #7]
    7346:	4611      	mov	r1, r2
    7348:	4618      	mov	r0, r3
    734a:	f7ff fc47 	bl	6bdc <Ftm_Pwm_Ip_InitPair>
    734e:	bf00      	nop
    7350:	b005      	add	sp, #20
    7352:	f85d fb04 	ldr.w	pc, [sp], #4
    7356:	bf00      	nop
    7358:	0000bb04 	.word	0x0000bb04

0000735c <Ftm_Pwm_Ip_SetChnTriggerAndSoftwareCtrl>:
    735c:	b500      	push	{lr}
    735e:	b085      	sub	sp, #20
    7360:	4603      	mov	r3, r0
    7362:	9100      	str	r1, [sp, #0]
    7364:	f88d 3007 	strb.w	r3, [sp, #7]
    7368:	f89d 3007 	ldrb.w	r3, [sp, #7]
    736c:	4a15      	ldr	r2, [pc, #84]	; (73c4 <Ftm_Pwm_Ip_SetChnTriggerAndSoftwareCtrl+0x68>)
    736e:	f852 3023 	ldr.w	r3, [r2, r3, lsl #2]
    7372:	9303      	str	r3, [sp, #12]
    7374:	9b00      	ldr	r3, [sp, #0]
    7376:	7819      	ldrb	r1, [r3, #0]
    7378:	9b00      	ldr	r3, [sp, #0]
    737a:	7ddb      	ldrb	r3, [r3, #23]
    737c:	461a      	mov	r2, r3
    737e:	9803      	ldr	r0, [sp, #12]
    7380:	f7ff fa8b 	bl	689a <Ftm_Pwm_Ip_SetChnTriggerCmd>
    7384:	9b00      	ldr	r3, [sp, #0]
    7386:	7819      	ldrb	r1, [r3, #0]
    7388:	9b00      	ldr	r3, [sp, #0]
    738a:	7e1b      	ldrb	r3, [r3, #24]
    738c:	461a      	mov	r2, r3
    738e:	9803      	ldr	r0, [sp, #12]
    7390:	f7ff f8ba 	bl	6508 <Ftm_Pwm_Ip_SetPwmLoadChnSelCmd>
    7394:	9b00      	ldr	r3, [sp, #0]
    7396:	7819      	ldrb	r1, [r3, #0]
    7398:	9b00      	ldr	r3, [sp, #0]
    739a:	7d5b      	ldrb	r3, [r3, #21]
    739c:	461a      	mov	r2, r3
    739e:	9803      	ldr	r0, [sp, #12]
    73a0:	f7ff f87c 	bl	649c <Ftm_Pwm_Ip_SetChnSoftwareCtrlCmd>
    73a4:	9b00      	ldr	r3, [sp, #0]
    73a6:	7819      	ldrb	r1, [r3, #0]
    73a8:	9b00      	ldr	r3, [sp, #0]
    73aa:	7d9b      	ldrb	r3, [r3, #22]
    73ac:	461a      	mov	r2, r3
    73ae:	9803      	ldr	r0, [sp, #12]
    73b0:	f7ff f834 	bl	641c <Ftm_Pwm_Ip_SetChnSoftwareCtrlVal>
    73b4:	2101      	movs	r1, #1
    73b6:	9803      	ldr	r0, [sp, #12]
    73b8:	f7fe fcaa 	bl	5d10 <Ftm_Pwm_Ip_SetSoftwareTriggerCmd>
    73bc:	bf00      	nop
    73be:	b005      	add	sp, #20
    73c0:	f85d fb04 	ldr.w	pc, [sp], #4
    73c4:	0000bb04 	.word	0x0000bb04

000073c8 <Ftm_Pwm_Ip_InitChannel>:
    73c8:	b500      	push	{lr}
    73ca:	b085      	sub	sp, #20
    73cc:	4603      	mov	r3, r0
    73ce:	9100      	str	r1, [sp, #0]
    73d0:	f88d 3007 	strb.w	r3, [sp, #7]
    73d4:	f89d 3007 	ldrb.w	r3, [sp, #7]
    73d8:	4a48      	ldr	r2, [pc, #288]	; (74fc <Ftm_Pwm_Ip_InitChannel+0x134>)
    73da:	f852 3023 	ldr.w	r3, [r2, r3, lsl #2]
    73de:	9303      	str	r3, [sp, #12]
    73e0:	2300      	movs	r3, #0
    73e2:	f88d 300b 	strb.w	r3, [sp, #11]
    73e6:	9b00      	ldr	r3, [sp, #0]
    73e8:	781b      	ldrb	r3, [r3, #0]
    73ea:	f88d 300b 	strb.w	r3, [sp, #11]
    73ee:	f89d 2007 	ldrb.w	r2, [sp, #7]
    73f2:	f89d 300b 	ldrb.w	r3, [sp, #11]
    73f6:	9900      	ldr	r1, [sp, #0]
    73f8:	8b48      	ldrh	r0, [r1, #26]
    73fa:	4941      	ldr	r1, [pc, #260]	; (7500 <Ftm_Pwm_Ip_InitChannel+0x138>)
    73fc:	00d2      	lsls	r2, r2, #3
    73fe:	4413      	add	r3, r2
    7400:	4602      	mov	r2, r0
    7402:	f821 2013 	strh.w	r2, [r1, r3, lsl #1]
    7406:	f89d 1007 	ldrb.w	r1, [sp, #7]
    740a:	f89d 300b 	ldrb.w	r3, [sp, #11]
    740e:	9a00      	ldr	r2, [sp, #0]
    7410:	69d2      	ldr	r2, [r2, #28]
    7412:	483c      	ldr	r0, [pc, #240]	; (7504 <Ftm_Pwm_Ip_InitChannel+0x13c>)
    7414:	00c9      	lsls	r1, r1, #3
    7416:	440b      	add	r3, r1
    7418:	f840 2023 	str.w	r2, [r0, r3, lsl #2]
    741c:	9b00      	ldr	r3, [sp, #0]
    741e:	6a1a      	ldr	r2, [r3, #32]
    7420:	f89d 300b 	ldrb.w	r3, [sp, #11]
    7424:	4619      	mov	r1, r3
    7426:	9803      	ldr	r0, [sp, #12]
    7428:	f7fe fe2e 	bl	6088 <Ftm_Pwm_Ip_SetChnOutputPolarityCmd>
    742c:	9b00      	ldr	r3, [sp, #0]
    742e:	69da      	ldr	r2, [r3, #28]
    7430:	f89d 300b 	ldrb.w	r3, [sp, #11]
    7434:	4619      	mov	r1, r3
    7436:	9803      	ldr	r0, [sp, #12]
    7438:	f7fe fc80 	bl	5d3c <Ftm_Pwm_Ip_SetChnOutputInitStateCmd>
    743c:	9b00      	ldr	r3, [sp, #0]
    743e:	685a      	ldr	r2, [r3, #4]
    7440:	f89d 300b 	ldrb.w	r3, [sp, #11]
    7444:	4619      	mov	r1, r3
    7446:	9803      	ldr	r0, [sp, #12]
    7448:	f7fe fac1 	bl	59ce <Ftm_Pwm_Ip_SetChnEdgeLevel>
    744c:	9b00      	ldr	r3, [sp, #0]
    744e:	685a      	ldr	r2, [r3, #4]
    7450:	f89d 300b 	ldrb.w	r3, [sp, #11]
    7454:	4619      	mov	r1, r3
    7456:	9803      	ldr	r0, [sp, #12]
    7458:	f7fe faf0 	bl	5a3c <Ftm_Pwm_Ip_SetChnMSBAMode>
    745c:	f89d 3007 	ldrb.w	r3, [sp, #7]
    7460:	9900      	ldr	r1, [sp, #0]
    7462:	4618      	mov	r0, r3
    7464:	f7ff ff00 	bl	7268 <Ftm_Pwm_Ip_ConfigurePairedChannel>
    7468:	f89d 2007 	ldrb.w	r2, [sp, #7]
    746c:	f89d 300b 	ldrb.w	r3, [sp, #11]
    7470:	4923      	ldr	r1, [pc, #140]	; (7500 <Ftm_Pwm_Ip_InitChannel+0x138>)
    7472:	00d2      	lsls	r2, r2, #3
    7474:	4413      	add	r3, r2
    7476:	f831 2013 	ldrh.w	r2, [r1, r3, lsl #1]
    747a:	f89d 100b 	ldrb.w	r1, [sp, #11]
    747e:	f89d 0007 	ldrb.w	r0, [sp, #7]
    7482:	2301      	movs	r3, #1
    7484:	f000 f9c0 	bl	7808 <Ftm_Pwm_Ip_UpdatePwmDutyCycleChannel>
    7488:	f89d 3007 	ldrb.w	r3, [sp, #7]
    748c:	9900      	ldr	r1, [sp, #0]
    748e:	4618      	mov	r0, r3
    7490:	f7ff ff64 	bl	735c <Ftm_Pwm_Ip_SetChnTriggerAndSoftwareCtrl>
    7494:	9b00      	ldr	r3, [sp, #0]
    7496:	7d1b      	ldrb	r3, [r3, #20]
    7498:	2b00      	cmp	r3, #0
    749a:	d005      	beq.n	74a8 <Ftm_Pwm_Ip_InitChannel+0xe0>
    749c:	f89d 300b 	ldrb.w	r3, [sp, #11]
    74a0:	4619      	mov	r1, r3
    74a2:	9803      	ldr	r0, [sp, #12]
    74a4:	f7fe fa35 	bl	5912 <Ftm_Pwm_Ip_EnablePwmChannelOutputs>
    74a8:	f89d 2007 	ldrb.w	r2, [sp, #7]
    74ac:	f89d 300b 	ldrb.w	r3, [sp, #11]
    74b0:	4915      	ldr	r1, [pc, #84]	; (7508 <Ftm_Pwm_Ip_InitChannel+0x140>)
    74b2:	00d2      	lsls	r2, r2, #3
    74b4:	4413      	add	r3, r2
    74b6:	2201      	movs	r2, #1
    74b8:	f841 2023 	str.w	r2, [r1, r3, lsl #2]
    74bc:	9b00      	ldr	r3, [sp, #0]
    74be:	7a1b      	ldrb	r3, [r3, #8]
    74c0:	2b00      	cmp	r3, #0
    74c2:	d016      	beq.n	74f2 <Ftm_Pwm_Ip_InitChannel+0x12a>
    74c4:	f89d 1007 	ldrb.w	r1, [sp, #7]
    74c8:	f89d 300b 	ldrb.w	r3, [sp, #11]
    74cc:	9a00      	ldr	r2, [sp, #0]
    74ce:	68d2      	ldr	r2, [r2, #12]
    74d0:	480e      	ldr	r0, [pc, #56]	; (750c <Ftm_Pwm_Ip_InitChannel+0x144>)
    74d2:	00c9      	lsls	r1, r1, #3
    74d4:	440b      	add	r3, r1
    74d6:	f840 2033 	str.w	r2, [r0, r3, lsl #3]
    74da:	f89d 1007 	ldrb.w	r1, [sp, #7]
    74de:	f89d 300b 	ldrb.w	r3, [sp, #11]
    74e2:	9a00      	ldr	r2, [sp, #0]
    74e4:	6912      	ldr	r2, [r2, #16]
    74e6:	4809      	ldr	r0, [pc, #36]	; (750c <Ftm_Pwm_Ip_InitChannel+0x144>)
    74e8:	00c9      	lsls	r1, r1, #3
    74ea:	440b      	add	r3, r1
    74ec:	00db      	lsls	r3, r3, #3
    74ee:	4403      	add	r3, r0
    74f0:	605a      	str	r2, [r3, #4]
    74f2:	bf00      	nop
    74f4:	b005      	add	sp, #20
    74f6:	f85d fb04 	ldr.w	pc, [sp], #4
    74fa:	bf00      	nop
    74fc:	0000bb04 	.word	0x0000bb04
    7500:	1fff8d04 	.word	0x1fff8d04
    7504:	1fff8f74 	.word	0x1fff8f74
    7508:	1fff8ed4 	.word	0x1fff8ed4
    750c:	1fff8da4 	.word	0x1fff8da4

00007510 <Ftm_Pwm_Ip_DeInitInstance>:
    7510:	b500      	push	{lr}
    7512:	b085      	sub	sp, #20
    7514:	4603      	mov	r3, r0
    7516:	f88d 3007 	strb.w	r3, [sp, #7]
    751a:	f89d 3007 	ldrb.w	r3, [sp, #7]
    751e:	4a17      	ldr	r2, [pc, #92]	; (757c <Ftm_Pwm_Ip_DeInitInstance+0x6c>)
    7520:	f852 3023 	ldr.w	r3, [r2, r3, lsl #2]
    7524:	9303      	str	r3, [sp, #12]
    7526:	2100      	movs	r1, #0
    7528:	9803      	ldr	r0, [sp, #12]
    752a:	f7fe f99b 	bl	5864 <Ftm_Pwm_Ip_SetClockSource>
    752e:	2100      	movs	r1, #0
    7530:	9803      	ldr	r0, [sp, #12]
    7532:	f7fe fd63 	bl	5ffc <Ftm_Pwm_Ip_SetExtDeadtimeValue>
    7536:	2101      	movs	r1, #1
    7538:	9803      	ldr	r0, [sp, #12]
    753a:	f7fe fd4e 	bl	5fda <Ftm_Pwm_Ip_SetDeadtimePrescaler>
    753e:	2100      	movs	r1, #0
    7540:	9803      	ldr	r0, [sp, #12]
    7542:	f7fe fd37 	bl	5fb4 <Ftm_Pwm_Ip_SetDeadtimeCount>
    7546:	2100      	movs	r1, #0
    7548:	9803      	ldr	r0, [sp, #12]
    754a:	f7fe fde9 	bl	6120 <Ftm_Pwm_Ip_SetBdmMode>
    754e:	2100      	movs	r1, #0
    7550:	9803      	ldr	r0, [sp, #12]
    7552:	f7fe f9bc 	bl	58ce <Ftm_Pwm_Ip_SetTimerOverflowInt>
    7556:	2100      	movs	r1, #0
    7558:	9803      	ldr	r0, [sp, #12]
    755a:	f7fe f9fd 	bl	5958 <Ftm_Pwm_Ip_SetMod>
    755e:	2100      	movs	r1, #0
    7560:	9803      	ldr	r0, [sp, #12]
    7562:	f7fe f9e8 	bl	5936 <Ftm_Pwm_Ip_SetCounter>
    7566:	f89d 3007 	ldrb.w	r3, [sp, #7]
    756a:	4a05      	ldr	r2, [pc, #20]	; (7580 <Ftm_Pwm_Ip_DeInitInstance+0x70>)
    756c:	2100      	movs	r1, #0
    756e:	f842 1023 	str.w	r1, [r2, r3, lsl #2]
    7572:	bf00      	nop
    7574:	b005      	add	sp, #20
    7576:	f85d fb04 	ldr.w	pc, [sp], #4
    757a:	bf00      	nop
    757c:	0000bb04 	.word	0x0000bb04
    7580:	1fff8ec4 	.word	0x1fff8ec4

00007584 <Ftm_Pwm_Ip_DeInitChannel>:
    7584:	b500      	push	{lr}
    7586:	b085      	sub	sp, #20
    7588:	4603      	mov	r3, r0
    758a:	460a      	mov	r2, r1
    758c:	f88d 3007 	strb.w	r3, [sp, #7]
    7590:	4613      	mov	r3, r2
    7592:	f88d 3006 	strb.w	r3, [sp, #6]
    7596:	f89d 3007 	ldrb.w	r3, [sp, #7]
    759a:	4a29      	ldr	r2, [pc, #164]	; (7640 <Ftm_Pwm_Ip_DeInitChannel+0xbc>)
    759c:	f852 3023 	ldr.w	r3, [r2, r3, lsl #2]
    75a0:	9303      	str	r3, [sp, #12]
    75a2:	f89d 3006 	ldrb.w	r3, [sp, #6]
    75a6:	085b      	lsrs	r3, r3, #1
    75a8:	f88d 300b 	strb.w	r3, [sp, #11]
    75ac:	f89d 2006 	ldrb.w	r2, [sp, #6]
    75b0:	f89d 3007 	ldrb.w	r3, [sp, #7]
    75b4:	4611      	mov	r1, r2
    75b6:	4618      	mov	r0, r3
    75b8:	f7ff fb9e 	bl	6cf8 <Ftm_Pwm_Ip_DisableCmpIrq>
    75bc:	f89d 2007 	ldrb.w	r2, [sp, #7]
    75c0:	f89d 3006 	ldrb.w	r3, [sp, #6]
    75c4:	491f      	ldr	r1, [pc, #124]	; (7644 <Ftm_Pwm_Ip_DeInitChannel+0xc0>)
    75c6:	00d2      	lsls	r2, r2, #3
    75c8:	4413      	add	r3, r2
    75ca:	f851 2023 	ldr.w	r2, [r1, r3, lsl #2]
    75ce:	f89d 1006 	ldrb.w	r1, [sp, #6]
    75d2:	f89d 0007 	ldrb.w	r0, [sp, #7]
    75d6:	2301      	movs	r3, #1
    75d8:	f000 fa4c 	bl	7a74 <Ftm_Pwm_Ip_SwOutputControl>
    75dc:	2100      	movs	r1, #0
    75de:	9803      	ldr	r0, [sp, #12]
    75e0:	f7fe fb96 	bl	5d10 <Ftm_Pwm_Ip_SetSoftwareTriggerCmd>
    75e4:	2101      	movs	r1, #1
    75e6:	9803      	ldr	r0, [sp, #12]
    75e8:	f7fe fb57 	bl	5c9a <Ftm_Pwm_Ip_SetOutmaskPwmSyncModeCmd>
    75ec:	2101      	movs	r1, #1
    75ee:	9803      	ldr	r0, [sp, #12]
    75f0:	f7fe fe65 	bl	62be <Ftm_Pwm_Ip_SetOutmaskSoftwareSyncModeCmd>
    75f4:	f89d 3006 	ldrb.w	r3, [sp, #6]
    75f8:	2200      	movs	r2, #0
    75fa:	4619      	mov	r1, r3
    75fc:	9803      	ldr	r0, [sp, #12]
    75fe:	f7fe fbbf 	bl	5d80 <Ftm_Pwm_Ip_SetChnOutputMask>
    7602:	2101      	movs	r1, #1
    7604:	9803      	ldr	r0, [sp, #12]
    7606:	f7fe fb83 	bl	5d10 <Ftm_Pwm_Ip_SetSoftwareTriggerCmd>
    760a:	f89d 2007 	ldrb.w	r2, [sp, #7]
    760e:	f89d 300b 	ldrb.w	r3, [sp, #11]
    7612:	005b      	lsls	r3, r3, #1
    7614:	490c      	ldr	r1, [pc, #48]	; (7648 <Ftm_Pwm_Ip_DeInitChannel+0xc4>)
    7616:	00d2      	lsls	r2, r2, #3
    7618:	440a      	add	r2, r1
    761a:	4413      	add	r3, r2
    761c:	2200      	movs	r2, #0
    761e:	701a      	strb	r2, [r3, #0]
    7620:	f89d 2007 	ldrb.w	r2, [sp, #7]
    7624:	f89d 300b 	ldrb.w	r3, [sp, #11]
    7628:	005b      	lsls	r3, r3, #1
    762a:	3301      	adds	r3, #1
    762c:	4906      	ldr	r1, [pc, #24]	; (7648 <Ftm_Pwm_Ip_DeInitChannel+0xc4>)
    762e:	00d2      	lsls	r2, r2, #3
    7630:	440a      	add	r2, r1
    7632:	4413      	add	r3, r2
    7634:	2200      	movs	r2, #0
    7636:	701a      	strb	r2, [r3, #0]
    7638:	bf00      	nop
    763a:	b005      	add	sp, #20
    763c:	f85d fb04 	ldr.w	pc, [sp], #4
    7640:	0000bb04 	.word	0x0000bb04
    7644:	1fff8f74 	.word	0x1fff8f74
    7648:	1fff8f54 	.word	0x1fff8f54

0000764c <Ftm_Pwm_Ip_InitChFault>:
    764c:	b500      	push	{lr}
    764e:	b085      	sub	sp, #20
    7650:	4603      	mov	r3, r0
    7652:	9100      	str	r1, [sp, #0]
    7654:	f88d 3007 	strb.w	r3, [sp, #7]
    7658:	f89d 3007 	ldrb.w	r3, [sp, #7]
    765c:	4a15      	ldr	r2, [pc, #84]	; (76b4 <Ftm_Pwm_Ip_InitChFault+0x68>)
    765e:	f852 3023 	ldr.w	r3, [r2, r3, lsl #2]
    7662:	9303      	str	r3, [sp, #12]
    7664:	9b00      	ldr	r3, [sp, #0]
    7666:	7819      	ldrb	r1, [r3, #0]
    7668:	9b00      	ldr	r3, [sp, #0]
    766a:	685b      	ldr	r3, [r3, #4]
    766c:	461a      	mov	r2, r3
    766e:	9803      	ldr	r0, [sp, #12]
    7670:	f7ff f9f6 	bl	6a60 <Ftm_Pwm_Ip_SetFaultPolarity>
    7674:	9b00      	ldr	r3, [sp, #0]
    7676:	7819      	ldrb	r1, [r3, #0]
    7678:	9b00      	ldr	r3, [sp, #0]
    767a:	7a1b      	ldrb	r3, [r3, #8]
    767c:	461a      	mov	r2, r3
    767e:	9803      	ldr	r0, [sp, #12]
    7680:	f7ff fa35 	bl	6aee <Ftm_Pwm_Ip_SetFaultFilterEn>
    7684:	9b00      	ldr	r3, [sp, #0]
    7686:	781b      	ldrb	r3, [r3, #0]
    7688:	2201      	movs	r2, #1
    768a:	4619      	mov	r1, r3
    768c:	9803      	ldr	r0, [sp, #12]
    768e:	f7ff fa0a 	bl	6aa6 <Ftm_Pwm_Ip_SetFaultInputEn>
    7692:	f89d 3007 	ldrb.w	r3, [sp, #7]
    7696:	9a00      	ldr	r2, [sp, #0]
    7698:	7812      	ldrb	r2, [r2, #0]
    769a:	4610      	mov	r0, r2
    769c:	9a00      	ldr	r2, [sp, #0]
    769e:	68d2      	ldr	r2, [r2, #12]
    76a0:	4905      	ldr	r1, [pc, #20]	; (76b8 <Ftm_Pwm_Ip_InitChFault+0x6c>)
    76a2:	009b      	lsls	r3, r3, #2
    76a4:	4403      	add	r3, r0
    76a6:	f841 2023 	str.w	r2, [r1, r3, lsl #2]
    76aa:	bf00      	nop
    76ac:	b005      	add	sp, #20
    76ae:	f85d fb04 	ldr.w	pc, [sp], #4
    76b2:	bf00      	nop
    76b4:	0000bb04 	.word	0x0000bb04
    76b8:	1fff8d64 	.word	0x1fff8d64

000076bc <Ftm_Pwm_Ip_Init>:
    76bc:	b500      	push	{lr}
    76be:	b085      	sub	sp, #20
    76c0:	4603      	mov	r3, r0
    76c2:	9100      	str	r1, [sp, #0]
    76c4:	f88d 3007 	strb.w	r3, [sp, #7]
    76c8:	2300      	movs	r3, #0
    76ca:	f88d 300f 	strb.w	r3, [sp, #15]
    76ce:	4b29      	ldr	r3, [pc, #164]	; (7774 <Ftm_Pwm_Ip_Init+0xb8>)
    76d0:	2200      	movs	r2, #0
    76d2:	701a      	strb	r2, [r3, #0]
    76d4:	9b00      	ldr	r3, [sp, #0]
    76d6:	681a      	ldr	r2, [r3, #0]
    76d8:	f89d 3007 	ldrb.w	r3, [sp, #7]
    76dc:	4611      	mov	r1, r2
    76de:	4618      	mov	r0, r3
    76e0:	f7ff fcf6 	bl	70d0 <Ftm_Pwm_Ip_InitInstance>
    76e4:	2300      	movs	r3, #0
    76e6:	f88d 300f 	strb.w	r3, [sp, #15]
    76ea:	e011      	b.n	7710 <Ftm_Pwm_Ip_Init+0x54>
    76ec:	9b00      	ldr	r3, [sp, #0]
    76ee:	685a      	ldr	r2, [r3, #4]
    76f0:	f89d 300f 	ldrb.w	r3, [sp, #15]
    76f4:	009b      	lsls	r3, r3, #2
    76f6:	4413      	add	r3, r2
    76f8:	681a      	ldr	r2, [r3, #0]
    76fa:	f89d 3007 	ldrb.w	r3, [sp, #7]
    76fe:	4611      	mov	r1, r2
    7700:	4618      	mov	r0, r3
    7702:	f7ff fe61 	bl	73c8 <Ftm_Pwm_Ip_InitChannel>
    7706:	f89d 300f 	ldrb.w	r3, [sp, #15]
    770a:	3301      	adds	r3, #1
    770c:	f88d 300f 	strb.w	r3, [sp, #15]
    7710:	9b00      	ldr	r3, [sp, #0]
    7712:	7a1b      	ldrb	r3, [r3, #8]
    7714:	f89d 200f 	ldrb.w	r2, [sp, #15]
    7718:	429a      	cmp	r2, r3
    771a:	d3e7      	bcc.n	76ec <Ftm_Pwm_Ip_Init+0x30>
    771c:	9b00      	ldr	r3, [sp, #0]
    771e:	7c1b      	ldrb	r3, [r3, #16]
    7720:	2b00      	cmp	r3, #0
    7722:	d01b      	beq.n	775c <Ftm_Pwm_Ip_Init+0xa0>
    7724:	2300      	movs	r3, #0
    7726:	f88d 300f 	strb.w	r3, [sp, #15]
    772a:	e011      	b.n	7750 <Ftm_Pwm_Ip_Init+0x94>
    772c:	9b00      	ldr	r3, [sp, #0]
    772e:	68da      	ldr	r2, [r3, #12]
    7730:	f89d 300f 	ldrb.w	r3, [sp, #15]
    7734:	009b      	lsls	r3, r3, #2
    7736:	4413      	add	r3, r2
    7738:	681a      	ldr	r2, [r3, #0]
    773a:	f89d 3007 	ldrb.w	r3, [sp, #7]
    773e:	4611      	mov	r1, r2
    7740:	4618      	mov	r0, r3
    7742:	f7ff ff83 	bl	764c <Ftm_Pwm_Ip_InitChFault>
    7746:	f89d 300f 	ldrb.w	r3, [sp, #15]
    774a:	3301      	adds	r3, #1
    774c:	f88d 300f 	strb.w	r3, [sp, #15]
    7750:	9b00      	ldr	r3, [sp, #0]
    7752:	7c1b      	ldrb	r3, [r3, #16]
    7754:	f89d 200f 	ldrb.w	r2, [sp, #15]
    7758:	429a      	cmp	r2, r3
    775a:	d3e7      	bcc.n	772c <Ftm_Pwm_Ip_Init+0x70>
    775c:	9b00      	ldr	r3, [sp, #0]
    775e:	681a      	ldr	r2, [r3, #0]
    7760:	f89d 3007 	ldrb.w	r3, [sp, #7]
    7764:	4611      	mov	r1, r2
    7766:	4618      	mov	r0, r3
    7768:	f7ff fd3c 	bl	71e4 <Ftm_Pwm_Ip_InitInstanceStart>
    776c:	bf00      	nop
    776e:	b005      	add	sp, #20
    7770:	f85d fb04 	ldr.w	pc, [sp], #4
    7774:	1fff8cf8 	.word	0x1fff8cf8

00007778 <Ftm_Pwm_Ip_DeInit>:
    7778:	b500      	push	{lr}
    777a:	b085      	sub	sp, #20
    777c:	4603      	mov	r3, r0
    777e:	f88d 3007 	strb.w	r3, [sp, #7]
    7782:	f89d 3007 	ldrb.w	r3, [sp, #7]
    7786:	4a1e      	ldr	r2, [pc, #120]	; (7800 <Ftm_Pwm_Ip_DeInit+0x88>)
    7788:	f852 3023 	ldr.w	r3, [r2, r3, lsl #2]
    778c:	9302      	str	r3, [sp, #8]
    778e:	2300      	movs	r3, #0
    7790:	f88d 300f 	strb.w	r3, [sp, #15]
    7794:	9802      	ldr	r0, [sp, #8]
    7796:	f7ff f80b 	bl	67b0 <Ftm_Pwm_Ip_Reset>
    779a:	2300      	movs	r3, #0
    779c:	f88d 300f 	strb.w	r3, [sp, #15]
    77a0:	e021      	b.n	77e6 <Ftm_Pwm_Ip_DeInit+0x6e>
    77a2:	f89d 2007 	ldrb.w	r2, [sp, #7]
    77a6:	f89d 300f 	ldrb.w	r3, [sp, #15]
    77aa:	4916      	ldr	r1, [pc, #88]	; (7804 <Ftm_Pwm_Ip_DeInit+0x8c>)
    77ac:	00d2      	lsls	r2, r2, #3
    77ae:	4413      	add	r3, r2
    77b0:	f851 3023 	ldr.w	r3, [r1, r3, lsl #2]
    77b4:	2b00      	cmp	r3, #0
    77b6:	d011      	beq.n	77dc <Ftm_Pwm_Ip_DeInit+0x64>
    77b8:	f89d 200f 	ldrb.w	r2, [sp, #15]
    77bc:	f89d 3007 	ldrb.w	r3, [sp, #7]
    77c0:	4611      	mov	r1, r2
    77c2:	4618      	mov	r0, r3
    77c4:	f7ff fede 	bl	7584 <Ftm_Pwm_Ip_DeInitChannel>
    77c8:	f89d 2007 	ldrb.w	r2, [sp, #7]
    77cc:	f89d 300f 	ldrb.w	r3, [sp, #15]
    77d0:	490c      	ldr	r1, [pc, #48]	; (7804 <Ftm_Pwm_Ip_DeInit+0x8c>)
    77d2:	00d2      	lsls	r2, r2, #3
    77d4:	4413      	add	r3, r2
    77d6:	2200      	movs	r2, #0
    77d8:	f841 2023 	str.w	r2, [r1, r3, lsl #2]
    77dc:	f89d 300f 	ldrb.w	r3, [sp, #15]
    77e0:	3301      	adds	r3, #1
    77e2:	f88d 300f 	strb.w	r3, [sp, #15]
    77e6:	f89d 300f 	ldrb.w	r3, [sp, #15]
    77ea:	2b07      	cmp	r3, #7
    77ec:	d9d9      	bls.n	77a2 <Ftm_Pwm_Ip_DeInit+0x2a>
    77ee:	f89d 3007 	ldrb.w	r3, [sp, #7]
    77f2:	4618      	mov	r0, r3
    77f4:	f7ff fe8c 	bl	7510 <Ftm_Pwm_Ip_DeInitInstance>
    77f8:	bf00      	nop
    77fa:	b005      	add	sp, #20
    77fc:	f85d fb04 	ldr.w	pc, [sp], #4
    7800:	0000bb04 	.word	0x0000bb04
    7804:	1fff8ed4 	.word	0x1fff8ed4

00007808 <Ftm_Pwm_Ip_UpdatePwmDutyCycleChannel>:
    7808:	b510      	push	{r4, lr}
    780a:	b088      	sub	sp, #32
    780c:	4604      	mov	r4, r0
    780e:	4608      	mov	r0, r1
    7810:	4611      	mov	r1, r2
    7812:	461a      	mov	r2, r3
    7814:	4623      	mov	r3, r4
    7816:	f88d 300f 	strb.w	r3, [sp, #15]
    781a:	4603      	mov	r3, r0
    781c:	f88d 300e 	strb.w	r3, [sp, #14]
    7820:	460b      	mov	r3, r1
    7822:	f8ad 300c 	strh.w	r3, [sp, #12]
    7826:	4613      	mov	r3, r2
    7828:	f88d 300b 	strb.w	r3, [sp, #11]
    782c:	f89d 300f 	ldrb.w	r3, [sp, #15]
    7830:	4a54      	ldr	r2, [pc, #336]	; (7984 <Ftm_Pwm_Ip_UpdatePwmDutyCycleChannel+0x17c>)
    7832:	f852 3023 	ldr.w	r3, [r2, r3, lsl #2]
    7836:	9307      	str	r3, [sp, #28]
    7838:	f8bd 300c 	ldrh.w	r3, [sp, #12]
    783c:	f8ad 301a 	strh.w	r3, [sp, #26]
    7840:	f89d 300e 	ldrb.w	r3, [sp, #14]
    7844:	085b      	lsrs	r3, r3, #1
    7846:	f88d 3019 	strb.w	r3, [sp, #25]
    784a:	f002 fa4d 	bl	9ce8 <SchM_Enter_Pwm_PWM_EXCLUSIVE_AREA_00>
    784e:	f89d 200f 	ldrb.w	r2, [sp, #15]
    7852:	f89d 300e 	ldrb.w	r3, [sp, #14]
    7856:	494c      	ldr	r1, [pc, #304]	; (7988 <Ftm_Pwm_Ip_UpdatePwmDutyCycleChannel+0x180>)
    7858:	00d2      	lsls	r2, r2, #3
    785a:	4413      	add	r3, r2
    785c:	f8bd 200c 	ldrh.w	r2, [sp, #12]
    7860:	f821 2013 	strh.w	r2, [r1, r3, lsl #1]
    7864:	f89d 300e 	ldrb.w	r3, [sp, #14]
    7868:	4619      	mov	r1, r3
    786a:	9807      	ldr	r0, [sp, #28]
    786c:	f7fe feb0 	bl	65d0 <Ftm_Pwm_Ip_GetChannelMode>
    7870:	9005      	str	r0, [sp, #20]
    7872:	f89d 200f 	ldrb.w	r2, [sp, #15]
    7876:	f89d 300e 	ldrb.w	r3, [sp, #14]
    787a:	4944      	ldr	r1, [pc, #272]	; (798c <Ftm_Pwm_Ip_UpdatePwmDutyCycleChannel+0x184>)
    787c:	00d2      	lsls	r2, r2, #3
    787e:	4413      	add	r3, r2
    7880:	f851 3023 	ldr.w	r3, [r1, r3, lsl #2]
    7884:	2b02      	cmp	r3, #2
    7886:	d111      	bne.n	78ac <Ftm_Pwm_Ip_UpdatePwmDutyCycleChannel+0xa4>
    7888:	f89d 200f 	ldrb.w	r2, [sp, #15]
    788c:	f89d 300e 	ldrb.w	r3, [sp, #14]
    7890:	493e      	ldr	r1, [pc, #248]	; (798c <Ftm_Pwm_Ip_UpdatePwmDutyCycleChannel+0x184>)
    7892:	00d2      	lsls	r2, r2, #3
    7894:	4413      	add	r3, r2
    7896:	2201      	movs	r2, #1
    7898:	f841 2023 	str.w	r2, [r1, r3, lsl #2]
    789c:	f89d 100e 	ldrb.w	r1, [sp, #14]
    78a0:	f89d 000f 	ldrb.w	r0, [sp, #15]
    78a4:	2300      	movs	r3, #0
    78a6:	2200      	movs	r2, #0
    78a8:	f000 f8e4 	bl	7a74 <Ftm_Pwm_Ip_SwOutputControl>
    78ac:	9b05      	ldr	r3, [sp, #20]
    78ae:	2b0a      	cmp	r3, #10
    78b0:	d008      	beq.n	78c4 <Ftm_Pwm_Ip_UpdatePwmDutyCycleChannel+0xbc>
    78b2:	9b05      	ldr	r3, [sp, #20]
    78b4:	2b09      	cmp	r3, #9
    78b6:	d005      	beq.n	78c4 <Ftm_Pwm_Ip_UpdatePwmDutyCycleChannel+0xbc>
    78b8:	9b05      	ldr	r3, [sp, #20]
    78ba:	2b12      	cmp	r3, #18
    78bc:	d002      	beq.n	78c4 <Ftm_Pwm_Ip_UpdatePwmDutyCycleChannel+0xbc>
    78be:	9b05      	ldr	r3, [sp, #20]
    78c0:	2b11      	cmp	r3, #17
    78c2:	d10c      	bne.n	78de <Ftm_Pwm_Ip_UpdatePwmDutyCycleChannel+0xd6>
    78c4:	f8bd 201a 	ldrh.w	r2, [sp, #26]
    78c8:	f89d 100e 	ldrb.w	r1, [sp, #14]
    78cc:	f89d 000f 	ldrb.w	r0, [sp, #15]
    78d0:	f89d 300b 	ldrb.w	r3, [sp, #11]
    78d4:	9300      	str	r3, [sp, #0]
    78d6:	2300      	movs	r3, #0
    78d8:	f000 f992 	bl	7c00 <Ftm_Pwm_Ip_UpdatePwmChannel>
    78dc:	e04c      	b.n	7978 <Ftm_Pwm_Ip_UpdatePwmDutyCycleChannel+0x170>
    78de:	9b05      	ldr	r3, [sp, #20]
    78e0:	2b22      	cmp	r3, #34	; 0x22
    78e2:	d008      	beq.n	78f6 <Ftm_Pwm_Ip_UpdatePwmDutyCycleChannel+0xee>
    78e4:	9b05      	ldr	r3, [sp, #20]
    78e6:	2b62      	cmp	r3, #98	; 0x62
    78e8:	d005      	beq.n	78f6 <Ftm_Pwm_Ip_UpdatePwmDutyCycleChannel+0xee>
    78ea:	9b05      	ldr	r3, [sp, #20]
    78ec:	2b61      	cmp	r3, #97	; 0x61
    78ee:	d002      	beq.n	78f6 <Ftm_Pwm_Ip_UpdatePwmDutyCycleChannel+0xee>
    78f0:	9b05      	ldr	r3, [sp, #20]
    78f2:	2b21      	cmp	r3, #33	; 0x21
    78f4:	d140      	bne.n	7978 <Ftm_Pwm_Ip_UpdatePwmDutyCycleChannel+0x170>
    78f6:	f89d 200f 	ldrb.w	r2, [sp, #15]
    78fa:	f89d 3019 	ldrb.w	r3, [sp, #25]
    78fe:	4924      	ldr	r1, [pc, #144]	; (7990 <Ftm_Pwm_Ip_UpdatePwmDutyCycleChannel+0x188>)
    7900:	0092      	lsls	r2, r2, #2
    7902:	4413      	add	r3, r2
    7904:	f831 3013 	ldrh.w	r3, [r1, r3, lsl #1]
    7908:	2b00      	cmp	r3, #0
    790a:	d10d      	bne.n	7928 <Ftm_Pwm_Ip_UpdatePwmDutyCycleChannel+0x120>
    790c:	f8bd 201a 	ldrh.w	r2, [sp, #26]
    7910:	f89d 100e 	ldrb.w	r1, [sp, #14]
    7914:	f89d 000f 	ldrb.w	r0, [sp, #15]
    7918:	f89d 300b 	ldrb.w	r3, [sp, #11]
    791c:	9300      	str	r3, [sp, #0]
    791e:	4613      	mov	r3, r2
    7920:	2200      	movs	r2, #0
    7922:	f000 f96d 	bl	7c00 <Ftm_Pwm_Ip_UpdatePwmChannel>
    7926:	e027      	b.n	7978 <Ftm_Pwm_Ip_UpdatePwmDutyCycleChannel+0x170>
    7928:	f89d 200f 	ldrb.w	r2, [sp, #15]
    792c:	f89d 3019 	ldrb.w	r3, [sp, #25]
    7930:	4917      	ldr	r1, [pc, #92]	; (7990 <Ftm_Pwm_Ip_UpdatePwmDutyCycleChannel+0x188>)
    7932:	0092      	lsls	r2, r2, #2
    7934:	4413      	add	r3, r2
    7936:	f831 2013 	ldrh.w	r2, [r1, r3, lsl #1]
    793a:	f8bd 100c 	ldrh.w	r1, [sp, #12]
    793e:	f89d 300f 	ldrb.w	r3, [sp, #15]
    7942:	4618      	mov	r0, r3
    7944:	f7ff f90a 	bl	6b5c <Ftm_Pwm_Ip_CalculatePhaseShift>
    7948:	4603      	mov	r3, r0
    794a:	f8ad 301a 	strh.w	r3, [sp, #26]
    794e:	f89d 200f 	ldrb.w	r2, [sp, #15]
    7952:	f89d 3019 	ldrb.w	r3, [sp, #25]
    7956:	490e      	ldr	r1, [pc, #56]	; (7990 <Ftm_Pwm_Ip_UpdatePwmDutyCycleChannel+0x188>)
    7958:	0092      	lsls	r2, r2, #2
    795a:	4413      	add	r3, r2
    795c:	f831 2013 	ldrh.w	r2, [r1, r3, lsl #1]
    7960:	f8bd 401a 	ldrh.w	r4, [sp, #26]
    7964:	f89d 100e 	ldrb.w	r1, [sp, #14]
    7968:	f89d 000f 	ldrb.w	r0, [sp, #15]
    796c:	f89d 300b 	ldrb.w	r3, [sp, #11]
    7970:	9300      	str	r3, [sp, #0]
    7972:	4623      	mov	r3, r4
    7974:	f000 f944 	bl	7c00 <Ftm_Pwm_Ip_UpdatePwmChannel>
    7978:	f002 f9e2 	bl	9d40 <SchM_Exit_Pwm_PWM_EXCLUSIVE_AREA_00>
    797c:	bf00      	nop
    797e:	b008      	add	sp, #32
    7980:	bd10      	pop	{r4, pc}
    7982:	bf00      	nop
    7984:	0000bb04 	.word	0x0000bb04
    7988:	1fff8d04 	.word	0x1fff8d04
    798c:	1fff8ed4 	.word	0x1fff8ed4
    7990:	1fff8d44 	.word	0x1fff8d44

00007994 <Ftm_Pwm_Ip_UpdatePwmPeriodAndDuty>:
    7994:	b510      	push	{r4, lr}
    7996:	b084      	sub	sp, #16
    7998:	4604      	mov	r4, r0
    799a:	4608      	mov	r0, r1
    799c:	4611      	mov	r1, r2
    799e:	461a      	mov	r2, r3
    79a0:	4623      	mov	r3, r4
    79a2:	f88d 3007 	strb.w	r3, [sp, #7]
    79a6:	4603      	mov	r3, r0
    79a8:	f88d 3006 	strb.w	r3, [sp, #6]
    79ac:	460b      	mov	r3, r1
    79ae:	f8ad 3004 	strh.w	r3, [sp, #4]
    79b2:	4613      	mov	r3, r2
    79b4:	f8ad 3002 	strh.w	r3, [sp, #2]
    79b8:	2300      	movs	r3, #0
    79ba:	f8ad 300e 	strh.w	r3, [sp, #14]
    79be:	f89d 3007 	ldrb.w	r3, [sp, #7]
    79c2:	4a29      	ldr	r2, [pc, #164]	; (7a68 <Ftm_Pwm_Ip_UpdatePwmPeriodAndDuty+0xd4>)
    79c4:	f852 3023 	ldr.w	r3, [r2, r3, lsl #2]
    79c8:	9302      	str	r3, [sp, #8]
    79ca:	f002 f9df 	bl	9d8c <SchM_Enter_Pwm_PWM_EXCLUSIVE_AREA_01>
    79ce:	f89d 2007 	ldrb.w	r2, [sp, #7]
    79d2:	f89d 3006 	ldrb.w	r3, [sp, #6]
    79d6:	4925      	ldr	r1, [pc, #148]	; (7a6c <Ftm_Pwm_Ip_UpdatePwmPeriodAndDuty+0xd8>)
    79d8:	00d2      	lsls	r2, r2, #3
    79da:	4413      	add	r3, r2
    79dc:	f851 3023 	ldr.w	r3, [r1, r3, lsl #2]
    79e0:	2b02      	cmp	r3, #2
    79e2:	d111      	bne.n	7a08 <Ftm_Pwm_Ip_UpdatePwmPeriodAndDuty+0x74>
    79e4:	f89d 2007 	ldrb.w	r2, [sp, #7]
    79e8:	f89d 3006 	ldrb.w	r3, [sp, #6]
    79ec:	491f      	ldr	r1, [pc, #124]	; (7a6c <Ftm_Pwm_Ip_UpdatePwmPeriodAndDuty+0xd8>)
    79ee:	00d2      	lsls	r2, r2, #3
    79f0:	4413      	add	r3, r2
    79f2:	2201      	movs	r2, #1
    79f4:	f841 2023 	str.w	r2, [r1, r3, lsl #2]
    79f8:	f89d 1006 	ldrb.w	r1, [sp, #6]
    79fc:	f89d 0007 	ldrb.w	r0, [sp, #7]
    7a00:	2300      	movs	r3, #0
    7a02:	2200      	movs	r2, #0
    7a04:	f000 f836 	bl	7a74 <Ftm_Pwm_Ip_SwOutputControl>
    7a08:	f8bd 1004 	ldrh.w	r1, [sp, #4]
    7a0c:	f89d 3007 	ldrb.w	r3, [sp, #7]
    7a10:	2200      	movs	r2, #0
    7a12:	4618      	mov	r0, r3
    7a14:	f000 f988 	bl	7d28 <Ftm_Pwm_Ip_UpdatePwmPeriod>
    7a18:	f89d 3007 	ldrb.w	r3, [sp, #7]
    7a1c:	4914      	ldr	r1, [pc, #80]	; (7a70 <Ftm_Pwm_Ip_UpdatePwmPeriodAndDuty+0xdc>)
    7a1e:	f8bd 2004 	ldrh.w	r2, [sp, #4]
    7a22:	f821 2013 	strh.w	r2, [r1, r3, lsl #1]
    7a26:	f8bd 3004 	ldrh.w	r3, [sp, #4]
    7a2a:	2b00      	cmp	r3, #0
    7a2c:	d103      	bne.n	7a36 <Ftm_Pwm_Ip_UpdatePwmPeriodAndDuty+0xa2>
    7a2e:	2300      	movs	r3, #0
    7a30:	f8ad 300e 	strh.w	r3, [sp, #14]
    7a34:	e003      	b.n	7a3e <Ftm_Pwm_Ip_UpdatePwmPeriodAndDuty+0xaa>
    7a36:	f8bd 3002 	ldrh.w	r3, [sp, #2]
    7a3a:	f8ad 300e 	strh.w	r3, [sp, #14]
    7a3e:	f89d 3018 	ldrb.w	r3, [sp, #24]
    7a42:	f8bd 200e 	ldrh.w	r2, [sp, #14]
    7a46:	f89d 1006 	ldrb.w	r1, [sp, #6]
    7a4a:	f89d 0007 	ldrb.w	r0, [sp, #7]
    7a4e:	f7ff fedb 	bl	7808 <Ftm_Pwm_Ip_UpdatePwmDutyCycleChannel>
    7a52:	f89d 3018 	ldrb.w	r3, [sp, #24]
    7a56:	4619      	mov	r1, r3
    7a58:	9802      	ldr	r0, [sp, #8]
    7a5a:	f7fe f959 	bl	5d10 <Ftm_Pwm_Ip_SetSoftwareTriggerCmd>
    7a5e:	f002 f9c1 	bl	9de4 <SchM_Exit_Pwm_PWM_EXCLUSIVE_AREA_01>
    7a62:	bf00      	nop
    7a64:	b004      	add	sp, #16
    7a66:	bd10      	pop	{r4, pc}
    7a68:	0000bb04 	.word	0x0000bb04
    7a6c:	1fff8ed4 	.word	0x1fff8ed4
    7a70:	1fff8cfc 	.word	0x1fff8cfc

00007a74 <Ftm_Pwm_Ip_SwOutputControl>:
    7a74:	b500      	push	{lr}
    7a76:	b089      	sub	sp, #36	; 0x24
    7a78:	9200      	str	r2, [sp, #0]
    7a7a:	461a      	mov	r2, r3
    7a7c:	4603      	mov	r3, r0
    7a7e:	f88d 3007 	strb.w	r3, [sp, #7]
    7a82:	460b      	mov	r3, r1
    7a84:	f88d 3006 	strb.w	r3, [sp, #6]
    7a88:	4613      	mov	r3, r2
    7a8a:	f88d 3005 	strb.w	r3, [sp, #5]
    7a8e:	f89d 3007 	ldrb.w	r3, [sp, #7]
    7a92:	4a58      	ldr	r2, [pc, #352]	; (7bf4 <Ftm_Pwm_Ip_SwOutputControl+0x180>)
    7a94:	f852 3023 	ldr.w	r3, [r2, r3, lsl #2]
    7a98:	9305      	str	r3, [sp, #20]
    7a9a:	2300      	movs	r3, #0
    7a9c:	f8ad 301e 	strh.w	r3, [sp, #30]
    7aa0:	2300      	movs	r3, #0
    7aa2:	f8ad 301c 	strh.w	r3, [sp, #28]
    7aa6:	2300      	movs	r3, #0
    7aa8:	f8ad 301a 	strh.w	r3, [sp, #26]
    7aac:	2300      	movs	r3, #0
    7aae:	f8ad 3012 	strh.w	r3, [sp, #18]
    7ab2:	f89d 3006 	ldrb.w	r3, [sp, #6]
    7ab6:	4619      	mov	r1, r3
    7ab8:	9805      	ldr	r0, [sp, #20]
    7aba:	f7fe fd89 	bl	65d0 <Ftm_Pwm_Ip_GetChannelMode>
    7abe:	9003      	str	r0, [sp, #12]
    7ac0:	f89d 2007 	ldrb.w	r2, [sp, #7]
    7ac4:	f89d 3006 	ldrb.w	r3, [sp, #6]
    7ac8:	494b      	ldr	r1, [pc, #300]	; (7bf8 <Ftm_Pwm_Ip_SwOutputControl+0x184>)
    7aca:	00d2      	lsls	r2, r2, #3
    7acc:	4413      	add	r3, r2
    7ace:	f851 3023 	ldr.w	r3, [r1, r3, lsl #2]
    7ad2:	2b02      	cmp	r3, #2
    7ad4:	d109      	bne.n	7aea <Ftm_Pwm_Ip_SwOutputControl+0x76>
    7ad6:	f89d 2007 	ldrb.w	r2, [sp, #7]
    7ada:	f89d 3006 	ldrb.w	r3, [sp, #6]
    7ade:	4947      	ldr	r1, [pc, #284]	; (7bfc <Ftm_Pwm_Ip_SwOutputControl+0x188>)
    7ae0:	00d2      	lsls	r2, r2, #3
    7ae2:	4413      	add	r3, r2
    7ae4:	2200      	movs	r2, #0
    7ae6:	f821 2013 	strh.w	r2, [r1, r3, lsl #1]
    7aea:	9805      	ldr	r0, [sp, #20]
    7aec:	f7fe fd5f 	bl	65ae <Ftm_Pwm_Ip_GetSoftwareOutputControl>
    7af0:	4603      	mov	r3, r0
    7af2:	f8ad 301e 	strh.w	r3, [sp, #30]
    7af6:	9b03      	ldr	r3, [sp, #12]
    7af8:	2b22      	cmp	r3, #34	; 0x22
    7afa:	d008      	beq.n	7b0e <Ftm_Pwm_Ip_SwOutputControl+0x9a>
    7afc:	9b03      	ldr	r3, [sp, #12]
    7afe:	2b62      	cmp	r3, #98	; 0x62
    7b00:	d005      	beq.n	7b0e <Ftm_Pwm_Ip_SwOutputControl+0x9a>
    7b02:	9b03      	ldr	r3, [sp, #12]
    7b04:	2b61      	cmp	r3, #97	; 0x61
    7b06:	d002      	beq.n	7b0e <Ftm_Pwm_Ip_SwOutputControl+0x9a>
    7b08:	9b03      	ldr	r3, [sp, #12]
    7b0a:	2b21      	cmp	r3, #33	; 0x21
    7b0c:	d103      	bne.n	7b16 <Ftm_Pwm_Ip_SwOutputControl+0xa2>
    7b0e:	2303      	movs	r3, #3
    7b10:	f8ad 301c 	strh.w	r3, [sp, #28]
    7b14:	e002      	b.n	7b1c <Ftm_Pwm_Ip_SwOutputControl+0xa8>
    7b16:	2301      	movs	r3, #1
    7b18:	f8ad 301c 	strh.w	r3, [sp, #28]
    7b1c:	9805      	ldr	r0, [sp, #20]
    7b1e:	f7fe fd4f 	bl	65c0 <Ftm_Pwm_Ip_GetPolInstance>
    7b22:	4603      	mov	r3, r0
    7b24:	4619      	mov	r1, r3
    7b26:	f8bd 201c 	ldrh.w	r2, [sp, #28]
    7b2a:	f89d 3006 	ldrb.w	r3, [sp, #6]
    7b2e:	fa02 f303 	lsl.w	r3, r2, r3
    7b32:	b29b      	uxth	r3, r3
    7b34:	400b      	ands	r3, r1
    7b36:	f8ad 3012 	strh.w	r3, [sp, #18]
    7b3a:	f8bd 3012 	ldrh.w	r3, [sp, #18]
    7b3e:	021b      	lsls	r3, r3, #8
    7b40:	f8ad 3012 	strh.w	r3, [sp, #18]
    7b44:	f8bd 201c 	ldrh.w	r2, [sp, #28]
    7b48:	f89d 3006 	ldrb.w	r3, [sp, #6]
    7b4c:	3308      	adds	r3, #8
    7b4e:	fa02 f303 	lsl.w	r3, r2, r3
    7b52:	b29b      	uxth	r3, r3
    7b54:	43db      	mvns	r3, r3
    7b56:	b29a      	uxth	r2, r3
    7b58:	f8bd 301e 	ldrh.w	r3, [sp, #30]
    7b5c:	4013      	ands	r3, r2
    7b5e:	f8ad 301e 	strh.w	r3, [sp, #30]
    7b62:	f89d 3005 	ldrb.w	r3, [sp, #5]
    7b66:	2b00      	cmp	r3, #0
    7b68:	d027      	beq.n	7bba <Ftm_Pwm_Ip_SwOutputControl+0x146>
    7b6a:	9b00      	ldr	r3, [sp, #0]
    7b6c:	2b01      	cmp	r3, #1
    7b6e:	d109      	bne.n	7b84 <Ftm_Pwm_Ip_SwOutputControl+0x110>
    7b70:	f8bd 201c 	ldrh.w	r2, [sp, #28]
    7b74:	f89d 3006 	ldrb.w	r3, [sp, #6]
    7b78:	3308      	adds	r3, #8
    7b7a:	fa02 f303 	lsl.w	r3, r2, r3
    7b7e:	f8ad 301a 	strh.w	r3, [sp, #26]
    7b82:	e002      	b.n	7b8a <Ftm_Pwm_Ip_SwOutputControl+0x116>
    7b84:	2300      	movs	r3, #0
    7b86:	f8ad 301a 	strh.w	r3, [sp, #26]
    7b8a:	f8bd 201a 	ldrh.w	r2, [sp, #26]
    7b8e:	f8bd 3012 	ldrh.w	r3, [sp, #18]
    7b92:	4053      	eors	r3, r2
    7b94:	b29a      	uxth	r2, r3
    7b96:	f8bd 301e 	ldrh.w	r3, [sp, #30]
    7b9a:	4313      	orrs	r3, r2
    7b9c:	f8ad 301e 	strh.w	r3, [sp, #30]
    7ba0:	f8bd 201c 	ldrh.w	r2, [sp, #28]
    7ba4:	f89d 3006 	ldrb.w	r3, [sp, #6]
    7ba8:	fa02 f303 	lsl.w	r3, r2, r3
    7bac:	b29a      	uxth	r2, r3
    7bae:	f8bd 301e 	ldrh.w	r3, [sp, #30]
    7bb2:	4313      	orrs	r3, r2
    7bb4:	f8ad 301e 	strh.w	r3, [sp, #30]
    7bb8:	e00d      	b.n	7bd6 <Ftm_Pwm_Ip_SwOutputControl+0x162>
    7bba:	f8bd 201c 	ldrh.w	r2, [sp, #28]
    7bbe:	f89d 3006 	ldrb.w	r3, [sp, #6]
    7bc2:	fa02 f303 	lsl.w	r3, r2, r3
    7bc6:	b29b      	uxth	r3, r3
    7bc8:	43db      	mvns	r3, r3
    7bca:	b29a      	uxth	r2, r3
    7bcc:	f8bd 301e 	ldrh.w	r3, [sp, #30]
    7bd0:	4013      	ands	r3, r2
    7bd2:	f8ad 301e 	strh.w	r3, [sp, #30]
    7bd6:	f8bd 301e 	ldrh.w	r3, [sp, #30]
    7bda:	4619      	mov	r1, r3
    7bdc:	9805      	ldr	r0, [sp, #20]
    7bde:	f7fe fc86 	bl	64ee <Ftm_Pwm_Ip_SoftwareOutputControl>
    7be2:	2101      	movs	r1, #1
    7be4:	9805      	ldr	r0, [sp, #20]
    7be6:	f7fe f893 	bl	5d10 <Ftm_Pwm_Ip_SetSoftwareTriggerCmd>
    7bea:	bf00      	nop
    7bec:	b009      	add	sp, #36	; 0x24
    7bee:	f85d fb04 	ldr.w	pc, [sp], #4
    7bf2:	bf00      	nop
    7bf4:	0000bb04 	.word	0x0000bb04
    7bf8:	1fff8ed4 	.word	0x1fff8ed4
    7bfc:	1fff8d04 	.word	0x1fff8d04

00007c00 <Ftm_Pwm_Ip_UpdatePwmChannel>:
    7c00:	b510      	push	{r4, lr}
    7c02:	b086      	sub	sp, #24
    7c04:	4604      	mov	r4, r0
    7c06:	4608      	mov	r0, r1
    7c08:	4611      	mov	r1, r2
    7c0a:	461a      	mov	r2, r3
    7c0c:	4623      	mov	r3, r4
    7c0e:	f88d 3007 	strb.w	r3, [sp, #7]
    7c12:	4603      	mov	r3, r0
    7c14:	f88d 3006 	strb.w	r3, [sp, #6]
    7c18:	460b      	mov	r3, r1
    7c1a:	f8ad 3004 	strh.w	r3, [sp, #4]
    7c1e:	4613      	mov	r3, r2
    7c20:	f8ad 3002 	strh.w	r3, [sp, #2]
    7c24:	f89d 3007 	ldrb.w	r3, [sp, #7]
    7c28:	4a3d      	ldr	r2, [pc, #244]	; (7d20 <Ftm_Pwm_Ip_UpdatePwmChannel+0x120>)
    7c2a:	f852 3023 	ldr.w	r3, [r2, r3, lsl #2]
    7c2e:	9303      	str	r3, [sp, #12]
    7c30:	2300      	movs	r3, #0
    7c32:	9305      	str	r3, [sp, #20]
    7c34:	2300      	movs	r3, #0
    7c36:	f8ad 3012 	strh.w	r3, [sp, #18]
    7c3a:	2300      	movs	r3, #0
    7c3c:	f8ad 3010 	strh.w	r3, [sp, #16]
    7c40:	2300      	movs	r3, #0
    7c42:	f8ad 300a 	strh.w	r3, [sp, #10]
    7c46:	f89d 3006 	ldrb.w	r3, [sp, #6]
    7c4a:	085b      	lsrs	r3, r3, #1
    7c4c:	f88d 3009 	strb.w	r3, [sp, #9]
    7c50:	f89d 3007 	ldrb.w	r3, [sp, #7]
    7c54:	4a33      	ldr	r2, [pc, #204]	; (7d24 <Ftm_Pwm_Ip_UpdatePwmChannel+0x124>)
    7c56:	f832 3013 	ldrh.w	r3, [r2, r3, lsl #1]
    7c5a:	f8ad 300a 	strh.w	r3, [sp, #10]
    7c5e:	f8bd 2004 	ldrh.w	r2, [sp, #4]
    7c62:	f8bd 300a 	ldrh.w	r3, [sp, #10]
    7c66:	429a      	cmp	r2, r3
    7c68:	d805      	bhi.n	7c76 <Ftm_Pwm_Ip_UpdatePwmChannel+0x76>
    7c6a:	f8bd 2002 	ldrh.w	r2, [sp, #2]
    7c6e:	f8bd 300a 	ldrh.w	r3, [sp, #10]
    7c72:	429a      	cmp	r2, r3
    7c74:	d903      	bls.n	7c7e <Ftm_Pwm_Ip_UpdatePwmChannel+0x7e>
    7c76:	f8bd 300a 	ldrh.w	r3, [sp, #10]
    7c7a:	2b00      	cmp	r3, #0
    7c7c:	d108      	bne.n	7c90 <Ftm_Pwm_Ip_UpdatePwmChannel+0x90>
    7c7e:	f8bd 3004 	ldrh.w	r3, [sp, #4]
    7c82:	f8ad 3012 	strh.w	r3, [sp, #18]
    7c86:	f8bd 3002 	ldrh.w	r3, [sp, #2]
    7c8a:	f8ad 3010 	strh.w	r3, [sp, #16]
    7c8e:	e001      	b.n	7c94 <Ftm_Pwm_Ip_UpdatePwmChannel+0x94>
    7c90:	2301      	movs	r3, #1
    7c92:	9305      	str	r3, [sp, #20]
    7c94:	9b05      	ldr	r3, [sp, #20]
    7c96:	2b00      	cmp	r3, #0
    7c98:	d13e      	bne.n	7d18 <Ftm_Pwm_Ip_UpdatePwmChannel+0x118>
    7c9a:	f89d 3009 	ldrb.w	r3, [sp, #9]
    7c9e:	4619      	mov	r1, r3
    7ca0:	9803      	ldr	r0, [sp, #12]
    7ca2:	f7fe f8d5 	bl	5e50 <Ftm_Pwm_Ip_GetDualChnCombineCmd>
    7ca6:	4603      	mov	r3, r0
    7ca8:	2b00      	cmp	r3, #0
    7caa:	d016      	beq.n	7cda <Ftm_Pwm_Ip_UpdatePwmChannel+0xda>
    7cac:	f89d 3009 	ldrb.w	r3, [sp, #9]
    7cb0:	005b      	lsls	r3, r3, #1
    7cb2:	b2db      	uxtb	r3, r3
    7cb4:	f8bd 2012 	ldrh.w	r2, [sp, #18]
    7cb8:	4619      	mov	r1, r3
    7cba:	9803      	ldr	r0, [sp, #12]
    7cbc:	f7fd ff70 	bl	5ba0 <Ftm_Pwm_Ip_SetChnCountVal>
    7cc0:	f89d 3009 	ldrb.w	r3, [sp, #9]
    7cc4:	005b      	lsls	r3, r3, #1
    7cc6:	b2db      	uxtb	r3, r3
    7cc8:	3301      	adds	r3, #1
    7cca:	b2db      	uxtb	r3, r3
    7ccc:	f8bd 2010 	ldrh.w	r2, [sp, #16]
    7cd0:	4619      	mov	r1, r3
    7cd2:	9803      	ldr	r0, [sp, #12]
    7cd4:	f7fd ff64 	bl	5ba0 <Ftm_Pwm_Ip_SetChnCountVal>
    7cd8:	e018      	b.n	7d0c <Ftm_Pwm_Ip_UpdatePwmChannel+0x10c>
    7cda:	9803      	ldr	r0, [sp, #12]
    7cdc:	f7fd fde9 	bl	58b2 <Ftm_Pwm_Ip_GetCpwms>
    7ce0:	4603      	mov	r3, r0
    7ce2:	2b01      	cmp	r3, #1
    7ce4:	d10a      	bne.n	7cfc <Ftm_Pwm_Ip_UpdatePwmChannel+0xfc>
    7ce6:	f8bd 3012 	ldrh.w	r3, [sp, #18]
    7cea:	085b      	lsrs	r3, r3, #1
    7cec:	b29a      	uxth	r2, r3
    7cee:	f89d 3006 	ldrb.w	r3, [sp, #6]
    7cf2:	4619      	mov	r1, r3
    7cf4:	9803      	ldr	r0, [sp, #12]
    7cf6:	f7fd ff53 	bl	5ba0 <Ftm_Pwm_Ip_SetChnCountVal>
    7cfa:	e007      	b.n	7d0c <Ftm_Pwm_Ip_UpdatePwmChannel+0x10c>
    7cfc:	f8bd 2012 	ldrh.w	r2, [sp, #18]
    7d00:	f89d 3006 	ldrb.w	r3, [sp, #6]
    7d04:	4619      	mov	r1, r3
    7d06:	9803      	ldr	r0, [sp, #12]
    7d08:	f7fd ff4a 	bl	5ba0 <Ftm_Pwm_Ip_SetChnCountVal>
    7d0c:	f89d 3020 	ldrb.w	r3, [sp, #32]
    7d10:	4619      	mov	r1, r3
    7d12:	9803      	ldr	r0, [sp, #12]
    7d14:	f7fd fffc 	bl	5d10 <Ftm_Pwm_Ip_SetSoftwareTriggerCmd>
    7d18:	9b05      	ldr	r3, [sp, #20]
    7d1a:	4618      	mov	r0, r3
    7d1c:	b006      	add	sp, #24
    7d1e:	bd10      	pop	{r4, pc}
    7d20:	0000bb04 	.word	0x0000bb04
    7d24:	1fff8cfc 	.word	0x1fff8cfc

00007d28 <Ftm_Pwm_Ip_UpdatePwmPeriod>:
    7d28:	b500      	push	{lr}
    7d2a:	b085      	sub	sp, #20
    7d2c:	4603      	mov	r3, r0
    7d2e:	9100      	str	r1, [sp, #0]
    7d30:	f88d 3007 	strb.w	r3, [sp, #7]
    7d34:	4613      	mov	r3, r2
    7d36:	f88d 3006 	strb.w	r3, [sp, #6]
    7d3a:	f89d 3007 	ldrb.w	r3, [sp, #7]
    7d3e:	4a16      	ldr	r2, [pc, #88]	; (7d98 <Ftm_Pwm_Ip_UpdatePwmPeriod+0x70>)
    7d40:	f852 3023 	ldr.w	r3, [r2, r3, lsl #2]
    7d44:	9302      	str	r3, [sp, #8]
    7d46:	2300      	movs	r3, #0
    7d48:	9303      	str	r3, [sp, #12]
    7d4a:	9b00      	ldr	r3, [sp, #0]
    7d4c:	9303      	str	r3, [sp, #12]
    7d4e:	f89d 3007 	ldrb.w	r3, [sp, #7]
    7d52:	9a00      	ldr	r2, [sp, #0]
    7d54:	b291      	uxth	r1, r2
    7d56:	4a11      	ldr	r2, [pc, #68]	; (7d9c <Ftm_Pwm_Ip_UpdatePwmPeriod+0x74>)
    7d58:	f822 1013 	strh.w	r1, [r2, r3, lsl #1]
    7d5c:	9802      	ldr	r0, [sp, #8]
    7d5e:	f7fd fda8 	bl	58b2 <Ftm_Pwm_Ip_GetCpwms>
    7d62:	4603      	mov	r3, r0
    7d64:	2b01      	cmp	r3, #1
    7d66:	d103      	bne.n	7d70 <Ftm_Pwm_Ip_UpdatePwmPeriod+0x48>
    7d68:	9b03      	ldr	r3, [sp, #12]
    7d6a:	085b      	lsrs	r3, r3, #1
    7d6c:	9303      	str	r3, [sp, #12]
    7d6e:	e002      	b.n	7d76 <Ftm_Pwm_Ip_UpdatePwmPeriod+0x4e>
    7d70:	9b03      	ldr	r3, [sp, #12]
    7d72:	3b01      	subs	r3, #1
    7d74:	9303      	str	r3, [sp, #12]
    7d76:	9b03      	ldr	r3, [sp, #12]
    7d78:	b29b      	uxth	r3, r3
    7d7a:	4619      	mov	r1, r3
    7d7c:	9802      	ldr	r0, [sp, #8]
    7d7e:	f7fd fdeb 	bl	5958 <Ftm_Pwm_Ip_SetMod>
    7d82:	f89d 3006 	ldrb.w	r3, [sp, #6]
    7d86:	4619      	mov	r1, r3
    7d88:	9802      	ldr	r0, [sp, #8]
    7d8a:	f7fd ffc1 	bl	5d10 <Ftm_Pwm_Ip_SetSoftwareTriggerCmd>
    7d8e:	2300      	movs	r3, #0
    7d90:	4618      	mov	r0, r3
    7d92:	b005      	add	sp, #20
    7d94:	f85d fb04 	ldr.w	pc, [sp], #4
    7d98:	0000bb04 	.word	0x0000bb04
    7d9c:	1fff8cfc 	.word	0x1fff8cfc

00007da0 <Ftm_Pwm_Ip_GetOutputState>:
    7da0:	b500      	push	{lr}
    7da2:	b085      	sub	sp, #20
    7da4:	4603      	mov	r3, r0
    7da6:	460a      	mov	r2, r1
    7da8:	f88d 3007 	strb.w	r3, [sp, #7]
    7dac:	4613      	mov	r3, r2
    7dae:	f88d 3006 	strb.w	r3, [sp, #6]
    7db2:	f89d 3007 	ldrb.w	r3, [sp, #7]
    7db6:	4a0d      	ldr	r2, [pc, #52]	; (7dec <Ftm_Pwm_Ip_GetOutputState+0x4c>)
    7db8:	f852 3023 	ldr.w	r3, [r2, r3, lsl #2]
    7dbc:	9302      	str	r3, [sp, #8]
    7dbe:	f002 f889 	bl	9ed4 <SchM_Enter_Pwm_PWM_EXCLUSIVE_AREA_03>
    7dc2:	f89d 3006 	ldrb.w	r3, [sp, #6]
    7dc6:	4619      	mov	r1, r3
    7dc8:	9802      	ldr	r0, [sp, #8]
    7dca:	f7fd fed3 	bl	5b74 <Ftm_Pwm_Ip_GetChOutputValue>
    7dce:	4603      	mov	r3, r0
    7dd0:	2b00      	cmp	r3, #0
    7dd2:	d002      	beq.n	7dda <Ftm_Pwm_Ip_GetOutputState+0x3a>
    7dd4:	2301      	movs	r3, #1
    7dd6:	9303      	str	r3, [sp, #12]
    7dd8:	e001      	b.n	7dde <Ftm_Pwm_Ip_GetOutputState+0x3e>
    7dda:	2300      	movs	r3, #0
    7ddc:	9303      	str	r3, [sp, #12]
    7dde:	f002 f8a5 	bl	9f2c <SchM_Exit_Pwm_PWM_EXCLUSIVE_AREA_03>
    7de2:	9b03      	ldr	r3, [sp, #12]
    7de4:	4618      	mov	r0, r3
    7de6:	b005      	add	sp, #20
    7de8:	f85d fb04 	ldr.w	pc, [sp], #4
    7dec:	0000bb04 	.word	0x0000bb04

00007df0 <Ftm_Pwm_Ip_DisableNotification>:
    7df0:	b500      	push	{lr}
    7df2:	b087      	sub	sp, #28
    7df4:	4603      	mov	r3, r0
    7df6:	9100      	str	r1, [sp, #0]
    7df8:	f88d 3007 	strb.w	r3, [sp, #7]
    7dfc:	f89d 3007 	ldrb.w	r3, [sp, #7]
    7e00:	4a38      	ldr	r2, [pc, #224]	; (7ee4 <Ftm_Pwm_Ip_DisableNotification+0xf4>)
    7e02:	f852 3023 	ldr.w	r3, [r2, r3, lsl #2]
    7e06:	9305      	str	r3, [sp, #20]
    7e08:	9b00      	ldr	r3, [sp, #0]
    7e0a:	f88d 3013 	strb.w	r3, [sp, #19]
    7e0e:	f002 f8b3 	bl	9f78 <SchM_Enter_Pwm_PWM_EXCLUSIVE_AREA_04>
    7e12:	9b00      	ldr	r3, [sp, #0]
    7e14:	2b00      	cmp	r3, #0
    7e16:	d014      	beq.n	7e42 <Ftm_Pwm_Ip_DisableNotification+0x52>
    7e18:	9b00      	ldr	r3, [sp, #0]
    7e1a:	2b01      	cmp	r3, #1
    7e1c:	d011      	beq.n	7e42 <Ftm_Pwm_Ip_DisableNotification+0x52>
    7e1e:	9b00      	ldr	r3, [sp, #0]
    7e20:	2b02      	cmp	r3, #2
    7e22:	d00e      	beq.n	7e42 <Ftm_Pwm_Ip_DisableNotification+0x52>
    7e24:	9b00      	ldr	r3, [sp, #0]
    7e26:	2b03      	cmp	r3, #3
    7e28:	d00b      	beq.n	7e42 <Ftm_Pwm_Ip_DisableNotification+0x52>
    7e2a:	9b00      	ldr	r3, [sp, #0]
    7e2c:	2b04      	cmp	r3, #4
    7e2e:	d008      	beq.n	7e42 <Ftm_Pwm_Ip_DisableNotification+0x52>
    7e30:	9b00      	ldr	r3, [sp, #0]
    7e32:	2b05      	cmp	r3, #5
    7e34:	d005      	beq.n	7e42 <Ftm_Pwm_Ip_DisableNotification+0x52>
    7e36:	9b00      	ldr	r3, [sp, #0]
    7e38:	2b06      	cmp	r3, #6
    7e3a:	d002      	beq.n	7e42 <Ftm_Pwm_Ip_DisableNotification+0x52>
    7e3c:	9b00      	ldr	r3, [sp, #0]
    7e3e:	2b07      	cmp	r3, #7
    7e40:	d136      	bne.n	7eb0 <Ftm_Pwm_Ip_DisableNotification+0xc0>
    7e42:	f89d 3013 	ldrb.w	r3, [sp, #19]
    7e46:	085b      	lsrs	r3, r3, #1
    7e48:	f88d 3012 	strb.w	r3, [sp, #18]
    7e4c:	f89d 3013 	ldrb.w	r3, [sp, #19]
    7e50:	4619      	mov	r1, r3
    7e52:	9805      	ldr	r0, [sp, #20]
    7e54:	f7fe fbbc 	bl	65d0 <Ftm_Pwm_Ip_GetChannelMode>
    7e58:	9003      	str	r0, [sp, #12]
    7e5a:	f89d 2013 	ldrb.w	r2, [sp, #19]
    7e5e:	f89d 3007 	ldrb.w	r3, [sp, #7]
    7e62:	4611      	mov	r1, r2
    7e64:	4618      	mov	r0, r3
    7e66:	f7fe ff47 	bl	6cf8 <Ftm_Pwm_Ip_DisableCmpIrq>
    7e6a:	9b03      	ldr	r3, [sp, #12]
    7e6c:	2b22      	cmp	r3, #34	; 0x22
    7e6e:	d008      	beq.n	7e82 <Ftm_Pwm_Ip_DisableNotification+0x92>
    7e70:	9b03      	ldr	r3, [sp, #12]
    7e72:	2b62      	cmp	r3, #98	; 0x62
    7e74:	d005      	beq.n	7e82 <Ftm_Pwm_Ip_DisableNotification+0x92>
    7e76:	9b03      	ldr	r3, [sp, #12]
    7e78:	2b61      	cmp	r3, #97	; 0x61
    7e7a:	d002      	beq.n	7e82 <Ftm_Pwm_Ip_DisableNotification+0x92>
    7e7c:	9b03      	ldr	r3, [sp, #12]
    7e7e:	2b21      	cmp	r3, #33	; 0x21
    7e80:	d129      	bne.n	7ed6 <Ftm_Pwm_Ip_DisableNotification+0xe6>
    7e82:	f89d 3012 	ldrb.w	r3, [sp, #18]
    7e86:	005b      	lsls	r3, r3, #1
    7e88:	b2da      	uxtb	r2, r3
    7e8a:	f89d 3007 	ldrb.w	r3, [sp, #7]
    7e8e:	4611      	mov	r1, r2
    7e90:	4618      	mov	r0, r3
    7e92:	f7fe ff31 	bl	6cf8 <Ftm_Pwm_Ip_DisableCmpIrq>
    7e96:	f89d 3012 	ldrb.w	r3, [sp, #18]
    7e9a:	005b      	lsls	r3, r3, #1
    7e9c:	b2db      	uxtb	r3, r3
    7e9e:	3301      	adds	r3, #1
    7ea0:	b2da      	uxtb	r2, r3
    7ea2:	f89d 3007 	ldrb.w	r3, [sp, #7]
    7ea6:	4611      	mov	r1, r2
    7ea8:	4618      	mov	r0, r3
    7eaa:	f7fe ff25 	bl	6cf8 <Ftm_Pwm_Ip_DisableCmpIrq>
    7eae:	e012      	b.n	7ed6 <Ftm_Pwm_Ip_DisableNotification+0xe6>
    7eb0:	9b00      	ldr	r3, [sp, #0]
    7eb2:	2b0a      	cmp	r3, #10
    7eb4:	d107      	bne.n	7ec6 <Ftm_Pwm_Ip_DisableNotification+0xd6>
    7eb6:	2100      	movs	r1, #0
    7eb8:	9805      	ldr	r0, [sp, #20]
    7eba:	f7fe fd88 	bl	69ce <Ftm_Pwm_Ip_SetFaultInterruptEnable>
    7ebe:	9805      	ldr	r0, [sp, #20]
    7ec0:	f7fe fd9b 	bl	69fa <Ftm_Pwm_Ip_ClearFaultFlag>
    7ec4:	e008      	b.n	7ed8 <Ftm_Pwm_Ip_DisableNotification+0xe8>
    7ec6:	9805      	ldr	r0, [sp, #20]
    7ec8:	f7fd fd18 	bl	58fc <Ftm_Pwm_Ip_ClearTimerOverflow>
    7ecc:	2100      	movs	r1, #0
    7ece:	9805      	ldr	r0, [sp, #20]
    7ed0:	f7fd fcfd 	bl	58ce <Ftm_Pwm_Ip_SetTimerOverflowInt>
    7ed4:	e000      	b.n	7ed8 <Ftm_Pwm_Ip_DisableNotification+0xe8>
    7ed6:	bf00      	nop
    7ed8:	f002 f87a 	bl	9fd0 <SchM_Exit_Pwm_PWM_EXCLUSIVE_AREA_04>
    7edc:	bf00      	nop
    7ede:	b007      	add	sp, #28
    7ee0:	f85d fb04 	ldr.w	pc, [sp], #4
    7ee4:	0000bb04 	.word	0x0000bb04

00007ee8 <Ftm_Pwm_Ip_SetNormalNotificationCase>:
    7ee8:	b500      	push	{lr}
    7eea:	b087      	sub	sp, #28
    7eec:	4603      	mov	r3, r0
    7eee:	460a      	mov	r2, r1
    7ef0:	f88d 3007 	strb.w	r3, [sp, #7]
    7ef4:	4613      	mov	r3, r2
    7ef6:	f88d 3006 	strb.w	r3, [sp, #6]
    7efa:	f89d 3007 	ldrb.w	r3, [sp, #7]
    7efe:	4a22      	ldr	r2, [pc, #136]	; (7f88 <Ftm_Pwm_Ip_SetNormalNotificationCase+0xa0>)
    7f00:	f852 3023 	ldr.w	r3, [r2, r3, lsl #2]
    7f04:	9305      	str	r3, [sp, #20]
    7f06:	f89d 3006 	ldrb.w	r3, [sp, #6]
    7f0a:	085b      	lsrs	r3, r3, #1
    7f0c:	f88d 3013 	strb.w	r3, [sp, #19]
    7f10:	f89d 3006 	ldrb.w	r3, [sp, #6]
    7f14:	4619      	mov	r1, r3
    7f16:	9805      	ldr	r0, [sp, #20]
    7f18:	f7fe fb5a 	bl	65d0 <Ftm_Pwm_Ip_GetChannelMode>
    7f1c:	9003      	str	r0, [sp, #12]
    7f1e:	f89d 3006 	ldrb.w	r3, [sp, #6]
    7f22:	2201      	movs	r2, #1
    7f24:	4619      	mov	r1, r3
    7f26:	9805      	ldr	r0, [sp, #20]
    7f28:	f7fd fde9 	bl	5afe <Ftm_Pwm_Ip_UpdateChnInt>
    7f2c:	9b03      	ldr	r3, [sp, #12]
    7f2e:	2b22      	cmp	r3, #34	; 0x22
    7f30:	d008      	beq.n	7f44 <Ftm_Pwm_Ip_SetNormalNotificationCase+0x5c>
    7f32:	9b03      	ldr	r3, [sp, #12]
    7f34:	2b62      	cmp	r3, #98	; 0x62
    7f36:	d005      	beq.n	7f44 <Ftm_Pwm_Ip_SetNormalNotificationCase+0x5c>
    7f38:	9b03      	ldr	r3, [sp, #12]
    7f3a:	2b61      	cmp	r3, #97	; 0x61
    7f3c:	d002      	beq.n	7f44 <Ftm_Pwm_Ip_SetNormalNotificationCase+0x5c>
    7f3e:	9b03      	ldr	r3, [sp, #12]
    7f40:	2b21      	cmp	r3, #33	; 0x21
    7f42:	d11d      	bne.n	7f80 <Ftm_Pwm_Ip_SetNormalNotificationCase+0x98>
    7f44:	f89d 3013 	ldrb.w	r3, [sp, #19]
    7f48:	005b      	lsls	r3, r3, #1
    7f4a:	b2db      	uxtb	r3, r3
    7f4c:	3301      	adds	r3, #1
    7f4e:	b2db      	uxtb	r3, r3
    7f50:	4619      	mov	r1, r3
    7f52:	9805      	ldr	r0, [sp, #20]
    7f54:	f7fd fdf6 	bl	5b44 <Ftm_Pwm_Ip_ClearChnEventFlag>
    7f58:	f89d 3013 	ldrb.w	r3, [sp, #19]
    7f5c:	005b      	lsls	r3, r3, #1
    7f5e:	b2db      	uxtb	r3, r3
    7f60:	2201      	movs	r2, #1
    7f62:	4619      	mov	r1, r3
    7f64:	9805      	ldr	r0, [sp, #20]
    7f66:	f7fd fdca 	bl	5afe <Ftm_Pwm_Ip_UpdateChnInt>
    7f6a:	f89d 3013 	ldrb.w	r3, [sp, #19]
    7f6e:	005b      	lsls	r3, r3, #1
    7f70:	b2db      	uxtb	r3, r3
    7f72:	3301      	adds	r3, #1
    7f74:	b2db      	uxtb	r3, r3
    7f76:	2201      	movs	r2, #1
    7f78:	4619      	mov	r1, r3
    7f7a:	9805      	ldr	r0, [sp, #20]
    7f7c:	f7fd fdbf 	bl	5afe <Ftm_Pwm_Ip_UpdateChnInt>
    7f80:	bf00      	nop
    7f82:	b007      	add	sp, #28
    7f84:	f85d fb04 	ldr.w	pc, [sp], #4
    7f88:	0000bb04 	.word	0x0000bb04

00007f8c <Ftm_Pwm_Ip_EnableNotification>:
    7f8c:	b500      	push	{lr}
    7f8e:	b085      	sub	sp, #20
    7f90:	4603      	mov	r3, r0
    7f92:	9100      	str	r1, [sp, #0]
    7f94:	f88d 3007 	strb.w	r3, [sp, #7]
    7f98:	f89d 3007 	ldrb.w	r3, [sp, #7]
    7f9c:	4a23      	ldr	r2, [pc, #140]	; (802c <Ftm_Pwm_Ip_EnableNotification+0xa0>)
    7f9e:	f852 3023 	ldr.w	r3, [r2, r3, lsl #2]
    7fa2:	9303      	str	r3, [sp, #12]
    7fa4:	9b00      	ldr	r3, [sp, #0]
    7fa6:	f88d 300b 	strb.w	r3, [sp, #11]
    7faa:	f002 f837 	bl	a01c <SchM_Enter_Pwm_PWM_EXCLUSIVE_AREA_05>
    7fae:	9b00      	ldr	r3, [sp, #0]
    7fb0:	2b00      	cmp	r3, #0
    7fb2:	d014      	beq.n	7fde <Ftm_Pwm_Ip_EnableNotification+0x52>
    7fb4:	9b00      	ldr	r3, [sp, #0]
    7fb6:	2b01      	cmp	r3, #1
    7fb8:	d011      	beq.n	7fde <Ftm_Pwm_Ip_EnableNotification+0x52>
    7fba:	9b00      	ldr	r3, [sp, #0]
    7fbc:	2b02      	cmp	r3, #2
    7fbe:	d00e      	beq.n	7fde <Ftm_Pwm_Ip_EnableNotification+0x52>
    7fc0:	9b00      	ldr	r3, [sp, #0]
    7fc2:	2b03      	cmp	r3, #3
    7fc4:	d00b      	beq.n	7fde <Ftm_Pwm_Ip_EnableNotification+0x52>
    7fc6:	9b00      	ldr	r3, [sp, #0]
    7fc8:	2b04      	cmp	r3, #4
    7fca:	d008      	beq.n	7fde <Ftm_Pwm_Ip_EnableNotification+0x52>
    7fcc:	9b00      	ldr	r3, [sp, #0]
    7fce:	2b05      	cmp	r3, #5
    7fd0:	d005      	beq.n	7fde <Ftm_Pwm_Ip_EnableNotification+0x52>
    7fd2:	9b00      	ldr	r3, [sp, #0]
    7fd4:	2b06      	cmp	r3, #6
    7fd6:	d002      	beq.n	7fde <Ftm_Pwm_Ip_EnableNotification+0x52>
    7fd8:	9b00      	ldr	r3, [sp, #0]
    7fda:	2b07      	cmp	r3, #7
    7fdc:	d10e      	bne.n	7ffc <Ftm_Pwm_Ip_EnableNotification+0x70>
    7fde:	f89d 300b 	ldrb.w	r3, [sp, #11]
    7fe2:	4619      	mov	r1, r3
    7fe4:	9803      	ldr	r0, [sp, #12]
    7fe6:	f7fd fdad 	bl	5b44 <Ftm_Pwm_Ip_ClearChnEventFlag>
    7fea:	f89d 200b 	ldrb.w	r2, [sp, #11]
    7fee:	f89d 3007 	ldrb.w	r3, [sp, #7]
    7ff2:	4611      	mov	r1, r2
    7ff4:	4618      	mov	r0, r3
    7ff6:	f7ff ff77 	bl	7ee8 <Ftm_Pwm_Ip_SetNormalNotificationCase>
    7ffa:	e011      	b.n	8020 <Ftm_Pwm_Ip_EnableNotification+0x94>
    7ffc:	9b00      	ldr	r3, [sp, #0]
    7ffe:	2b0a      	cmp	r3, #10
    8000:	d107      	bne.n	8012 <Ftm_Pwm_Ip_EnableNotification+0x86>
    8002:	9803      	ldr	r0, [sp, #12]
    8004:	f7fe fcf9 	bl	69fa <Ftm_Pwm_Ip_ClearFaultFlag>
    8008:	2101      	movs	r1, #1
    800a:	9803      	ldr	r0, [sp, #12]
    800c:	f7fe fcdf 	bl	69ce <Ftm_Pwm_Ip_SetFaultInterruptEnable>
    8010:	e006      	b.n	8020 <Ftm_Pwm_Ip_EnableNotification+0x94>
    8012:	9803      	ldr	r0, [sp, #12]
    8014:	f7fd fc72 	bl	58fc <Ftm_Pwm_Ip_ClearTimerOverflow>
    8018:	2101      	movs	r1, #1
    801a:	9803      	ldr	r0, [sp, #12]
    801c:	f7fd fc57 	bl	58ce <Ftm_Pwm_Ip_SetTimerOverflowInt>
    8020:	f002 f828 	bl	a074 <SchM_Exit_Pwm_PWM_EXCLUSIVE_AREA_05>
    8024:	bf00      	nop
    8026:	b005      	add	sp, #20
    8028:	f85d fb04 	ldr.w	pc, [sp], #4
    802c:	0000bb04 	.word	0x0000bb04

00008030 <Ftm_Pwm_Ip_SetPowerState>:
    8030:	b500      	push	{lr}
    8032:	b085      	sub	sp, #20
    8034:	4603      	mov	r3, r0
    8036:	9100      	str	r1, [sp, #0]
    8038:	f88d 3007 	strb.w	r3, [sp, #7]
    803c:	f89d 3007 	ldrb.w	r3, [sp, #7]
    8040:	4a0c      	ldr	r2, [pc, #48]	; (8074 <Ftm_Pwm_Ip_SetPowerState+0x44>)
    8042:	f852 3023 	ldr.w	r3, [r2, r3, lsl #2]
    8046:	9303      	str	r3, [sp, #12]
    8048:	9b00      	ldr	r3, [sp, #0]
    804a:	2b01      	cmp	r3, #1
    804c:	d104      	bne.n	8058 <Ftm_Pwm_Ip_SetPowerState+0x28>
    804e:	2100      	movs	r1, #0
    8050:	9803      	ldr	r0, [sp, #12]
    8052:	f7fd fc07 	bl	5864 <Ftm_Pwm_Ip_SetClockSource>
    8056:	e008      	b.n	806a <Ftm_Pwm_Ip_SetPowerState+0x3a>
    8058:	f89d 3007 	ldrb.w	r3, [sp, #7]
    805c:	4a06      	ldr	r2, [pc, #24]	; (8078 <Ftm_Pwm_Ip_SetPowerState+0x48>)
    805e:	f852 3023 	ldr.w	r3, [r2, r3, lsl #2]
    8062:	4619      	mov	r1, r3
    8064:	9803      	ldr	r0, [sp, #12]
    8066:	f7fd fbfd 	bl	5864 <Ftm_Pwm_Ip_SetClockSource>
    806a:	bf00      	nop
    806c:	b005      	add	sp, #20
    806e:	f85d fb04 	ldr.w	pc, [sp], #4
    8072:	bf00      	nop
    8074:	0000bb04 	.word	0x0000bb04
    8078:	1fff8ff4 	.word	0x1fff8ff4

0000807c <Ftm_Pwm_Ip_SetClockMode>:
    807c:	b500      	push	{lr}
    807e:	b085      	sub	sp, #20
    8080:	4603      	mov	r3, r0
    8082:	9100      	str	r1, [sp, #0]
    8084:	f88d 3007 	strb.w	r3, [sp, #7]
    8088:	f89d 3007 	ldrb.w	r3, [sp, #7]
    808c:	4a0e      	ldr	r2, [pc, #56]	; (80c8 <Ftm_Pwm_Ip_SetClockMode+0x4c>)
    808e:	f852 3023 	ldr.w	r3, [r2, r3, lsl #2]
    8092:	9303      	str	r3, [sp, #12]
    8094:	9b00      	ldr	r3, [sp, #0]
    8096:	2b01      	cmp	r3, #1
    8098:	d109      	bne.n	80ae <Ftm_Pwm_Ip_SetClockMode+0x32>
    809a:	f89d 3007 	ldrb.w	r3, [sp, #7]
    809e:	4a0b      	ldr	r2, [pc, #44]	; (80cc <Ftm_Pwm_Ip_SetClockMode+0x50>)
    80a0:	f852 3023 	ldr.w	r3, [r2, r3, lsl #2]
    80a4:	4619      	mov	r1, r3
    80a6:	9803      	ldr	r0, [sp, #12]
    80a8:	f7fd fbcc 	bl	5844 <Ftm_Pwm_Ip_SetClockPs>
    80ac:	e008      	b.n	80c0 <Ftm_Pwm_Ip_SetClockMode+0x44>
    80ae:	f89d 3007 	ldrb.w	r3, [sp, #7]
    80b2:	4a07      	ldr	r2, [pc, #28]	; (80d0 <Ftm_Pwm_Ip_SetClockMode+0x54>)
    80b4:	f852 3023 	ldr.w	r3, [r2, r3, lsl #2]
    80b8:	4619      	mov	r1, r3
    80ba:	9803      	ldr	r0, [sp, #12]
    80bc:	f7fd fbc2 	bl	5844 <Ftm_Pwm_Ip_SetClockPs>
    80c0:	bf00      	nop
    80c2:	b005      	add	sp, #20
    80c4:	f85d fb04 	ldr.w	pc, [sp], #4
    80c8:	0000bb04 	.word	0x0000bb04
    80cc:	1fff9014 	.word	0x1fff9014
    80d0:	1fff9004 	.word	0x1fff9004

000080d4 <Ftm_Pwm_Ip_ResetCounter>:
    80d4:	b500      	push	{lr}
    80d6:	b085      	sub	sp, #20
    80d8:	4603      	mov	r3, r0
    80da:	460a      	mov	r2, r1
    80dc:	f88d 3007 	strb.w	r3, [sp, #7]
    80e0:	4613      	mov	r3, r2
    80e2:	f88d 3006 	strb.w	r3, [sp, #6]
    80e6:	f89d 3007 	ldrb.w	r3, [sp, #7]
    80ea:	4a07      	ldr	r2, [pc, #28]	; (8108 <Ftm_Pwm_Ip_ResetCounter+0x34>)
    80ec:	f852 3023 	ldr.w	r3, [r2, r3, lsl #2]
    80f0:	9303      	str	r3, [sp, #12]
    80f2:	f89d 3006 	ldrb.w	r3, [sp, #6]
    80f6:	4619      	mov	r1, r3
    80f8:	9803      	ldr	r0, [sp, #12]
    80fa:	f7fe f8ae 	bl	625a <Ftm_Pwm_Ip_SetCounterSoftwareSyncModeCmd>
    80fe:	bf00      	nop
    8100:	b005      	add	sp, #20
    8102:	f85d fb04 	ldr.w	pc, [sp], #4
    8106:	bf00      	nop
    8108:	0000bb04 	.word	0x0000bb04

0000810c <Ftm_Pwm_Ip_GetChannelState>:
    810c:	b084      	sub	sp, #16
    810e:	4603      	mov	r3, r0
    8110:	460a      	mov	r2, r1
    8112:	f88d 3007 	strb.w	r3, [sp, #7]
    8116:	4613      	mov	r3, r2
    8118:	f88d 3006 	strb.w	r3, [sp, #6]
    811c:	f89d 2007 	ldrb.w	r2, [sp, #7]
    8120:	f89d 3006 	ldrb.w	r3, [sp, #6]
    8124:	4905      	ldr	r1, [pc, #20]	; (813c <Ftm_Pwm_Ip_GetChannelState+0x30>)
    8126:	00d2      	lsls	r2, r2, #3
    8128:	4413      	add	r3, r2
    812a:	f831 3013 	ldrh.w	r3, [r1, r3, lsl #1]
    812e:	f8ad 300e 	strh.w	r3, [sp, #14]
    8132:	f8bd 300e 	ldrh.w	r3, [sp, #14]
    8136:	4618      	mov	r0, r3
    8138:	b004      	add	sp, #16
    813a:	4770      	bx	lr
    813c:	1fff8d04 	.word	0x1fff8d04

00008140 <Ftm_Pwm_Ip_FastUpdatePwmDuty>:
    8140:	b500      	push	{lr}
    8142:	b087      	sub	sp, #28
    8144:	9202      	str	r2, [sp, #8]
    8146:	9301      	str	r3, [sp, #4]
    8148:	4603      	mov	r3, r0
    814a:	f88d 300f 	strb.w	r3, [sp, #15]
    814e:	460b      	mov	r3, r1
    8150:	f88d 300e 	strb.w	r3, [sp, #14]
    8154:	f89d 300f 	ldrb.w	r3, [sp, #15]
    8158:	4a1f      	ldr	r2, [pc, #124]	; (81d8 <Ftm_Pwm_Ip_FastUpdatePwmDuty+0x98>)
    815a:	f852 3023 	ldr.w	r3, [r2, r3, lsl #2]
    815e:	9304      	str	r3, [sp, #16]
    8160:	2300      	movs	r3, #0
    8162:	f88d 3017 	strb.w	r3, [sp, #23]
    8166:	e026      	b.n	81b6 <Ftm_Pwm_Ip_FastUpdatePwmDuty+0x76>
    8168:	f89d 3017 	ldrb.w	r3, [sp, #23]
    816c:	9a02      	ldr	r2, [sp, #8]
    816e:	4413      	add	r3, r2
    8170:	7819      	ldrb	r1, [r3, #0]
    8172:	f89d 3017 	ldrb.w	r3, [sp, #23]
    8176:	005b      	lsls	r3, r3, #1
    8178:	9a01      	ldr	r2, [sp, #4]
    817a:	4413      	add	r3, r2
    817c:	881b      	ldrh	r3, [r3, #0]
    817e:	461a      	mov	r2, r3
    8180:	9804      	ldr	r0, [sp, #16]
    8182:	f7fd fd0d 	bl	5ba0 <Ftm_Pwm_Ip_SetChnCountVal>
    8186:	f89d 3017 	ldrb.w	r3, [sp, #23]
    818a:	005b      	lsls	r3, r3, #1
    818c:	9a01      	ldr	r2, [sp, #4]
    818e:	441a      	add	r2, r3
    8190:	f89d 300f 	ldrb.w	r3, [sp, #15]
    8194:	f89d 1017 	ldrb.w	r1, [sp, #23]
    8198:	9802      	ldr	r0, [sp, #8]
    819a:	4401      	add	r1, r0
    819c:	7809      	ldrb	r1, [r1, #0]
    819e:	4608      	mov	r0, r1
    81a0:	8811      	ldrh	r1, [r2, #0]
    81a2:	4a0e      	ldr	r2, [pc, #56]	; (81dc <Ftm_Pwm_Ip_FastUpdatePwmDuty+0x9c>)
    81a4:	00db      	lsls	r3, r3, #3
    81a6:	4403      	add	r3, r0
    81a8:	f822 1013 	strh.w	r1, [r2, r3, lsl #1]
    81ac:	f89d 3017 	ldrb.w	r3, [sp, #23]
    81b0:	3301      	adds	r3, #1
    81b2:	f88d 3017 	strb.w	r3, [sp, #23]
    81b6:	f89d 2017 	ldrb.w	r2, [sp, #23]
    81ba:	f89d 300e 	ldrb.w	r3, [sp, #14]
    81be:	429a      	cmp	r2, r3
    81c0:	d3d2      	bcc.n	8168 <Ftm_Pwm_Ip_FastUpdatePwmDuty+0x28>
    81c2:	f89d 3020 	ldrb.w	r3, [sp, #32]
    81c6:	4619      	mov	r1, r3
    81c8:	9804      	ldr	r0, [sp, #16]
    81ca:	f7fd fda1 	bl	5d10 <Ftm_Pwm_Ip_SetSoftwareTriggerCmd>
    81ce:	bf00      	nop
    81d0:	b007      	add	sp, #28
    81d2:	f85d fb04 	ldr.w	pc, [sp], #4
    81d6:	bf00      	nop
    81d8:	0000bb04 	.word	0x0000bb04
    81dc:	1fff8d04 	.word	0x1fff8d04

000081e0 <Ftm_Pwm_Ip_MaskOutputChannels>:
    81e0:	b500      	push	{lr}
    81e2:	b085      	sub	sp, #20
    81e4:	4603      	mov	r3, r0
    81e6:	9100      	str	r1, [sp, #0]
    81e8:	f88d 3007 	strb.w	r3, [sp, #7]
    81ec:	4613      	mov	r3, r2
    81ee:	f88d 3006 	strb.w	r3, [sp, #6]
    81f2:	f89d 3007 	ldrb.w	r3, [sp, #7]
    81f6:	4a0b      	ldr	r2, [pc, #44]	; (8224 <Ftm_Pwm_Ip_MaskOutputChannels+0x44>)
    81f8:	f852 3023 	ldr.w	r3, [r2, r3, lsl #2]
    81fc:	9303      	str	r3, [sp, #12]
    81fe:	f001 ffb1 	bl	a164 <SchM_Enter_Pwm_PWM_EXCLUSIVE_AREA_07>
    8202:	9900      	ldr	r1, [sp, #0]
    8204:	9803      	ldr	r0, [sp, #12]
    8206:	f7fd fde0 	bl	5dca <Ftm_Pwm_Ip_SetOutmaskReg>
    820a:	f89d 3006 	ldrb.w	r3, [sp, #6]
    820e:	4619      	mov	r1, r3
    8210:	9803      	ldr	r0, [sp, #12]
    8212:	f7fd fd7d 	bl	5d10 <Ftm_Pwm_Ip_SetSoftwareTriggerCmd>
    8216:	f001 ffd1 	bl	a1bc <SchM_Exit_Pwm_PWM_EXCLUSIVE_AREA_07>
    821a:	bf00      	nop
    821c:	b005      	add	sp, #20
    821e:	f85d fb04 	ldr.w	pc, [sp], #4
    8222:	bf00      	nop
    8224:	0000bb04 	.word	0x0000bb04

00008228 <Ftm_Pwm_Ip_UnMaskOutputChannels>:
    8228:	b500      	push	{lr}
    822a:	b085      	sub	sp, #20
    822c:	4603      	mov	r3, r0
    822e:	9100      	str	r1, [sp, #0]
    8230:	f88d 3007 	strb.w	r3, [sp, #7]
    8234:	4613      	mov	r3, r2
    8236:	f88d 3006 	strb.w	r3, [sp, #6]
    823a:	f89d 3007 	ldrb.w	r3, [sp, #7]
    823e:	4a0b      	ldr	r2, [pc, #44]	; (826c <Ftm_Pwm_Ip_UnMaskOutputChannels+0x44>)
    8240:	f852 3023 	ldr.w	r3, [r2, r3, lsl #2]
    8244:	9303      	str	r3, [sp, #12]
    8246:	f001 ffdf 	bl	a208 <SchM_Enter_Pwm_PWM_EXCLUSIVE_AREA_08>
    824a:	9900      	ldr	r1, [sp, #0]
    824c:	9803      	ldr	r0, [sp, #12]
    824e:	f7fd fdcb 	bl	5de8 <Ftm_Pwm_Ip_ClearOutmaskReg>
    8252:	f89d 3006 	ldrb.w	r3, [sp, #6]
    8256:	4619      	mov	r1, r3
    8258:	9803      	ldr	r0, [sp, #12]
    825a:	f7fd fd59 	bl	5d10 <Ftm_Pwm_Ip_SetSoftwareTriggerCmd>
    825e:	f001 ffff 	bl	a260 <SchM_Exit_Pwm_PWM_EXCLUSIVE_AREA_08>
    8262:	bf00      	nop
    8264:	b005      	add	sp, #20
    8266:	f85d fb04 	ldr.w	pc, [sp], #4
    826a:	bf00      	nop
    826c:	0000bb04 	.word	0x0000bb04

00008270 <Ftm_Pwm_Ip_SetPhaseShift>:
    8270:	b510      	push	{r4, lr}
    8272:	b084      	sub	sp, #16
    8274:	4604      	mov	r4, r0
    8276:	4608      	mov	r0, r1
    8278:	4611      	mov	r1, r2
    827a:	461a      	mov	r2, r3
    827c:	4623      	mov	r3, r4
    827e:	f88d 3007 	strb.w	r3, [sp, #7]
    8282:	4603      	mov	r3, r0
    8284:	f88d 3006 	strb.w	r3, [sp, #6]
    8288:	460b      	mov	r3, r1
    828a:	f8ad 3004 	strh.w	r3, [sp, #4]
    828e:	4613      	mov	r3, r2
    8290:	f8ad 3002 	strh.w	r3, [sp, #2]
    8294:	f89d 3007 	ldrb.w	r3, [sp, #7]
    8298:	4a2e      	ldr	r2, [pc, #184]	; (8354 <Ftm_Pwm_Ip_SetPhaseShift+0xe4>)
    829a:	f852 3023 	ldr.w	r3, [r2, r3, lsl #2]
    829e:	9303      	str	r3, [sp, #12]
    82a0:	f89d 3006 	ldrb.w	r3, [sp, #6]
    82a4:	085b      	lsrs	r3, r3, #1
    82a6:	f88d 300b 	strb.w	r3, [sp, #11]
    82aa:	f89d 3007 	ldrb.w	r3, [sp, #7]
    82ae:	492a      	ldr	r1, [pc, #168]	; (8358 <Ftm_Pwm_Ip_SetPhaseShift+0xe8>)
    82b0:	f8bd 2004 	ldrh.w	r2, [sp, #4]
    82b4:	f821 2013 	strh.w	r2, [r1, r3, lsl #1]
    82b8:	f001 fff8 	bl	a2ac <SchM_Enter_Pwm_PWM_EXCLUSIVE_AREA_09>
    82bc:	9803      	ldr	r0, [sp, #12]
    82be:	f7fd faf8 	bl	58b2 <Ftm_Pwm_Ip_GetCpwms>
    82c2:	4603      	mov	r3, r0
    82c4:	2b01      	cmp	r3, #1
    82c6:	d108      	bne.n	82da <Ftm_Pwm_Ip_SetPhaseShift+0x6a>
    82c8:	f8bd 3004 	ldrh.w	r3, [sp, #4]
    82cc:	085b      	lsrs	r3, r3, #1
    82ce:	b29b      	uxth	r3, r3
    82d0:	4619      	mov	r1, r3
    82d2:	9803      	ldr	r0, [sp, #12]
    82d4:	f7fd fb40 	bl	5958 <Ftm_Pwm_Ip_SetMod>
    82d8:	e007      	b.n	82ea <Ftm_Pwm_Ip_SetPhaseShift+0x7a>
    82da:	f8bd 3004 	ldrh.w	r3, [sp, #4]
    82de:	3b01      	subs	r3, #1
    82e0:	b29b      	uxth	r3, r3
    82e2:	4619      	mov	r1, r3
    82e4:	9803      	ldr	r0, [sp, #12]
    82e6:	f7fd fb37 	bl	5958 <Ftm_Pwm_Ip_SetMod>
    82ea:	f89d 300b 	ldrb.w	r3, [sp, #11]
    82ee:	005b      	lsls	r3, r3, #1
    82f0:	b2db      	uxtb	r3, r3
    82f2:	f8bd 2002 	ldrh.w	r2, [sp, #2]
    82f6:	4619      	mov	r1, r3
    82f8:	9803      	ldr	r0, [sp, #12]
    82fa:	f7fd fc51 	bl	5ba0 <Ftm_Pwm_Ip_SetChnCountVal>
    82fe:	f8bd 3004 	ldrh.w	r3, [sp, #4]
    8302:	085b      	lsrs	r3, r3, #1
    8304:	f8ad 3008 	strh.w	r3, [sp, #8]
    8308:	f89d 2007 	ldrb.w	r2, [sp, #7]
    830c:	f89d 3006 	ldrb.w	r3, [sp, #6]
    8310:	4912      	ldr	r1, [pc, #72]	; (835c <Ftm_Pwm_Ip_SetPhaseShift+0xec>)
    8312:	00d2      	lsls	r2, r2, #3
    8314:	4413      	add	r3, r2
    8316:	f8bd 2008 	ldrh.w	r2, [sp, #8]
    831a:	f821 2013 	strh.w	r2, [r1, r3, lsl #1]
    831e:	f89d 300b 	ldrb.w	r3, [sp, #11]
    8322:	005b      	lsls	r3, r3, #1
    8324:	b2db      	uxtb	r3, r3
    8326:	3301      	adds	r3, #1
    8328:	b2d9      	uxtb	r1, r3
    832a:	f8bd 2002 	ldrh.w	r2, [sp, #2]
    832e:	f8bd 3008 	ldrh.w	r3, [sp, #8]
    8332:	4413      	add	r3, r2
    8334:	b29b      	uxth	r3, r3
    8336:	461a      	mov	r2, r3
    8338:	9803      	ldr	r0, [sp, #12]
    833a:	f7fd fc31 	bl	5ba0 <Ftm_Pwm_Ip_SetChnCountVal>
    833e:	f89d 3018 	ldrb.w	r3, [sp, #24]
    8342:	4619      	mov	r1, r3
    8344:	9803      	ldr	r0, [sp, #12]
    8346:	f7fd fce3 	bl	5d10 <Ftm_Pwm_Ip_SetSoftwareTriggerCmd>
    834a:	f001 ffdb 	bl	a304 <SchM_Exit_Pwm_PWM_EXCLUSIVE_AREA_09>
    834e:	bf00      	nop
    8350:	b004      	add	sp, #16
    8352:	bd10      	pop	{r4, pc}
    8354:	0000bb04 	.word	0x0000bb04
    8358:	1fff8cfc 	.word	0x1fff8cfc
    835c:	1fff8d04 	.word	0x1fff8d04

00008360 <Ftm_Pwm_Ip_SetDutyPhaseShift>:
    8360:	b510      	push	{r4, lr}
    8362:	b086      	sub	sp, #24
    8364:	4604      	mov	r4, r0
    8366:	4608      	mov	r0, r1
    8368:	4611      	mov	r1, r2
    836a:	461a      	mov	r2, r3
    836c:	4623      	mov	r3, r4
    836e:	f88d 300f 	strb.w	r3, [sp, #15]
    8372:	4603      	mov	r3, r0
    8374:	f88d 300e 	strb.w	r3, [sp, #14]
    8378:	460b      	mov	r3, r1
    837a:	f8ad 300c 	strh.w	r3, [sp, #12]
    837e:	4613      	mov	r3, r2
    8380:	f8ad 300a 	strh.w	r3, [sp, #10]
    8384:	f89d 300e 	ldrb.w	r3, [sp, #14]
    8388:	085b      	lsrs	r3, r3, #1
    838a:	f88d 3016 	strb.w	r3, [sp, #22]
    838e:	f89d 200f 	ldrb.w	r2, [sp, #15]
    8392:	f89d 3016 	ldrb.w	r3, [sp, #22]
    8396:	492d      	ldr	r1, [pc, #180]	; (844c <Ftm_Pwm_Ip_SetDutyPhaseShift+0xec>)
    8398:	0092      	lsls	r2, r2, #2
    839a:	4413      	add	r3, r2
    839c:	f8bd 200a 	ldrh.w	r2, [sp, #10]
    83a0:	f821 2013 	strh.w	r2, [r1, r3, lsl #1]
    83a4:	f89d 200f 	ldrb.w	r2, [sp, #15]
    83a8:	f89d 300e 	ldrb.w	r3, [sp, #14]
    83ac:	4928      	ldr	r1, [pc, #160]	; (8450 <Ftm_Pwm_Ip_SetDutyPhaseShift+0xf0>)
    83ae:	00d2      	lsls	r2, r2, #3
    83b0:	4413      	add	r3, r2
    83b2:	f8bd 200c 	ldrh.w	r2, [sp, #12]
    83b6:	f821 2013 	strh.w	r2, [r1, r3, lsl #1]
    83ba:	f8bd 300a 	ldrh.w	r3, [sp, #10]
    83be:	f8ad 3014 	strh.w	r3, [sp, #20]
    83c2:	f8bd 200a 	ldrh.w	r2, [sp, #10]
    83c6:	f8bd 100c 	ldrh.w	r1, [sp, #12]
    83ca:	f89d 300f 	ldrb.w	r3, [sp, #15]
    83ce:	4618      	mov	r0, r3
    83d0:	f7fe fbc4 	bl	6b5c <Ftm_Pwm_Ip_CalculatePhaseShift>
    83d4:	4603      	mov	r3, r0
    83d6:	f8ad 3012 	strh.w	r3, [sp, #18]
    83da:	f89d 3020 	ldrb.w	r3, [sp, #32]
    83de:	2b00      	cmp	r3, #0
    83e0:	d003      	beq.n	83ea <Ftm_Pwm_Ip_SetDutyPhaseShift+0x8a>
    83e2:	2300      	movs	r3, #0
    83e4:	f88d 3017 	strb.w	r3, [sp, #23]
    83e8:	e002      	b.n	83f0 <Ftm_Pwm_Ip_SetDutyPhaseShift+0x90>
    83ea:	2301      	movs	r3, #1
    83ec:	f88d 3017 	strb.w	r3, [sp, #23]
    83f0:	f89d 200f 	ldrb.w	r2, [sp, #15]
    83f4:	f89d 300e 	ldrb.w	r3, [sp, #14]
    83f8:	4916      	ldr	r1, [pc, #88]	; (8454 <Ftm_Pwm_Ip_SetDutyPhaseShift+0xf4>)
    83fa:	00d2      	lsls	r2, r2, #3
    83fc:	4413      	add	r3, r2
    83fe:	f851 3023 	ldr.w	r3, [r1, r3, lsl #2]
    8402:	2b02      	cmp	r3, #2
    8404:	d111      	bne.n	842a <Ftm_Pwm_Ip_SetDutyPhaseShift+0xca>
    8406:	f89d 200f 	ldrb.w	r2, [sp, #15]
    840a:	f89d 300e 	ldrb.w	r3, [sp, #14]
    840e:	4911      	ldr	r1, [pc, #68]	; (8454 <Ftm_Pwm_Ip_SetDutyPhaseShift+0xf4>)
    8410:	00d2      	lsls	r2, r2, #3
    8412:	4413      	add	r3, r2
    8414:	2201      	movs	r2, #1
    8416:	f841 2023 	str.w	r2, [r1, r3, lsl #2]
    841a:	f89d 100e 	ldrb.w	r1, [sp, #14]
    841e:	f89d 000f 	ldrb.w	r0, [sp, #15]
    8422:	2300      	movs	r3, #0
    8424:	2200      	movs	r2, #0
    8426:	f7ff fb25 	bl	7a74 <Ftm_Pwm_Ip_SwOutputControl>
    842a:	f8bd 4012 	ldrh.w	r4, [sp, #18]
    842e:	f8bd 2014 	ldrh.w	r2, [sp, #20]
    8432:	f89d 100e 	ldrb.w	r1, [sp, #14]
    8436:	f89d 000f 	ldrb.w	r0, [sp, #15]
    843a:	f89d 3017 	ldrb.w	r3, [sp, #23]
    843e:	9300      	str	r3, [sp, #0]
    8440:	4623      	mov	r3, r4
    8442:	f7ff fbdd 	bl	7c00 <Ftm_Pwm_Ip_UpdatePwmChannel>
    8446:	bf00      	nop
    8448:	b006      	add	sp, #24
    844a:	bd10      	pop	{r4, pc}
    844c:	1fff8d44 	.word	0x1fff8d44
    8450:	1fff8d04 	.word	0x1fff8d04
    8454:	1fff8ed4 	.word	0x1fff8ed4

00008458 <Ftm_Pwm_Ip_DisableTrigger>:
    8458:	b500      	push	{lr}
    845a:	b085      	sub	sp, #20
    845c:	4603      	mov	r3, r0
    845e:	9100      	str	r1, [sp, #0]
    8460:	f88d 3007 	strb.w	r3, [sp, #7]
    8464:	f89d 3007 	ldrb.w	r3, [sp, #7]
    8468:	4a07      	ldr	r2, [pc, #28]	; (8488 <Ftm_Pwm_Ip_DisableTrigger+0x30>)
    846a:	f852 3023 	ldr.w	r3, [r2, r3, lsl #2]
    846e:	9303      	str	r3, [sp, #12]
    8470:	f001 ff6e 	bl	a350 <SchM_Enter_Pwm_PWM_EXCLUSIVE_AREA_10>
    8474:	9900      	ldr	r1, [sp, #0]
    8476:	9803      	ldr	r0, [sp, #12]
    8478:	f7fd fdea 	bl	6050 <Ftm_Pwm_Ip_DisableTriggerMask>
    847c:	f001 ff94 	bl	a3a8 <SchM_Exit_Pwm_PWM_EXCLUSIVE_AREA_10>
    8480:	bf00      	nop
    8482:	b005      	add	sp, #20
    8484:	f85d fb04 	ldr.w	pc, [sp], #4
    8488:	0000bb04 	.word	0x0000bb04

0000848c <Ftm_Pwm_Ip_EnableTrigger>:
    848c:	b500      	push	{lr}
    848e:	b085      	sub	sp, #20
    8490:	4603      	mov	r3, r0
    8492:	9100      	str	r1, [sp, #0]
    8494:	f88d 3007 	strb.w	r3, [sp, #7]
    8498:	f89d 3007 	ldrb.w	r3, [sp, #7]
    849c:	4a07      	ldr	r2, [pc, #28]	; (84bc <Ftm_Pwm_Ip_EnableTrigger+0x30>)
    849e:	f852 3023 	ldr.w	r3, [r2, r3, lsl #2]
    84a2:	9303      	str	r3, [sp, #12]
    84a4:	f001 ffa6 	bl	a3f4 <SchM_Enter_Pwm_PWM_EXCLUSIVE_AREA_11>
    84a8:	9900      	ldr	r1, [sp, #0]
    84aa:	9803      	ldr	r0, [sp, #12]
    84ac:	f7fd fddd 	bl	606a <Ftm_Pwm_Ip_EnableTriggerMask>
    84b0:	f001 ffcc 	bl	a44c <SchM_Exit_Pwm_PWM_EXCLUSIVE_AREA_11>
    84b4:	bf00      	nop
    84b6:	b005      	add	sp, #20
    84b8:	f85d fb04 	ldr.w	pc, [sp], #4
    84bc:	0000bb04 	.word	0x0000bb04

000084c0 <Ftm_Pwm_Ip_SyncUpdate>:
    84c0:	b500      	push	{lr}
    84c2:	b085      	sub	sp, #20
    84c4:	4603      	mov	r3, r0
    84c6:	f88d 3007 	strb.w	r3, [sp, #7]
    84ca:	f89d 3007 	ldrb.w	r3, [sp, #7]
    84ce:	4a08      	ldr	r2, [pc, #32]	; (84f0 <Ftm_Pwm_Ip_SyncUpdate+0x30>)
    84d0:	f852 3023 	ldr.w	r3, [r2, r3, lsl #2]
    84d4:	9303      	str	r3, [sp, #12]
    84d6:	f001 ffdf 	bl	a498 <SchM_Enter_Pwm_PWM_EXCLUSIVE_AREA_12>
    84da:	2101      	movs	r1, #1
    84dc:	9803      	ldr	r0, [sp, #12]
    84de:	f7fd fc17 	bl	5d10 <Ftm_Pwm_Ip_SetSoftwareTriggerCmd>
    84e2:	f002 f805 	bl	a4f0 <SchM_Exit_Pwm_PWM_EXCLUSIVE_AREA_12>
    84e6:	bf00      	nop
    84e8:	b005      	add	sp, #20
    84ea:	f85d fb04 	ldr.w	pc, [sp], #4
    84ee:	bf00      	nop
    84f0:	0000bb04 	.word	0x0000bb04

000084f4 <Ftm_Pwm_Ip_SetChannelDeadTime>:
    84f4:	b500      	push	{lr}
    84f6:	b085      	sub	sp, #20
    84f8:	4603      	mov	r3, r0
    84fa:	f88d 3007 	strb.w	r3, [sp, #7]
    84fe:	460b      	mov	r3, r1
    8500:	f88d 3006 	strb.w	r3, [sp, #6]
    8504:	4613      	mov	r3, r2
    8506:	f8ad 3004 	strh.w	r3, [sp, #4]
    850a:	f89d 3007 	ldrb.w	r3, [sp, #7]
    850e:	4a17      	ldr	r2, [pc, #92]	; (856c <Ftm_Pwm_Ip_SetChannelDeadTime+0x78>)
    8510:	f852 3023 	ldr.w	r3, [r2, r3, lsl #2]
    8514:	9303      	str	r3, [sp, #12]
    8516:	f002 f811 	bl	a53c <SchM_Enter_Pwm_PWM_EXCLUSIVE_AREA_13>
    851a:	f8bd 3004 	ldrh.w	r3, [sp, #4]
    851e:	2b3f      	cmp	r3, #63	; 0x3f
    8520:	d80b      	bhi.n	853a <Ftm_Pwm_Ip_SetChannelDeadTime+0x46>
    8522:	f8bd 3004 	ldrh.w	r3, [sp, #4]
    8526:	b2db      	uxtb	r3, r3
    8528:	4619      	mov	r1, r3
    852a:	9803      	ldr	r0, [sp, #12]
    852c:	f7fd fd42 	bl	5fb4 <Ftm_Pwm_Ip_SetDeadtimeCount>
    8530:	2100      	movs	r1, #0
    8532:	9803      	ldr	r0, [sp, #12]
    8534:	f7fd fd62 	bl	5ffc <Ftm_Pwm_Ip_SetExtDeadtimeValue>
    8538:	e012      	b.n	8560 <Ftm_Pwm_Ip_SetChannelDeadTime+0x6c>
    853a:	f8bd 3004 	ldrh.w	r3, [sp, #4]
    853e:	b2db      	uxtb	r3, r3
    8540:	f003 033f 	and.w	r3, r3, #63	; 0x3f
    8544:	b2db      	uxtb	r3, r3
    8546:	4619      	mov	r1, r3
    8548:	9803      	ldr	r0, [sp, #12]
    854a:	f7fd fd33 	bl	5fb4 <Ftm_Pwm_Ip_SetDeadtimeCount>
    854e:	f8bd 3004 	ldrh.w	r3, [sp, #4]
    8552:	099b      	lsrs	r3, r3, #6
    8554:	b29b      	uxth	r3, r3
    8556:	b2db      	uxtb	r3, r3
    8558:	4619      	mov	r1, r3
    855a:	9803      	ldr	r0, [sp, #12]
    855c:	f7fd fd4e 	bl	5ffc <Ftm_Pwm_Ip_SetExtDeadtimeValue>
    8560:	f002 f818 	bl	a594 <SchM_Exit_Pwm_PWM_EXCLUSIVE_AREA_13>
    8564:	bf00      	nop
    8566:	b005      	add	sp, #20
    8568:	f85d fb04 	ldr.w	pc, [sp], #4
    856c:	0000bb04 	.word	0x0000bb04

00008570 <Pwm_Init>:
    8570:	b510      	push	{r4, lr}
    8572:	b084      	sub	sp, #16
    8574:	9001      	str	r0, [sp, #4]
    8576:	2300      	movs	r3, #0
    8578:	9302      	str	r3, [sp, #8]
    857a:	493e      	ldr	r1, [pc, #248]	; (8674 <Pwm_Init+0x104>)
    857c:	9a02      	ldr	r2, [sp, #8]
    857e:	4613      	mov	r3, r2
    8580:	009b      	lsls	r3, r3, #2
    8582:	4413      	add	r3, r2
    8584:	009b      	lsls	r3, r3, #2
    8586:	440b      	add	r3, r1
    8588:	9a01      	ldr	r2, [sp, #4]
    858a:	601a      	str	r2, [r3, #0]
    858c:	2300      	movs	r3, #0
    858e:	f88d 300f 	strb.w	r3, [sp, #15]
    8592:	e017      	b.n	85c4 <Pwm_Init+0x54>
    8594:	4937      	ldr	r1, [pc, #220]	; (8674 <Pwm_Init+0x104>)
    8596:	9a02      	ldr	r2, [sp, #8]
    8598:	4613      	mov	r3, r2
    859a:	009b      	lsls	r3, r3, #2
    859c:	4413      	add	r3, r2
    859e:	009b      	lsls	r3, r3, #2
    85a0:	440b      	add	r3, r1
    85a2:	681b      	ldr	r3, [r3, #0]
    85a4:	68d9      	ldr	r1, [r3, #12]
    85a6:	f89d 200f 	ldrb.w	r2, [sp, #15]
    85aa:	4613      	mov	r3, r2
    85ac:	005b      	lsls	r3, r3, #1
    85ae:	4413      	add	r3, r2
    85b0:	009b      	lsls	r3, r3, #2
    85b2:	440b      	add	r3, r1
    85b4:	4618      	mov	r0, r3
    85b6:	f000 f917 	bl	87e8 <Pwm_Ipw_InitInstance>
    85ba:	f89d 300f 	ldrb.w	r3, [sp, #15]
    85be:	3301      	adds	r3, #1
    85c0:	f88d 300f 	strb.w	r3, [sp, #15]
    85c4:	492b      	ldr	r1, [pc, #172]	; (8674 <Pwm_Init+0x104>)
    85c6:	9a02      	ldr	r2, [sp, #8]
    85c8:	4613      	mov	r3, r2
    85ca:	009b      	lsls	r3, r3, #2
    85cc:	4413      	add	r3, r2
    85ce:	009b      	lsls	r3, r3, #2
    85d0:	440b      	add	r3, r1
    85d2:	681b      	ldr	r3, [r3, #0]
    85d4:	7a1b      	ldrb	r3, [r3, #8]
    85d6:	f89d 200f 	ldrb.w	r2, [sp, #15]
    85da:	429a      	cmp	r2, r3
    85dc:	d3da      	bcc.n	8594 <Pwm_Init+0x24>
    85de:	2300      	movs	r3, #0
    85e0:	f88d 300f 	strb.w	r3, [sp, #15]
    85e4:	e034      	b.n	8650 <Pwm_Init+0xe0>
    85e6:	4923      	ldr	r1, [pc, #140]	; (8674 <Pwm_Init+0x104>)
    85e8:	9a02      	ldr	r2, [sp, #8]
    85ea:	4613      	mov	r3, r2
    85ec:	009b      	lsls	r3, r3, #2
    85ee:	4413      	add	r3, r2
    85f0:	009b      	lsls	r3, r3, #2
    85f2:	440b      	add	r3, r1
    85f4:	681b      	ldr	r3, [r3, #0]
    85f6:	6859      	ldr	r1, [r3, #4]
    85f8:	f89d 200f 	ldrb.w	r2, [sp, #15]
    85fc:	f89d 000f 	ldrb.w	r0, [sp, #15]
    8600:	4613      	mov	r3, r2
    8602:	005b      	lsls	r3, r3, #1
    8604:	4413      	add	r3, r2
    8606:	00db      	lsls	r3, r3, #3
    8608:	4419      	add	r1, r3
    860a:	4c1a      	ldr	r4, [pc, #104]	; (8674 <Pwm_Init+0x104>)
    860c:	9a02      	ldr	r2, [sp, #8]
    860e:	4613      	mov	r3, r2
    8610:	009b      	lsls	r3, r3, #2
    8612:	4413      	add	r3, r2
    8614:	4403      	add	r3, r0
    8616:	3302      	adds	r3, #2
    8618:	009b      	lsls	r3, r3, #2
    861a:	4423      	add	r3, r4
    861c:	6059      	str	r1, [r3, #4]
    861e:	4915      	ldr	r1, [pc, #84]	; (8674 <Pwm_Init+0x104>)
    8620:	9a02      	ldr	r2, [sp, #8]
    8622:	4613      	mov	r3, r2
    8624:	009b      	lsls	r3, r3, #2
    8626:	4413      	add	r3, r2
    8628:	009b      	lsls	r3, r3, #2
    862a:	440b      	add	r3, r1
    862c:	681b      	ldr	r3, [r3, #0]
    862e:	6859      	ldr	r1, [r3, #4]
    8630:	f89d 200f 	ldrb.w	r2, [sp, #15]
    8634:	4613      	mov	r3, r2
    8636:	005b      	lsls	r3, r3, #1
    8638:	4413      	add	r3, r2
    863a:	00db      	lsls	r3, r3, #3
    863c:	3308      	adds	r3, #8
    863e:	440b      	add	r3, r1
    8640:	4618      	mov	r0, r3
    8642:	f000 f8af 	bl	87a4 <Pwm_Ipw_Init>
    8646:	f89d 300f 	ldrb.w	r3, [sp, #15]
    864a:	3301      	adds	r3, #1
    864c:	f88d 300f 	strb.w	r3, [sp, #15]
    8650:	4908      	ldr	r1, [pc, #32]	; (8674 <Pwm_Init+0x104>)
    8652:	9a02      	ldr	r2, [sp, #8]
    8654:	4613      	mov	r3, r2
    8656:	009b      	lsls	r3, r3, #2
    8658:	4413      	add	r3, r2
    865a:	009b      	lsls	r3, r3, #2
    865c:	440b      	add	r3, r1
    865e:	681b      	ldr	r3, [r3, #0]
    8660:	781b      	ldrb	r3, [r3, #0]
    8662:	f89d 200f 	ldrb.w	r2, [sp, #15]
    8666:	429a      	cmp	r2, r3
    8668:	d3bd      	bcc.n	85e6 <Pwm_Init+0x76>
    866a:	bf00      	nop
    866c:	bf00      	nop
    866e:	b004      	add	sp, #16
    8670:	bd10      	pop	{r4, pc}
    8672:	bf00      	nop
    8674:	1fff8b24 	.word	0x1fff8b24

00008678 <Pwm_DeInit>:
    8678:	b500      	push	{lr}
    867a:	b085      	sub	sp, #20
    867c:	2300      	movs	r3, #0
    867e:	9302      	str	r3, [sp, #8]
    8680:	2300      	movs	r3, #0
    8682:	f88d 300f 	strb.w	r3, [sp, #15]
    8686:	e02a      	b.n	86de <Pwm_DeInit+0x66>
    8688:	4945      	ldr	r1, [pc, #276]	; (87a0 <Pwm_DeInit+0x128>)
    868a:	9a02      	ldr	r2, [sp, #8]
    868c:	4613      	mov	r3, r2
    868e:	009b      	lsls	r3, r3, #2
    8690:	4413      	add	r3, r2
    8692:	009b      	lsls	r3, r3, #2
    8694:	440b      	add	r3, r1
    8696:	330c      	adds	r3, #12
    8698:	6819      	ldr	r1, [r3, #0]
    869a:	f89d 200f 	ldrb.w	r2, [sp, #15]
    869e:	4613      	mov	r3, r2
    86a0:	005b      	lsls	r3, r3, #1
    86a2:	4413      	add	r3, r2
    86a4:	00db      	lsls	r3, r3, #3
    86a6:	440b      	add	r3, r1
    86a8:	f103 0008 	add.w	r0, r3, #8
    86ac:	493c      	ldr	r1, [pc, #240]	; (87a0 <Pwm_DeInit+0x128>)
    86ae:	9a02      	ldr	r2, [sp, #8]
    86b0:	4613      	mov	r3, r2
    86b2:	009b      	lsls	r3, r3, #2
    86b4:	4413      	add	r3, r2
    86b6:	009b      	lsls	r3, r3, #2
    86b8:	440b      	add	r3, r1
    86ba:	330c      	adds	r3, #12
    86bc:	6819      	ldr	r1, [r3, #0]
    86be:	f89d 200f 	ldrb.w	r2, [sp, #15]
    86c2:	4613      	mov	r3, r2
    86c4:	005b      	lsls	r3, r3, #1
    86c6:	4413      	add	r3, r2
    86c8:	00db      	lsls	r3, r3, #3
    86ca:	440b      	add	r3, r1
    86cc:	695b      	ldr	r3, [r3, #20]
    86ce:	4619      	mov	r1, r3
    86d0:	f000 f8e0 	bl	8894 <Pwm_Ipw_DeInit>
    86d4:	f89d 300f 	ldrb.w	r3, [sp, #15]
    86d8:	3301      	adds	r3, #1
    86da:	f88d 300f 	strb.w	r3, [sp, #15]
    86de:	4930      	ldr	r1, [pc, #192]	; (87a0 <Pwm_DeInit+0x128>)
    86e0:	9a02      	ldr	r2, [sp, #8]
    86e2:	4613      	mov	r3, r2
    86e4:	009b      	lsls	r3, r3, #2
    86e6:	4413      	add	r3, r2
    86e8:	009b      	lsls	r3, r3, #2
    86ea:	440b      	add	r3, r1
    86ec:	681b      	ldr	r3, [r3, #0]
    86ee:	781b      	ldrb	r3, [r3, #0]
    86f0:	f89d 200f 	ldrb.w	r2, [sp, #15]
    86f4:	429a      	cmp	r2, r3
    86f6:	d3c7      	bcc.n	8688 <Pwm_DeInit+0x10>
    86f8:	4929      	ldr	r1, [pc, #164]	; (87a0 <Pwm_DeInit+0x128>)
    86fa:	9a02      	ldr	r2, [sp, #8]
    86fc:	4613      	mov	r3, r2
    86fe:	009b      	lsls	r3, r3, #2
    8700:	4413      	add	r3, r2
    8702:	009b      	lsls	r3, r3, #2
    8704:	440b      	add	r3, r1
    8706:	681b      	ldr	r3, [r3, #0]
    8708:	9301      	str	r3, [sp, #4]
    870a:	2300      	movs	r3, #0
    870c:	f88d 300f 	strb.w	r3, [sp, #15]
    8710:	e010      	b.n	8734 <Pwm_DeInit+0xbc>
    8712:	9b01      	ldr	r3, [sp, #4]
    8714:	68d9      	ldr	r1, [r3, #12]
    8716:	f89d 200f 	ldrb.w	r2, [sp, #15]
    871a:	4613      	mov	r3, r2
    871c:	005b      	lsls	r3, r3, #1
    871e:	4413      	add	r3, r2
    8720:	009b      	lsls	r3, r3, #2
    8722:	440b      	add	r3, r1
    8724:	4618      	mov	r0, r3
    8726:	f000 f8d5 	bl	88d4 <Pwm_Ipw_DeInitInstance>
    872a:	f89d 300f 	ldrb.w	r3, [sp, #15]
    872e:	3301      	adds	r3, #1
    8730:	f88d 300f 	strb.w	r3, [sp, #15]
    8734:	491a      	ldr	r1, [pc, #104]	; (87a0 <Pwm_DeInit+0x128>)
    8736:	9a02      	ldr	r2, [sp, #8]
    8738:	4613      	mov	r3, r2
    873a:	009b      	lsls	r3, r3, #2
    873c:	4413      	add	r3, r2
    873e:	009b      	lsls	r3, r3, #2
    8740:	440b      	add	r3, r1
    8742:	681b      	ldr	r3, [r3, #0]
    8744:	7a1b      	ldrb	r3, [r3, #8]
    8746:	f89d 200f 	ldrb.w	r2, [sp, #15]
    874a:	429a      	cmp	r2, r3
    874c:	d3e1      	bcc.n	8712 <Pwm_DeInit+0x9a>
    874e:	4914      	ldr	r1, [pc, #80]	; (87a0 <Pwm_DeInit+0x128>)
    8750:	9a02      	ldr	r2, [sp, #8]
    8752:	4613      	mov	r3, r2
    8754:	009b      	lsls	r3, r3, #2
    8756:	4413      	add	r3, r2
    8758:	009b      	lsls	r3, r3, #2
    875a:	440b      	add	r3, r1
    875c:	2200      	movs	r2, #0
    875e:	601a      	str	r2, [r3, #0]
    8760:	2300      	movs	r3, #0
    8762:	f88d 300f 	strb.w	r3, [sp, #15]
    8766:	e011      	b.n	878c <Pwm_DeInit+0x114>
    8768:	f89d 100f 	ldrb.w	r1, [sp, #15]
    876c:	480c      	ldr	r0, [pc, #48]	; (87a0 <Pwm_DeInit+0x128>)
    876e:	9a02      	ldr	r2, [sp, #8]
    8770:	4613      	mov	r3, r2
    8772:	009b      	lsls	r3, r3, #2
    8774:	4413      	add	r3, r2
    8776:	440b      	add	r3, r1
    8778:	3302      	adds	r3, #2
    877a:	009b      	lsls	r3, r3, #2
    877c:	4403      	add	r3, r0
    877e:	2200      	movs	r2, #0
    8780:	605a      	str	r2, [r3, #4]
    8782:	f89d 300f 	ldrb.w	r3, [sp, #15]
    8786:	3301      	adds	r3, #1
    8788:	f88d 300f 	strb.w	r3, [sp, #15]
    878c:	f89d 300f 	ldrb.w	r3, [sp, #15]
    8790:	2b00      	cmp	r3, #0
    8792:	d0e9      	beq.n	8768 <Pwm_DeInit+0xf0>
    8794:	bf00      	nop
    8796:	bf00      	nop
    8798:	b005      	add	sp, #20
    879a:	f85d fb04 	ldr.w	pc, [sp], #4
    879e:	bf00      	nop
    87a0:	1fff8b24 	.word	0x1fff8b24

000087a4 <Pwm_Ipw_Init>:
    87a4:	b410      	push	{r4}
    87a6:	b083      	sub	sp, #12
    87a8:	9001      	str	r0, [sp, #4]
    87aa:	9b01      	ldr	r3, [sp, #4]
    87ac:	681b      	ldr	r3, [r3, #0]
    87ae:	2b00      	cmp	r3, #0
    87b0:	d010      	beq.n	87d4 <Pwm_Ipw_Init+0x30>
    87b2:	2b01      	cmp	r3, #1
    87b4:	d110      	bne.n	87d8 <Pwm_Ipw_Init+0x34>
    87b6:	9b01      	ldr	r3, [sp, #4]
    87b8:	7a1b      	ldrb	r3, [r3, #8]
    87ba:	461c      	mov	r4, r3
    87bc:	9b01      	ldr	r3, [sp, #4]
    87be:	685b      	ldr	r3, [r3, #4]
    87c0:	781b      	ldrb	r3, [r3, #0]
    87c2:	4618      	mov	r0, r3
    87c4:	9b01      	ldr	r3, [sp, #4]
    87c6:	8959      	ldrh	r1, [r3, #10]
    87c8:	4a06      	ldr	r2, [pc, #24]	; (87e4 <Pwm_Ipw_Init+0x40>)
    87ca:	00e3      	lsls	r3, r4, #3
    87cc:	4403      	add	r3, r0
    87ce:	f822 1013 	strh.w	r1, [r2, r3, lsl #1]
    87d2:	e002      	b.n	87da <Pwm_Ipw_Init+0x36>
    87d4:	bf00      	nop
    87d6:	e000      	b.n	87da <Pwm_Ipw_Init+0x36>
    87d8:	bf00      	nop
    87da:	bf00      	nop
    87dc:	b003      	add	sp, #12
    87de:	f85d 4b04 	ldr.w	r4, [sp], #4
    87e2:	4770      	bx	lr
    87e4:	1fff90a4 	.word	0x1fff90a4

000087e8 <Pwm_Ipw_InitInstance>:
    87e8:	b500      	push	{lr}
    87ea:	b085      	sub	sp, #20
    87ec:	9001      	str	r0, [sp, #4]
    87ee:	2300      	movs	r3, #0
    87f0:	f88d 300f 	strb.w	r3, [sp, #15]
    87f4:	2300      	movs	r3, #0
    87f6:	f88d 300e 	strb.w	r3, [sp, #14]
    87fa:	9b01      	ldr	r3, [sp, #4]
    87fc:	685b      	ldr	r3, [r3, #4]
    87fe:	2b00      	cmp	r3, #0
    8800:	d03c      	beq.n	887c <Pwm_Ipw_InitInstance+0x94>
    8802:	2b01      	cmp	r3, #1
    8804:	d13c      	bne.n	8880 <Pwm_Ipw_InitInstance+0x98>
    8806:	9b01      	ldr	r3, [sp, #4]
    8808:	689b      	ldr	r3, [r3, #8]
    880a:	2b00      	cmp	r3, #0
    880c:	d03a      	beq.n	8884 <Pwm_Ipw_InitInstance+0x9c>
    880e:	9b01      	ldr	r3, [sp, #4]
    8810:	781a      	ldrb	r2, [r3, #0]
    8812:	9b01      	ldr	r3, [sp, #4]
    8814:	689b      	ldr	r3, [r3, #8]
    8816:	4619      	mov	r1, r3
    8818:	4610      	mov	r0, r2
    881a:	f7fe ff4f 	bl	76bc <Ftm_Pwm_Ip_Init>
    881e:	2300      	movs	r3, #0
    8820:	f88d 300f 	strb.w	r3, [sp, #15]
    8824:	e022      	b.n	886c <Pwm_Ipw_InitInstance+0x84>
    8826:	9b01      	ldr	r3, [sp, #4]
    8828:	689b      	ldr	r3, [r3, #8]
    882a:	685a      	ldr	r2, [r3, #4]
    882c:	f89d 300f 	ldrb.w	r3, [sp, #15]
    8830:	009b      	lsls	r3, r3, #2
    8832:	4413      	add	r3, r2
    8834:	681b      	ldr	r3, [r3, #0]
    8836:	781b      	ldrb	r3, [r3, #0]
    8838:	f88d 300e 	strb.w	r3, [sp, #14]
    883c:	9b01      	ldr	r3, [sp, #4]
    883e:	689b      	ldr	r3, [r3, #8]
    8840:	685a      	ldr	r2, [r3, #4]
    8842:	f89d 300f 	ldrb.w	r3, [sp, #15]
    8846:	009b      	lsls	r3, r3, #2
    8848:	4413      	add	r3, r2
    884a:	681a      	ldr	r2, [r3, #0]
    884c:	9b01      	ldr	r3, [sp, #4]
    884e:	781b      	ldrb	r3, [r3, #0]
    8850:	4619      	mov	r1, r3
    8852:	f89d 300e 	ldrb.w	r3, [sp, #14]
    8856:	6a12      	ldr	r2, [r2, #32]
    8858:	480d      	ldr	r0, [pc, #52]	; (8890 <Pwm_Ipw_InitInstance+0xa8>)
    885a:	00c9      	lsls	r1, r1, #3
    885c:	440b      	add	r3, r1
    885e:	f840 2023 	str.w	r2, [r0, r3, lsl #2]
    8862:	f89d 300f 	ldrb.w	r3, [sp, #15]
    8866:	3301      	adds	r3, #1
    8868:	f88d 300f 	strb.w	r3, [sp, #15]
    886c:	9b01      	ldr	r3, [sp, #4]
    886e:	689b      	ldr	r3, [r3, #8]
    8870:	7a1b      	ldrb	r3, [r3, #8]
    8872:	f89d 200f 	ldrb.w	r2, [sp, #15]
    8876:	429a      	cmp	r2, r3
    8878:	d3d5      	bcc.n	8826 <Pwm_Ipw_InitInstance+0x3e>
    887a:	e003      	b.n	8884 <Pwm_Ipw_InitInstance+0x9c>
    887c:	bf00      	nop
    887e:	e002      	b.n	8886 <Pwm_Ipw_InitInstance+0x9e>
    8880:	bf00      	nop
    8882:	e000      	b.n	8886 <Pwm_Ipw_InitInstance+0x9e>
    8884:	bf00      	nop
    8886:	bf00      	nop
    8888:	b005      	add	sp, #20
    888a:	f85d fb04 	ldr.w	pc, [sp], #4
    888e:	bf00      	nop
    8890:	1fff9024 	.word	0x1fff9024

00008894 <Pwm_Ipw_DeInit>:
    8894:	b082      	sub	sp, #8
    8896:	9001      	str	r0, [sp, #4]
    8898:	9100      	str	r1, [sp, #0]
    889a:	9b01      	ldr	r3, [sp, #4]
    889c:	681b      	ldr	r3, [r3, #0]
    889e:	2b00      	cmp	r3, #0
    88a0:	d00f      	beq.n	88c2 <Pwm_Ipw_DeInit+0x2e>
    88a2:	2b01      	cmp	r3, #1
    88a4:	d10f      	bne.n	88c6 <Pwm_Ipw_DeInit+0x32>
    88a6:	9b01      	ldr	r3, [sp, #4]
    88a8:	7a1b      	ldrb	r3, [r3, #8]
    88aa:	4618      	mov	r0, r3
    88ac:	9b01      	ldr	r3, [sp, #4]
    88ae:	685b      	ldr	r3, [r3, #4]
    88b0:	781b      	ldrb	r3, [r3, #0]
    88b2:	4619      	mov	r1, r3
    88b4:	4a06      	ldr	r2, [pc, #24]	; (88d0 <Pwm_Ipw_DeInit+0x3c>)
    88b6:	00c3      	lsls	r3, r0, #3
    88b8:	440b      	add	r3, r1
    88ba:	2100      	movs	r1, #0
    88bc:	f822 1013 	strh.w	r1, [r2, r3, lsl #1]
    88c0:	e002      	b.n	88c8 <Pwm_Ipw_DeInit+0x34>
    88c2:	bf00      	nop
    88c4:	e000      	b.n	88c8 <Pwm_Ipw_DeInit+0x34>
    88c6:	bf00      	nop
    88c8:	bf00      	nop
    88ca:	b002      	add	sp, #8
    88cc:	4770      	bx	lr
    88ce:	bf00      	nop
    88d0:	1fff90a4 	.word	0x1fff90a4

000088d4 <Pwm_Ipw_DeInitInstance>:
    88d4:	b500      	push	{lr}
    88d6:	b083      	sub	sp, #12
    88d8:	9001      	str	r0, [sp, #4]
    88da:	9b01      	ldr	r3, [sp, #4]
    88dc:	685b      	ldr	r3, [r3, #4]
    88de:	2b00      	cmp	r3, #0
    88e0:	d00b      	beq.n	88fa <Pwm_Ipw_DeInitInstance+0x26>
    88e2:	2b01      	cmp	r3, #1
    88e4:	d10b      	bne.n	88fe <Pwm_Ipw_DeInitInstance+0x2a>
    88e6:	9b01      	ldr	r3, [sp, #4]
    88e8:	689b      	ldr	r3, [r3, #8]
    88ea:	2b00      	cmp	r3, #0
    88ec:	d009      	beq.n	8902 <Pwm_Ipw_DeInitInstance+0x2e>
    88ee:	9b01      	ldr	r3, [sp, #4]
    88f0:	781b      	ldrb	r3, [r3, #0]
    88f2:	4618      	mov	r0, r3
    88f4:	f7fe ff40 	bl	7778 <Ftm_Pwm_Ip_DeInit>
    88f8:	e003      	b.n	8902 <Pwm_Ipw_DeInitInstance+0x2e>
    88fa:	bf00      	nop
    88fc:	e002      	b.n	8904 <Pwm_Ipw_DeInitInstance+0x30>
    88fe:	bf00      	nop
    8900:	e000      	b.n	8904 <Pwm_Ipw_DeInitInstance+0x30>
    8902:	bf00      	nop
    8904:	bf00      	nop
    8906:	b003      	add	sp, #12
    8908:	f85d fb04 	ldr.w	pc, [sp], #4

0000890c <SchM_Enter_Mcu_MCU_EXCLUSIVE_AREA_00>:
    890c:	b500      	push	{lr}
    890e:	b083      	sub	sp, #12
    8910:	f7f8 f8cc 	bl	aac <Sys_GetCoreID>
    8914:	4603      	mov	r3, r0
    8916:	9301      	str	r3, [sp, #4]
    8918:	4a10      	ldr	r2, [pc, #64]	; (895c <SchM_Enter_Mcu_MCU_EXCLUSIVE_AREA_00+0x50>)
    891a:	9b01      	ldr	r3, [sp, #4]
    891c:	f852 3023 	ldr.w	r3, [r2, r3, lsl #2]
    8920:	2b00      	cmp	r3, #0
    8922:	d10d      	bne.n	8940 <SchM_Enter_Mcu_MCU_EXCLUSIVE_AREA_00+0x34>
    8924:	f7f7 ffe0 	bl	8e8 <Mcu_schm_read_msr>
    8928:	9000      	str	r0, [sp, #0]
    892a:	9b00      	ldr	r3, [sp, #0]
    892c:	f003 0301 	and.w	r3, r3, #1
    8930:	2b00      	cmp	r3, #0
    8932:	d100      	bne.n	8936 <SchM_Enter_Mcu_MCU_EXCLUSIVE_AREA_00+0x2a>
    8934:	b672      	cpsid	i
    8936:	490a      	ldr	r1, [pc, #40]	; (8960 <SchM_Enter_Mcu_MCU_EXCLUSIVE_AREA_00+0x54>)
    8938:	9b01      	ldr	r3, [sp, #4]
    893a:	9a00      	ldr	r2, [sp, #0]
    893c:	f841 2023 	str.w	r2, [r1, r3, lsl #2]
    8940:	4a06      	ldr	r2, [pc, #24]	; (895c <SchM_Enter_Mcu_MCU_EXCLUSIVE_AREA_00+0x50>)
    8942:	9b01      	ldr	r3, [sp, #4]
    8944:	f852 3023 	ldr.w	r3, [r2, r3, lsl #2]
    8948:	1c5a      	adds	r2, r3, #1
    894a:	4904      	ldr	r1, [pc, #16]	; (895c <SchM_Enter_Mcu_MCU_EXCLUSIVE_AREA_00+0x50>)
    894c:	9b01      	ldr	r3, [sp, #4]
    894e:	f841 2023 	str.w	r2, [r1, r3, lsl #2]
    8952:	bf00      	nop
    8954:	b003      	add	sp, #12
    8956:	f85d fb04 	ldr.w	pc, [sp], #4
    895a:	bf00      	nop
    895c:	1fff90e8 	.word	0x1fff90e8
    8960:	1fff90e4 	.word	0x1fff90e4

00008964 <SchM_Exit_Mcu_MCU_EXCLUSIVE_AREA_00>:
    8964:	b500      	push	{lr}
    8966:	b083      	sub	sp, #12
    8968:	f7f8 f8a0 	bl	aac <Sys_GetCoreID>
    896c:	4603      	mov	r3, r0
    896e:	9301      	str	r3, [sp, #4]
    8970:	4a0d      	ldr	r2, [pc, #52]	; (89a8 <SchM_Exit_Mcu_MCU_EXCLUSIVE_AREA_00+0x44>)
    8972:	9b01      	ldr	r3, [sp, #4]
    8974:	f852 3023 	ldr.w	r3, [r2, r3, lsl #2]
    8978:	1e5a      	subs	r2, r3, #1
    897a:	490b      	ldr	r1, [pc, #44]	; (89a8 <SchM_Exit_Mcu_MCU_EXCLUSIVE_AREA_00+0x44>)
    897c:	9b01      	ldr	r3, [sp, #4]
    897e:	f841 2023 	str.w	r2, [r1, r3, lsl #2]
    8982:	4a0a      	ldr	r2, [pc, #40]	; (89ac <SchM_Exit_Mcu_MCU_EXCLUSIVE_AREA_00+0x48>)
    8984:	9b01      	ldr	r3, [sp, #4]
    8986:	f852 3023 	ldr.w	r3, [r2, r3, lsl #2]
    898a:	f003 0301 	and.w	r3, r3, #1
    898e:	2b00      	cmp	r3, #0
    8990:	d106      	bne.n	89a0 <SchM_Exit_Mcu_MCU_EXCLUSIVE_AREA_00+0x3c>
    8992:	4a05      	ldr	r2, [pc, #20]	; (89a8 <SchM_Exit_Mcu_MCU_EXCLUSIVE_AREA_00+0x44>)
    8994:	9b01      	ldr	r3, [sp, #4]
    8996:	f852 3023 	ldr.w	r3, [r2, r3, lsl #2]
    899a:	2b00      	cmp	r3, #0
    899c:	d100      	bne.n	89a0 <SchM_Exit_Mcu_MCU_EXCLUSIVE_AREA_00+0x3c>
    899e:	b662      	cpsie	i
    89a0:	bf00      	nop
    89a2:	b003      	add	sp, #12
    89a4:	f85d fb04 	ldr.w	pc, [sp], #4
    89a8:	1fff90e8 	.word	0x1fff90e8
    89ac:	1fff90e4 	.word	0x1fff90e4

000089b0 <SchM_Enter_Mcu_MCU_EXCLUSIVE_AREA_01>:
    89b0:	b500      	push	{lr}
    89b2:	b083      	sub	sp, #12
    89b4:	f7f8 f87a 	bl	aac <Sys_GetCoreID>
    89b8:	4603      	mov	r3, r0
    89ba:	9301      	str	r3, [sp, #4]
    89bc:	4a10      	ldr	r2, [pc, #64]	; (8a00 <SchM_Enter_Mcu_MCU_EXCLUSIVE_AREA_01+0x50>)
    89be:	9b01      	ldr	r3, [sp, #4]
    89c0:	f852 3023 	ldr.w	r3, [r2, r3, lsl #2]
    89c4:	2b00      	cmp	r3, #0
    89c6:	d10d      	bne.n	89e4 <SchM_Enter_Mcu_MCU_EXCLUSIVE_AREA_01+0x34>
    89c8:	f7f7 ff8e 	bl	8e8 <Mcu_schm_read_msr>
    89cc:	9000      	str	r0, [sp, #0]
    89ce:	9b00      	ldr	r3, [sp, #0]
    89d0:	f003 0301 	and.w	r3, r3, #1
    89d4:	2b00      	cmp	r3, #0
    89d6:	d100      	bne.n	89da <SchM_Enter_Mcu_MCU_EXCLUSIVE_AREA_01+0x2a>
    89d8:	b672      	cpsid	i
    89da:	490a      	ldr	r1, [pc, #40]	; (8a04 <SchM_Enter_Mcu_MCU_EXCLUSIVE_AREA_01+0x54>)
    89dc:	9b01      	ldr	r3, [sp, #4]
    89de:	9a00      	ldr	r2, [sp, #0]
    89e0:	f841 2023 	str.w	r2, [r1, r3, lsl #2]
    89e4:	4a06      	ldr	r2, [pc, #24]	; (8a00 <SchM_Enter_Mcu_MCU_EXCLUSIVE_AREA_01+0x50>)
    89e6:	9b01      	ldr	r3, [sp, #4]
    89e8:	f852 3023 	ldr.w	r3, [r2, r3, lsl #2]
    89ec:	1c5a      	adds	r2, r3, #1
    89ee:	4904      	ldr	r1, [pc, #16]	; (8a00 <SchM_Enter_Mcu_MCU_EXCLUSIVE_AREA_01+0x50>)
    89f0:	9b01      	ldr	r3, [sp, #4]
    89f2:	f841 2023 	str.w	r2, [r1, r3, lsl #2]
    89f6:	bf00      	nop
    89f8:	b003      	add	sp, #12
    89fa:	f85d fb04 	ldr.w	pc, [sp], #4
    89fe:	bf00      	nop
    8a00:	1fff90f0 	.word	0x1fff90f0
    8a04:	1fff90ec 	.word	0x1fff90ec

00008a08 <SchM_Exit_Mcu_MCU_EXCLUSIVE_AREA_01>:
    8a08:	b500      	push	{lr}
    8a0a:	b083      	sub	sp, #12
    8a0c:	f7f8 f84e 	bl	aac <Sys_GetCoreID>
    8a10:	4603      	mov	r3, r0
    8a12:	9301      	str	r3, [sp, #4]
    8a14:	4a0d      	ldr	r2, [pc, #52]	; (8a4c <SchM_Exit_Mcu_MCU_EXCLUSIVE_AREA_01+0x44>)
    8a16:	9b01      	ldr	r3, [sp, #4]
    8a18:	f852 3023 	ldr.w	r3, [r2, r3, lsl #2]
    8a1c:	1e5a      	subs	r2, r3, #1
    8a1e:	490b      	ldr	r1, [pc, #44]	; (8a4c <SchM_Exit_Mcu_MCU_EXCLUSIVE_AREA_01+0x44>)
    8a20:	9b01      	ldr	r3, [sp, #4]
    8a22:	f841 2023 	str.w	r2, [r1, r3, lsl #2]
    8a26:	4a0a      	ldr	r2, [pc, #40]	; (8a50 <SchM_Exit_Mcu_MCU_EXCLUSIVE_AREA_01+0x48>)
    8a28:	9b01      	ldr	r3, [sp, #4]
    8a2a:	f852 3023 	ldr.w	r3, [r2, r3, lsl #2]
    8a2e:	f003 0301 	and.w	r3, r3, #1
    8a32:	2b00      	cmp	r3, #0
    8a34:	d106      	bne.n	8a44 <SchM_Exit_Mcu_MCU_EXCLUSIVE_AREA_01+0x3c>
    8a36:	4a05      	ldr	r2, [pc, #20]	; (8a4c <SchM_Exit_Mcu_MCU_EXCLUSIVE_AREA_01+0x44>)
    8a38:	9b01      	ldr	r3, [sp, #4]
    8a3a:	f852 3023 	ldr.w	r3, [r2, r3, lsl #2]
    8a3e:	2b00      	cmp	r3, #0
    8a40:	d100      	bne.n	8a44 <SchM_Exit_Mcu_MCU_EXCLUSIVE_AREA_01+0x3c>
    8a42:	b662      	cpsie	i
    8a44:	bf00      	nop
    8a46:	b003      	add	sp, #12
    8a48:	f85d fb04 	ldr.w	pc, [sp], #4
    8a4c:	1fff90f0 	.word	0x1fff90f0
    8a50:	1fff90ec 	.word	0x1fff90ec

00008a54 <SchM_Enter_Mcu_MCU_EXCLUSIVE_AREA_02>:
    8a54:	b500      	push	{lr}
    8a56:	b083      	sub	sp, #12
    8a58:	f7f8 f828 	bl	aac <Sys_GetCoreID>
    8a5c:	4603      	mov	r3, r0
    8a5e:	9301      	str	r3, [sp, #4]
    8a60:	4a10      	ldr	r2, [pc, #64]	; (8aa4 <SchM_Enter_Mcu_MCU_EXCLUSIVE_AREA_02+0x50>)
    8a62:	9b01      	ldr	r3, [sp, #4]
    8a64:	f852 3023 	ldr.w	r3, [r2, r3, lsl #2]
    8a68:	2b00      	cmp	r3, #0
    8a6a:	d10d      	bne.n	8a88 <SchM_Enter_Mcu_MCU_EXCLUSIVE_AREA_02+0x34>
    8a6c:	f7f7 ff3c 	bl	8e8 <Mcu_schm_read_msr>
    8a70:	9000      	str	r0, [sp, #0]
    8a72:	9b00      	ldr	r3, [sp, #0]
    8a74:	f003 0301 	and.w	r3, r3, #1
    8a78:	2b00      	cmp	r3, #0
    8a7a:	d100      	bne.n	8a7e <SchM_Enter_Mcu_MCU_EXCLUSIVE_AREA_02+0x2a>
    8a7c:	b672      	cpsid	i
    8a7e:	490a      	ldr	r1, [pc, #40]	; (8aa8 <SchM_Enter_Mcu_MCU_EXCLUSIVE_AREA_02+0x54>)
    8a80:	9b01      	ldr	r3, [sp, #4]
    8a82:	9a00      	ldr	r2, [sp, #0]
    8a84:	f841 2023 	str.w	r2, [r1, r3, lsl #2]
    8a88:	4a06      	ldr	r2, [pc, #24]	; (8aa4 <SchM_Enter_Mcu_MCU_EXCLUSIVE_AREA_02+0x50>)
    8a8a:	9b01      	ldr	r3, [sp, #4]
    8a8c:	f852 3023 	ldr.w	r3, [r2, r3, lsl #2]
    8a90:	1c5a      	adds	r2, r3, #1
    8a92:	4904      	ldr	r1, [pc, #16]	; (8aa4 <SchM_Enter_Mcu_MCU_EXCLUSIVE_AREA_02+0x50>)
    8a94:	9b01      	ldr	r3, [sp, #4]
    8a96:	f841 2023 	str.w	r2, [r1, r3, lsl #2]
    8a9a:	bf00      	nop
    8a9c:	b003      	add	sp, #12
    8a9e:	f85d fb04 	ldr.w	pc, [sp], #4
    8aa2:	bf00      	nop
    8aa4:	1fff90f8 	.word	0x1fff90f8
    8aa8:	1fff90f4 	.word	0x1fff90f4

00008aac <SchM_Exit_Mcu_MCU_EXCLUSIVE_AREA_02>:
    8aac:	b500      	push	{lr}
    8aae:	b083      	sub	sp, #12
    8ab0:	f7f7 fffc 	bl	aac <Sys_GetCoreID>
    8ab4:	4603      	mov	r3, r0
    8ab6:	9301      	str	r3, [sp, #4]
    8ab8:	4a0d      	ldr	r2, [pc, #52]	; (8af0 <SchM_Exit_Mcu_MCU_EXCLUSIVE_AREA_02+0x44>)
    8aba:	9b01      	ldr	r3, [sp, #4]
    8abc:	f852 3023 	ldr.w	r3, [r2, r3, lsl #2]
    8ac0:	1e5a      	subs	r2, r3, #1
    8ac2:	490b      	ldr	r1, [pc, #44]	; (8af0 <SchM_Exit_Mcu_MCU_EXCLUSIVE_AREA_02+0x44>)
    8ac4:	9b01      	ldr	r3, [sp, #4]
    8ac6:	f841 2023 	str.w	r2, [r1, r3, lsl #2]
    8aca:	4a0a      	ldr	r2, [pc, #40]	; (8af4 <SchM_Exit_Mcu_MCU_EXCLUSIVE_AREA_02+0x48>)
    8acc:	9b01      	ldr	r3, [sp, #4]
    8ace:	f852 3023 	ldr.w	r3, [r2, r3, lsl #2]
    8ad2:	f003 0301 	and.w	r3, r3, #1
    8ad6:	2b00      	cmp	r3, #0
    8ad8:	d106      	bne.n	8ae8 <SchM_Exit_Mcu_MCU_EXCLUSIVE_AREA_02+0x3c>
    8ada:	4a05      	ldr	r2, [pc, #20]	; (8af0 <SchM_Exit_Mcu_MCU_EXCLUSIVE_AREA_02+0x44>)
    8adc:	9b01      	ldr	r3, [sp, #4]
    8ade:	f852 3023 	ldr.w	r3, [r2, r3, lsl #2]
    8ae2:	2b00      	cmp	r3, #0
    8ae4:	d100      	bne.n	8ae8 <SchM_Exit_Mcu_MCU_EXCLUSIVE_AREA_02+0x3c>
    8ae6:	b662      	cpsie	i
    8ae8:	bf00      	nop
    8aea:	b003      	add	sp, #12
    8aec:	f85d fb04 	ldr.w	pc, [sp], #4
    8af0:	1fff90f8 	.word	0x1fff90f8
    8af4:	1fff90f4 	.word	0x1fff90f4

00008af8 <SchM_Enter_Port_PORT_EXCLUSIVE_AREA_00>:
    8af8:	b500      	push	{lr}
    8afa:	b083      	sub	sp, #12
    8afc:	f7f7 ffd6 	bl	aac <Sys_GetCoreID>
    8b00:	4603      	mov	r3, r0
    8b02:	9301      	str	r3, [sp, #4]
    8b04:	4a10      	ldr	r2, [pc, #64]	; (8b48 <SchM_Enter_Port_PORT_EXCLUSIVE_AREA_00+0x50>)
    8b06:	9b01      	ldr	r3, [sp, #4]
    8b08:	f852 3023 	ldr.w	r3, [r2, r3, lsl #2]
    8b0c:	2b00      	cmp	r3, #0
    8b0e:	d10d      	bne.n	8b2c <SchM_Enter_Port_PORT_EXCLUSIVE_AREA_00+0x34>
    8b10:	f7f7 fef3 	bl	8fa <Port_schm_read_msr>
    8b14:	9000      	str	r0, [sp, #0]
    8b16:	9b00      	ldr	r3, [sp, #0]
    8b18:	f003 0301 	and.w	r3, r3, #1
    8b1c:	2b00      	cmp	r3, #0
    8b1e:	d100      	bne.n	8b22 <SchM_Enter_Port_PORT_EXCLUSIVE_AREA_00+0x2a>
    8b20:	b672      	cpsid	i
    8b22:	490a      	ldr	r1, [pc, #40]	; (8b4c <SchM_Enter_Port_PORT_EXCLUSIVE_AREA_00+0x54>)
    8b24:	9b01      	ldr	r3, [sp, #4]
    8b26:	9a00      	ldr	r2, [sp, #0]
    8b28:	f841 2023 	str.w	r2, [r1, r3, lsl #2]
    8b2c:	4a06      	ldr	r2, [pc, #24]	; (8b48 <SchM_Enter_Port_PORT_EXCLUSIVE_AREA_00+0x50>)
    8b2e:	9b01      	ldr	r3, [sp, #4]
    8b30:	f852 3023 	ldr.w	r3, [r2, r3, lsl #2]
    8b34:	1c5a      	adds	r2, r3, #1
    8b36:	4904      	ldr	r1, [pc, #16]	; (8b48 <SchM_Enter_Port_PORT_EXCLUSIVE_AREA_00+0x50>)
    8b38:	9b01      	ldr	r3, [sp, #4]
    8b3a:	f841 2023 	str.w	r2, [r1, r3, lsl #2]
    8b3e:	bf00      	nop
    8b40:	b003      	add	sp, #12
    8b42:	f85d fb04 	ldr.w	pc, [sp], #4
    8b46:	bf00      	nop
    8b48:	1fff9100 	.word	0x1fff9100
    8b4c:	1fff90fc 	.word	0x1fff90fc

00008b50 <SchM_Exit_Port_PORT_EXCLUSIVE_AREA_00>:
    8b50:	b500      	push	{lr}
    8b52:	b083      	sub	sp, #12
    8b54:	f7f7 ffaa 	bl	aac <Sys_GetCoreID>
    8b58:	4603      	mov	r3, r0
    8b5a:	9301      	str	r3, [sp, #4]
    8b5c:	4a0d      	ldr	r2, [pc, #52]	; (8b94 <SchM_Exit_Port_PORT_EXCLUSIVE_AREA_00+0x44>)
    8b5e:	9b01      	ldr	r3, [sp, #4]
    8b60:	f852 3023 	ldr.w	r3, [r2, r3, lsl #2]
    8b64:	1e5a      	subs	r2, r3, #1
    8b66:	490b      	ldr	r1, [pc, #44]	; (8b94 <SchM_Exit_Port_PORT_EXCLUSIVE_AREA_00+0x44>)
    8b68:	9b01      	ldr	r3, [sp, #4]
    8b6a:	f841 2023 	str.w	r2, [r1, r3, lsl #2]
    8b6e:	4a0a      	ldr	r2, [pc, #40]	; (8b98 <SchM_Exit_Port_PORT_EXCLUSIVE_AREA_00+0x48>)
    8b70:	9b01      	ldr	r3, [sp, #4]
    8b72:	f852 3023 	ldr.w	r3, [r2, r3, lsl #2]
    8b76:	f003 0301 	and.w	r3, r3, #1
    8b7a:	2b00      	cmp	r3, #0
    8b7c:	d106      	bne.n	8b8c <SchM_Exit_Port_PORT_EXCLUSIVE_AREA_00+0x3c>
    8b7e:	4a05      	ldr	r2, [pc, #20]	; (8b94 <SchM_Exit_Port_PORT_EXCLUSIVE_AREA_00+0x44>)
    8b80:	9b01      	ldr	r3, [sp, #4]
    8b82:	f852 3023 	ldr.w	r3, [r2, r3, lsl #2]
    8b86:	2b00      	cmp	r3, #0
    8b88:	d100      	bne.n	8b8c <SchM_Exit_Port_PORT_EXCLUSIVE_AREA_00+0x3c>
    8b8a:	b662      	cpsie	i
    8b8c:	bf00      	nop
    8b8e:	b003      	add	sp, #12
    8b90:	f85d fb04 	ldr.w	pc, [sp], #4
    8b94:	1fff9100 	.word	0x1fff9100
    8b98:	1fff90fc 	.word	0x1fff90fc

00008b9c <SchM_Enter_Port_PORT_EXCLUSIVE_AREA_01>:
    8b9c:	b500      	push	{lr}
    8b9e:	b083      	sub	sp, #12
    8ba0:	f7f7 ff84 	bl	aac <Sys_GetCoreID>
    8ba4:	4603      	mov	r3, r0
    8ba6:	9301      	str	r3, [sp, #4]
    8ba8:	4a10      	ldr	r2, [pc, #64]	; (8bec <SchM_Enter_Port_PORT_EXCLUSIVE_AREA_01+0x50>)
    8baa:	9b01      	ldr	r3, [sp, #4]
    8bac:	f852 3023 	ldr.w	r3, [r2, r3, lsl #2]
    8bb0:	2b00      	cmp	r3, #0
    8bb2:	d10d      	bne.n	8bd0 <SchM_Enter_Port_PORT_EXCLUSIVE_AREA_01+0x34>
    8bb4:	f7f7 fea1 	bl	8fa <Port_schm_read_msr>
    8bb8:	9000      	str	r0, [sp, #0]
    8bba:	9b00      	ldr	r3, [sp, #0]
    8bbc:	f003 0301 	and.w	r3, r3, #1
    8bc0:	2b00      	cmp	r3, #0
    8bc2:	d100      	bne.n	8bc6 <SchM_Enter_Port_PORT_EXCLUSIVE_AREA_01+0x2a>
    8bc4:	b672      	cpsid	i
    8bc6:	490a      	ldr	r1, [pc, #40]	; (8bf0 <SchM_Enter_Port_PORT_EXCLUSIVE_AREA_01+0x54>)
    8bc8:	9b01      	ldr	r3, [sp, #4]
    8bca:	9a00      	ldr	r2, [sp, #0]
    8bcc:	f841 2023 	str.w	r2, [r1, r3, lsl #2]
    8bd0:	4a06      	ldr	r2, [pc, #24]	; (8bec <SchM_Enter_Port_PORT_EXCLUSIVE_AREA_01+0x50>)
    8bd2:	9b01      	ldr	r3, [sp, #4]
    8bd4:	f852 3023 	ldr.w	r3, [r2, r3, lsl #2]
    8bd8:	1c5a      	adds	r2, r3, #1
    8bda:	4904      	ldr	r1, [pc, #16]	; (8bec <SchM_Enter_Port_PORT_EXCLUSIVE_AREA_01+0x50>)
    8bdc:	9b01      	ldr	r3, [sp, #4]
    8bde:	f841 2023 	str.w	r2, [r1, r3, lsl #2]
    8be2:	bf00      	nop
    8be4:	b003      	add	sp, #12
    8be6:	f85d fb04 	ldr.w	pc, [sp], #4
    8bea:	bf00      	nop
    8bec:	1fff9108 	.word	0x1fff9108
    8bf0:	1fff9104 	.word	0x1fff9104

00008bf4 <SchM_Exit_Port_PORT_EXCLUSIVE_AREA_01>:
    8bf4:	b500      	push	{lr}
    8bf6:	b083      	sub	sp, #12
    8bf8:	f7f7 ff58 	bl	aac <Sys_GetCoreID>
    8bfc:	4603      	mov	r3, r0
    8bfe:	9301      	str	r3, [sp, #4]
    8c00:	4a0d      	ldr	r2, [pc, #52]	; (8c38 <SchM_Exit_Port_PORT_EXCLUSIVE_AREA_01+0x44>)
    8c02:	9b01      	ldr	r3, [sp, #4]
    8c04:	f852 3023 	ldr.w	r3, [r2, r3, lsl #2]
    8c08:	1e5a      	subs	r2, r3, #1
    8c0a:	490b      	ldr	r1, [pc, #44]	; (8c38 <SchM_Exit_Port_PORT_EXCLUSIVE_AREA_01+0x44>)
    8c0c:	9b01      	ldr	r3, [sp, #4]
    8c0e:	f841 2023 	str.w	r2, [r1, r3, lsl #2]
    8c12:	4a0a      	ldr	r2, [pc, #40]	; (8c3c <SchM_Exit_Port_PORT_EXCLUSIVE_AREA_01+0x48>)
    8c14:	9b01      	ldr	r3, [sp, #4]
    8c16:	f852 3023 	ldr.w	r3, [r2, r3, lsl #2]
    8c1a:	f003 0301 	and.w	r3, r3, #1
    8c1e:	2b00      	cmp	r3, #0
    8c20:	d106      	bne.n	8c30 <SchM_Exit_Port_PORT_EXCLUSIVE_AREA_01+0x3c>
    8c22:	4a05      	ldr	r2, [pc, #20]	; (8c38 <SchM_Exit_Port_PORT_EXCLUSIVE_AREA_01+0x44>)
    8c24:	9b01      	ldr	r3, [sp, #4]
    8c26:	f852 3023 	ldr.w	r3, [r2, r3, lsl #2]
    8c2a:	2b00      	cmp	r3, #0
    8c2c:	d100      	bne.n	8c30 <SchM_Exit_Port_PORT_EXCLUSIVE_AREA_01+0x3c>
    8c2e:	b662      	cpsie	i
    8c30:	bf00      	nop
    8c32:	b003      	add	sp, #12
    8c34:	f85d fb04 	ldr.w	pc, [sp], #4
    8c38:	1fff9108 	.word	0x1fff9108
    8c3c:	1fff9104 	.word	0x1fff9104

00008c40 <SchM_Enter_Port_PORT_EXCLUSIVE_AREA_02>:
    8c40:	b500      	push	{lr}
    8c42:	b083      	sub	sp, #12
    8c44:	f7f7 ff32 	bl	aac <Sys_GetCoreID>
    8c48:	4603      	mov	r3, r0
    8c4a:	9301      	str	r3, [sp, #4]
    8c4c:	4a10      	ldr	r2, [pc, #64]	; (8c90 <SchM_Enter_Port_PORT_EXCLUSIVE_AREA_02+0x50>)
    8c4e:	9b01      	ldr	r3, [sp, #4]
    8c50:	f852 3023 	ldr.w	r3, [r2, r3, lsl #2]
    8c54:	2b00      	cmp	r3, #0
    8c56:	d10d      	bne.n	8c74 <SchM_Enter_Port_PORT_EXCLUSIVE_AREA_02+0x34>
    8c58:	f7f7 fe4f 	bl	8fa <Port_schm_read_msr>
    8c5c:	9000      	str	r0, [sp, #0]
    8c5e:	9b00      	ldr	r3, [sp, #0]
    8c60:	f003 0301 	and.w	r3, r3, #1
    8c64:	2b00      	cmp	r3, #0
    8c66:	d100      	bne.n	8c6a <SchM_Enter_Port_PORT_EXCLUSIVE_AREA_02+0x2a>
    8c68:	b672      	cpsid	i
    8c6a:	490a      	ldr	r1, [pc, #40]	; (8c94 <SchM_Enter_Port_PORT_EXCLUSIVE_AREA_02+0x54>)
    8c6c:	9b01      	ldr	r3, [sp, #4]
    8c6e:	9a00      	ldr	r2, [sp, #0]
    8c70:	f841 2023 	str.w	r2, [r1, r3, lsl #2]
    8c74:	4a06      	ldr	r2, [pc, #24]	; (8c90 <SchM_Enter_Port_PORT_EXCLUSIVE_AREA_02+0x50>)
    8c76:	9b01      	ldr	r3, [sp, #4]
    8c78:	f852 3023 	ldr.w	r3, [r2, r3, lsl #2]
    8c7c:	1c5a      	adds	r2, r3, #1
    8c7e:	4904      	ldr	r1, [pc, #16]	; (8c90 <SchM_Enter_Port_PORT_EXCLUSIVE_AREA_02+0x50>)
    8c80:	9b01      	ldr	r3, [sp, #4]
    8c82:	f841 2023 	str.w	r2, [r1, r3, lsl #2]
    8c86:	bf00      	nop
    8c88:	b003      	add	sp, #12
    8c8a:	f85d fb04 	ldr.w	pc, [sp], #4
    8c8e:	bf00      	nop
    8c90:	1fff9110 	.word	0x1fff9110
    8c94:	1fff910c 	.word	0x1fff910c

00008c98 <SchM_Exit_Port_PORT_EXCLUSIVE_AREA_02>:
    8c98:	b500      	push	{lr}
    8c9a:	b083      	sub	sp, #12
    8c9c:	f7f7 ff06 	bl	aac <Sys_GetCoreID>
    8ca0:	4603      	mov	r3, r0
    8ca2:	9301      	str	r3, [sp, #4]
    8ca4:	4a0d      	ldr	r2, [pc, #52]	; (8cdc <SchM_Exit_Port_PORT_EXCLUSIVE_AREA_02+0x44>)
    8ca6:	9b01      	ldr	r3, [sp, #4]
    8ca8:	f852 3023 	ldr.w	r3, [r2, r3, lsl #2]
    8cac:	1e5a      	subs	r2, r3, #1
    8cae:	490b      	ldr	r1, [pc, #44]	; (8cdc <SchM_Exit_Port_PORT_EXCLUSIVE_AREA_02+0x44>)
    8cb0:	9b01      	ldr	r3, [sp, #4]
    8cb2:	f841 2023 	str.w	r2, [r1, r3, lsl #2]
    8cb6:	4a0a      	ldr	r2, [pc, #40]	; (8ce0 <SchM_Exit_Port_PORT_EXCLUSIVE_AREA_02+0x48>)
    8cb8:	9b01      	ldr	r3, [sp, #4]
    8cba:	f852 3023 	ldr.w	r3, [r2, r3, lsl #2]
    8cbe:	f003 0301 	and.w	r3, r3, #1
    8cc2:	2b00      	cmp	r3, #0
    8cc4:	d106      	bne.n	8cd4 <SchM_Exit_Port_PORT_EXCLUSIVE_AREA_02+0x3c>
    8cc6:	4a05      	ldr	r2, [pc, #20]	; (8cdc <SchM_Exit_Port_PORT_EXCLUSIVE_AREA_02+0x44>)
    8cc8:	9b01      	ldr	r3, [sp, #4]
    8cca:	f852 3023 	ldr.w	r3, [r2, r3, lsl #2]
    8cce:	2b00      	cmp	r3, #0
    8cd0:	d100      	bne.n	8cd4 <SchM_Exit_Port_PORT_EXCLUSIVE_AREA_02+0x3c>
    8cd2:	b662      	cpsie	i
    8cd4:	bf00      	nop
    8cd6:	b003      	add	sp, #12
    8cd8:	f85d fb04 	ldr.w	pc, [sp], #4
    8cdc:	1fff9110 	.word	0x1fff9110
    8ce0:	1fff910c 	.word	0x1fff910c

00008ce4 <SchM_Enter_Port_PORT_EXCLUSIVE_AREA_03>:
    8ce4:	b500      	push	{lr}
    8ce6:	b083      	sub	sp, #12
    8ce8:	f7f7 fee0 	bl	aac <Sys_GetCoreID>
    8cec:	4603      	mov	r3, r0
    8cee:	9301      	str	r3, [sp, #4]
    8cf0:	4a10      	ldr	r2, [pc, #64]	; (8d34 <SchM_Enter_Port_PORT_EXCLUSIVE_AREA_03+0x50>)
    8cf2:	9b01      	ldr	r3, [sp, #4]
    8cf4:	f852 3023 	ldr.w	r3, [r2, r3, lsl #2]
    8cf8:	2b00      	cmp	r3, #0
    8cfa:	d10d      	bne.n	8d18 <SchM_Enter_Port_PORT_EXCLUSIVE_AREA_03+0x34>
    8cfc:	f7f7 fdfd 	bl	8fa <Port_schm_read_msr>
    8d00:	9000      	str	r0, [sp, #0]
    8d02:	9b00      	ldr	r3, [sp, #0]
    8d04:	f003 0301 	and.w	r3, r3, #1
    8d08:	2b00      	cmp	r3, #0
    8d0a:	d100      	bne.n	8d0e <SchM_Enter_Port_PORT_EXCLUSIVE_AREA_03+0x2a>
    8d0c:	b672      	cpsid	i
    8d0e:	490a      	ldr	r1, [pc, #40]	; (8d38 <SchM_Enter_Port_PORT_EXCLUSIVE_AREA_03+0x54>)
    8d10:	9b01      	ldr	r3, [sp, #4]
    8d12:	9a00      	ldr	r2, [sp, #0]
    8d14:	f841 2023 	str.w	r2, [r1, r3, lsl #2]
    8d18:	4a06      	ldr	r2, [pc, #24]	; (8d34 <SchM_Enter_Port_PORT_EXCLUSIVE_AREA_03+0x50>)
    8d1a:	9b01      	ldr	r3, [sp, #4]
    8d1c:	f852 3023 	ldr.w	r3, [r2, r3, lsl #2]
    8d20:	1c5a      	adds	r2, r3, #1
    8d22:	4904      	ldr	r1, [pc, #16]	; (8d34 <SchM_Enter_Port_PORT_EXCLUSIVE_AREA_03+0x50>)
    8d24:	9b01      	ldr	r3, [sp, #4]
    8d26:	f841 2023 	str.w	r2, [r1, r3, lsl #2]
    8d2a:	bf00      	nop
    8d2c:	b003      	add	sp, #12
    8d2e:	f85d fb04 	ldr.w	pc, [sp], #4
    8d32:	bf00      	nop
    8d34:	1fff9118 	.word	0x1fff9118
    8d38:	1fff9114 	.word	0x1fff9114

00008d3c <SchM_Exit_Port_PORT_EXCLUSIVE_AREA_03>:
    8d3c:	b500      	push	{lr}
    8d3e:	b083      	sub	sp, #12
    8d40:	f7f7 feb4 	bl	aac <Sys_GetCoreID>
    8d44:	4603      	mov	r3, r0
    8d46:	9301      	str	r3, [sp, #4]
    8d48:	4a0d      	ldr	r2, [pc, #52]	; (8d80 <SchM_Exit_Port_PORT_EXCLUSIVE_AREA_03+0x44>)
    8d4a:	9b01      	ldr	r3, [sp, #4]
    8d4c:	f852 3023 	ldr.w	r3, [r2, r3, lsl #2]
    8d50:	1e5a      	subs	r2, r3, #1
    8d52:	490b      	ldr	r1, [pc, #44]	; (8d80 <SchM_Exit_Port_PORT_EXCLUSIVE_AREA_03+0x44>)
    8d54:	9b01      	ldr	r3, [sp, #4]
    8d56:	f841 2023 	str.w	r2, [r1, r3, lsl #2]
    8d5a:	4a0a      	ldr	r2, [pc, #40]	; (8d84 <SchM_Exit_Port_PORT_EXCLUSIVE_AREA_03+0x48>)
    8d5c:	9b01      	ldr	r3, [sp, #4]
    8d5e:	f852 3023 	ldr.w	r3, [r2, r3, lsl #2]
    8d62:	f003 0301 	and.w	r3, r3, #1
    8d66:	2b00      	cmp	r3, #0
    8d68:	d106      	bne.n	8d78 <SchM_Exit_Port_PORT_EXCLUSIVE_AREA_03+0x3c>
    8d6a:	4a05      	ldr	r2, [pc, #20]	; (8d80 <SchM_Exit_Port_PORT_EXCLUSIVE_AREA_03+0x44>)
    8d6c:	9b01      	ldr	r3, [sp, #4]
    8d6e:	f852 3023 	ldr.w	r3, [r2, r3, lsl #2]
    8d72:	2b00      	cmp	r3, #0
    8d74:	d100      	bne.n	8d78 <SchM_Exit_Port_PORT_EXCLUSIVE_AREA_03+0x3c>
    8d76:	b662      	cpsie	i
    8d78:	bf00      	nop
    8d7a:	b003      	add	sp, #12
    8d7c:	f85d fb04 	ldr.w	pc, [sp], #4
    8d80:	1fff9118 	.word	0x1fff9118
    8d84:	1fff9114 	.word	0x1fff9114

00008d88 <SchM_Enter_Port_PORT_EXCLUSIVE_AREA_04>:
    8d88:	b500      	push	{lr}
    8d8a:	b083      	sub	sp, #12
    8d8c:	f7f7 fe8e 	bl	aac <Sys_GetCoreID>
    8d90:	4603      	mov	r3, r0
    8d92:	9301      	str	r3, [sp, #4]
    8d94:	4a10      	ldr	r2, [pc, #64]	; (8dd8 <SchM_Enter_Port_PORT_EXCLUSIVE_AREA_04+0x50>)
    8d96:	9b01      	ldr	r3, [sp, #4]
    8d98:	f852 3023 	ldr.w	r3, [r2, r3, lsl #2]
    8d9c:	2b00      	cmp	r3, #0
    8d9e:	d10d      	bne.n	8dbc <SchM_Enter_Port_PORT_EXCLUSIVE_AREA_04+0x34>
    8da0:	f7f7 fdab 	bl	8fa <Port_schm_read_msr>
    8da4:	9000      	str	r0, [sp, #0]
    8da6:	9b00      	ldr	r3, [sp, #0]
    8da8:	f003 0301 	and.w	r3, r3, #1
    8dac:	2b00      	cmp	r3, #0
    8dae:	d100      	bne.n	8db2 <SchM_Enter_Port_PORT_EXCLUSIVE_AREA_04+0x2a>
    8db0:	b672      	cpsid	i
    8db2:	490a      	ldr	r1, [pc, #40]	; (8ddc <SchM_Enter_Port_PORT_EXCLUSIVE_AREA_04+0x54>)
    8db4:	9b01      	ldr	r3, [sp, #4]
    8db6:	9a00      	ldr	r2, [sp, #0]
    8db8:	f841 2023 	str.w	r2, [r1, r3, lsl #2]
    8dbc:	4a06      	ldr	r2, [pc, #24]	; (8dd8 <SchM_Enter_Port_PORT_EXCLUSIVE_AREA_04+0x50>)
    8dbe:	9b01      	ldr	r3, [sp, #4]
    8dc0:	f852 3023 	ldr.w	r3, [r2, r3, lsl #2]
    8dc4:	1c5a      	adds	r2, r3, #1
    8dc6:	4904      	ldr	r1, [pc, #16]	; (8dd8 <SchM_Enter_Port_PORT_EXCLUSIVE_AREA_04+0x50>)
    8dc8:	9b01      	ldr	r3, [sp, #4]
    8dca:	f841 2023 	str.w	r2, [r1, r3, lsl #2]
    8dce:	bf00      	nop
    8dd0:	b003      	add	sp, #12
    8dd2:	f85d fb04 	ldr.w	pc, [sp], #4
    8dd6:	bf00      	nop
    8dd8:	1fff9120 	.word	0x1fff9120
    8ddc:	1fff911c 	.word	0x1fff911c

00008de0 <SchM_Exit_Port_PORT_EXCLUSIVE_AREA_04>:
    8de0:	b500      	push	{lr}
    8de2:	b083      	sub	sp, #12
    8de4:	f7f7 fe62 	bl	aac <Sys_GetCoreID>
    8de8:	4603      	mov	r3, r0
    8dea:	9301      	str	r3, [sp, #4]
    8dec:	4a0d      	ldr	r2, [pc, #52]	; (8e24 <SchM_Exit_Port_PORT_EXCLUSIVE_AREA_04+0x44>)
    8dee:	9b01      	ldr	r3, [sp, #4]
    8df0:	f852 3023 	ldr.w	r3, [r2, r3, lsl #2]
    8df4:	1e5a      	subs	r2, r3, #1
    8df6:	490b      	ldr	r1, [pc, #44]	; (8e24 <SchM_Exit_Port_PORT_EXCLUSIVE_AREA_04+0x44>)
    8df8:	9b01      	ldr	r3, [sp, #4]
    8dfa:	f841 2023 	str.w	r2, [r1, r3, lsl #2]
    8dfe:	4a0a      	ldr	r2, [pc, #40]	; (8e28 <SchM_Exit_Port_PORT_EXCLUSIVE_AREA_04+0x48>)
    8e00:	9b01      	ldr	r3, [sp, #4]
    8e02:	f852 3023 	ldr.w	r3, [r2, r3, lsl #2]
    8e06:	f003 0301 	and.w	r3, r3, #1
    8e0a:	2b00      	cmp	r3, #0
    8e0c:	d106      	bne.n	8e1c <SchM_Exit_Port_PORT_EXCLUSIVE_AREA_04+0x3c>
    8e0e:	4a05      	ldr	r2, [pc, #20]	; (8e24 <SchM_Exit_Port_PORT_EXCLUSIVE_AREA_04+0x44>)
    8e10:	9b01      	ldr	r3, [sp, #4]
    8e12:	f852 3023 	ldr.w	r3, [r2, r3, lsl #2]
    8e16:	2b00      	cmp	r3, #0
    8e18:	d100      	bne.n	8e1c <SchM_Exit_Port_PORT_EXCLUSIVE_AREA_04+0x3c>
    8e1a:	b662      	cpsie	i
    8e1c:	bf00      	nop
    8e1e:	b003      	add	sp, #12
    8e20:	f85d fb04 	ldr.w	pc, [sp], #4
    8e24:	1fff9120 	.word	0x1fff9120
    8e28:	1fff911c 	.word	0x1fff911c

00008e2c <SchM_Enter_Port_PORT_EXCLUSIVE_AREA_05>:
    8e2c:	b500      	push	{lr}
    8e2e:	b083      	sub	sp, #12
    8e30:	f7f7 fe3c 	bl	aac <Sys_GetCoreID>
    8e34:	4603      	mov	r3, r0
    8e36:	9301      	str	r3, [sp, #4]
    8e38:	4a10      	ldr	r2, [pc, #64]	; (8e7c <SchM_Enter_Port_PORT_EXCLUSIVE_AREA_05+0x50>)
    8e3a:	9b01      	ldr	r3, [sp, #4]
    8e3c:	f852 3023 	ldr.w	r3, [r2, r3, lsl #2]
    8e40:	2b00      	cmp	r3, #0
    8e42:	d10d      	bne.n	8e60 <SchM_Enter_Port_PORT_EXCLUSIVE_AREA_05+0x34>
    8e44:	f7f7 fd59 	bl	8fa <Port_schm_read_msr>
    8e48:	9000      	str	r0, [sp, #0]
    8e4a:	9b00      	ldr	r3, [sp, #0]
    8e4c:	f003 0301 	and.w	r3, r3, #1
    8e50:	2b00      	cmp	r3, #0
    8e52:	d100      	bne.n	8e56 <SchM_Enter_Port_PORT_EXCLUSIVE_AREA_05+0x2a>
    8e54:	b672      	cpsid	i
    8e56:	490a      	ldr	r1, [pc, #40]	; (8e80 <SchM_Enter_Port_PORT_EXCLUSIVE_AREA_05+0x54>)
    8e58:	9b01      	ldr	r3, [sp, #4]
    8e5a:	9a00      	ldr	r2, [sp, #0]
    8e5c:	f841 2023 	str.w	r2, [r1, r3, lsl #2]
    8e60:	4a06      	ldr	r2, [pc, #24]	; (8e7c <SchM_Enter_Port_PORT_EXCLUSIVE_AREA_05+0x50>)
    8e62:	9b01      	ldr	r3, [sp, #4]
    8e64:	f852 3023 	ldr.w	r3, [r2, r3, lsl #2]
    8e68:	1c5a      	adds	r2, r3, #1
    8e6a:	4904      	ldr	r1, [pc, #16]	; (8e7c <SchM_Enter_Port_PORT_EXCLUSIVE_AREA_05+0x50>)
    8e6c:	9b01      	ldr	r3, [sp, #4]
    8e6e:	f841 2023 	str.w	r2, [r1, r3, lsl #2]
    8e72:	bf00      	nop
    8e74:	b003      	add	sp, #12
    8e76:	f85d fb04 	ldr.w	pc, [sp], #4
    8e7a:	bf00      	nop
    8e7c:	1fff9128 	.word	0x1fff9128
    8e80:	1fff9124 	.word	0x1fff9124

00008e84 <SchM_Exit_Port_PORT_EXCLUSIVE_AREA_05>:
    8e84:	b500      	push	{lr}
    8e86:	b083      	sub	sp, #12
    8e88:	f7f7 fe10 	bl	aac <Sys_GetCoreID>
    8e8c:	4603      	mov	r3, r0
    8e8e:	9301      	str	r3, [sp, #4]
    8e90:	4a0d      	ldr	r2, [pc, #52]	; (8ec8 <SchM_Exit_Port_PORT_EXCLUSIVE_AREA_05+0x44>)
    8e92:	9b01      	ldr	r3, [sp, #4]
    8e94:	f852 3023 	ldr.w	r3, [r2, r3, lsl #2]
    8e98:	1e5a      	subs	r2, r3, #1
    8e9a:	490b      	ldr	r1, [pc, #44]	; (8ec8 <SchM_Exit_Port_PORT_EXCLUSIVE_AREA_05+0x44>)
    8e9c:	9b01      	ldr	r3, [sp, #4]
    8e9e:	f841 2023 	str.w	r2, [r1, r3, lsl #2]
    8ea2:	4a0a      	ldr	r2, [pc, #40]	; (8ecc <SchM_Exit_Port_PORT_EXCLUSIVE_AREA_05+0x48>)
    8ea4:	9b01      	ldr	r3, [sp, #4]
    8ea6:	f852 3023 	ldr.w	r3, [r2, r3, lsl #2]
    8eaa:	f003 0301 	and.w	r3, r3, #1
    8eae:	2b00      	cmp	r3, #0
    8eb0:	d106      	bne.n	8ec0 <SchM_Exit_Port_PORT_EXCLUSIVE_AREA_05+0x3c>
    8eb2:	4a05      	ldr	r2, [pc, #20]	; (8ec8 <SchM_Exit_Port_PORT_EXCLUSIVE_AREA_05+0x44>)
    8eb4:	9b01      	ldr	r3, [sp, #4]
    8eb6:	f852 3023 	ldr.w	r3, [r2, r3, lsl #2]
    8eba:	2b00      	cmp	r3, #0
    8ebc:	d100      	bne.n	8ec0 <SchM_Exit_Port_PORT_EXCLUSIVE_AREA_05+0x3c>
    8ebe:	b662      	cpsie	i
    8ec0:	bf00      	nop
    8ec2:	b003      	add	sp, #12
    8ec4:	f85d fb04 	ldr.w	pc, [sp], #4
    8ec8:	1fff9128 	.word	0x1fff9128
    8ecc:	1fff9124 	.word	0x1fff9124

00008ed0 <SchM_Enter_Port_PORT_EXCLUSIVE_AREA_06>:
    8ed0:	b500      	push	{lr}
    8ed2:	b083      	sub	sp, #12
    8ed4:	f7f7 fdea 	bl	aac <Sys_GetCoreID>
    8ed8:	4603      	mov	r3, r0
    8eda:	9301      	str	r3, [sp, #4]
    8edc:	4a10      	ldr	r2, [pc, #64]	; (8f20 <SchM_Enter_Port_PORT_EXCLUSIVE_AREA_06+0x50>)
    8ede:	9b01      	ldr	r3, [sp, #4]
    8ee0:	f852 3023 	ldr.w	r3, [r2, r3, lsl #2]
    8ee4:	2b00      	cmp	r3, #0
    8ee6:	d10d      	bne.n	8f04 <SchM_Enter_Port_PORT_EXCLUSIVE_AREA_06+0x34>
    8ee8:	f7f7 fd07 	bl	8fa <Port_schm_read_msr>
    8eec:	9000      	str	r0, [sp, #0]
    8eee:	9b00      	ldr	r3, [sp, #0]
    8ef0:	f003 0301 	and.w	r3, r3, #1
    8ef4:	2b00      	cmp	r3, #0
    8ef6:	d100      	bne.n	8efa <SchM_Enter_Port_PORT_EXCLUSIVE_AREA_06+0x2a>
    8ef8:	b672      	cpsid	i
    8efa:	490a      	ldr	r1, [pc, #40]	; (8f24 <SchM_Enter_Port_PORT_EXCLUSIVE_AREA_06+0x54>)
    8efc:	9b01      	ldr	r3, [sp, #4]
    8efe:	9a00      	ldr	r2, [sp, #0]
    8f00:	f841 2023 	str.w	r2, [r1, r3, lsl #2]
    8f04:	4a06      	ldr	r2, [pc, #24]	; (8f20 <SchM_Enter_Port_PORT_EXCLUSIVE_AREA_06+0x50>)
    8f06:	9b01      	ldr	r3, [sp, #4]
    8f08:	f852 3023 	ldr.w	r3, [r2, r3, lsl #2]
    8f0c:	1c5a      	adds	r2, r3, #1
    8f0e:	4904      	ldr	r1, [pc, #16]	; (8f20 <SchM_Enter_Port_PORT_EXCLUSIVE_AREA_06+0x50>)
    8f10:	9b01      	ldr	r3, [sp, #4]
    8f12:	f841 2023 	str.w	r2, [r1, r3, lsl #2]
    8f16:	bf00      	nop
    8f18:	b003      	add	sp, #12
    8f1a:	f85d fb04 	ldr.w	pc, [sp], #4
    8f1e:	bf00      	nop
    8f20:	1fff9130 	.word	0x1fff9130
    8f24:	1fff912c 	.word	0x1fff912c

00008f28 <SchM_Exit_Port_PORT_EXCLUSIVE_AREA_06>:
    8f28:	b500      	push	{lr}
    8f2a:	b083      	sub	sp, #12
    8f2c:	f7f7 fdbe 	bl	aac <Sys_GetCoreID>
    8f30:	4603      	mov	r3, r0
    8f32:	9301      	str	r3, [sp, #4]
    8f34:	4a0d      	ldr	r2, [pc, #52]	; (8f6c <SchM_Exit_Port_PORT_EXCLUSIVE_AREA_06+0x44>)
    8f36:	9b01      	ldr	r3, [sp, #4]
    8f38:	f852 3023 	ldr.w	r3, [r2, r3, lsl #2]
    8f3c:	1e5a      	subs	r2, r3, #1
    8f3e:	490b      	ldr	r1, [pc, #44]	; (8f6c <SchM_Exit_Port_PORT_EXCLUSIVE_AREA_06+0x44>)
    8f40:	9b01      	ldr	r3, [sp, #4]
    8f42:	f841 2023 	str.w	r2, [r1, r3, lsl #2]
    8f46:	4a0a      	ldr	r2, [pc, #40]	; (8f70 <SchM_Exit_Port_PORT_EXCLUSIVE_AREA_06+0x48>)
    8f48:	9b01      	ldr	r3, [sp, #4]
    8f4a:	f852 3023 	ldr.w	r3, [r2, r3, lsl #2]
    8f4e:	f003 0301 	and.w	r3, r3, #1
    8f52:	2b00      	cmp	r3, #0
    8f54:	d106      	bne.n	8f64 <SchM_Exit_Port_PORT_EXCLUSIVE_AREA_06+0x3c>
    8f56:	4a05      	ldr	r2, [pc, #20]	; (8f6c <SchM_Exit_Port_PORT_EXCLUSIVE_AREA_06+0x44>)
    8f58:	9b01      	ldr	r3, [sp, #4]
    8f5a:	f852 3023 	ldr.w	r3, [r2, r3, lsl #2]
    8f5e:	2b00      	cmp	r3, #0
    8f60:	d100      	bne.n	8f64 <SchM_Exit_Port_PORT_EXCLUSIVE_AREA_06+0x3c>
    8f62:	b662      	cpsie	i
    8f64:	bf00      	nop
    8f66:	b003      	add	sp, #12
    8f68:	f85d fb04 	ldr.w	pc, [sp], #4
    8f6c:	1fff9130 	.word	0x1fff9130
    8f70:	1fff912c 	.word	0x1fff912c

00008f74 <SchM_Enter_Port_PORT_EXCLUSIVE_AREA_07>:
    8f74:	b500      	push	{lr}
    8f76:	b083      	sub	sp, #12
    8f78:	f7f7 fd98 	bl	aac <Sys_GetCoreID>
    8f7c:	4603      	mov	r3, r0
    8f7e:	9301      	str	r3, [sp, #4]
    8f80:	4a10      	ldr	r2, [pc, #64]	; (8fc4 <SchM_Enter_Port_PORT_EXCLUSIVE_AREA_07+0x50>)
    8f82:	9b01      	ldr	r3, [sp, #4]
    8f84:	f852 3023 	ldr.w	r3, [r2, r3, lsl #2]
    8f88:	2b00      	cmp	r3, #0
    8f8a:	d10d      	bne.n	8fa8 <SchM_Enter_Port_PORT_EXCLUSIVE_AREA_07+0x34>
    8f8c:	f7f7 fcb5 	bl	8fa <Port_schm_read_msr>
    8f90:	9000      	str	r0, [sp, #0]
    8f92:	9b00      	ldr	r3, [sp, #0]
    8f94:	f003 0301 	and.w	r3, r3, #1
    8f98:	2b00      	cmp	r3, #0
    8f9a:	d100      	bne.n	8f9e <SchM_Enter_Port_PORT_EXCLUSIVE_AREA_07+0x2a>
    8f9c:	b672      	cpsid	i
    8f9e:	490a      	ldr	r1, [pc, #40]	; (8fc8 <SchM_Enter_Port_PORT_EXCLUSIVE_AREA_07+0x54>)
    8fa0:	9b01      	ldr	r3, [sp, #4]
    8fa2:	9a00      	ldr	r2, [sp, #0]
    8fa4:	f841 2023 	str.w	r2, [r1, r3, lsl #2]
    8fa8:	4a06      	ldr	r2, [pc, #24]	; (8fc4 <SchM_Enter_Port_PORT_EXCLUSIVE_AREA_07+0x50>)
    8faa:	9b01      	ldr	r3, [sp, #4]
    8fac:	f852 3023 	ldr.w	r3, [r2, r3, lsl #2]
    8fb0:	1c5a      	adds	r2, r3, #1
    8fb2:	4904      	ldr	r1, [pc, #16]	; (8fc4 <SchM_Enter_Port_PORT_EXCLUSIVE_AREA_07+0x50>)
    8fb4:	9b01      	ldr	r3, [sp, #4]
    8fb6:	f841 2023 	str.w	r2, [r1, r3, lsl #2]
    8fba:	bf00      	nop
    8fbc:	b003      	add	sp, #12
    8fbe:	f85d fb04 	ldr.w	pc, [sp], #4
    8fc2:	bf00      	nop
    8fc4:	1fff9138 	.word	0x1fff9138
    8fc8:	1fff9134 	.word	0x1fff9134

00008fcc <SchM_Exit_Port_PORT_EXCLUSIVE_AREA_07>:
    8fcc:	b500      	push	{lr}
    8fce:	b083      	sub	sp, #12
    8fd0:	f7f7 fd6c 	bl	aac <Sys_GetCoreID>
    8fd4:	4603      	mov	r3, r0
    8fd6:	9301      	str	r3, [sp, #4]
    8fd8:	4a0d      	ldr	r2, [pc, #52]	; (9010 <SchM_Exit_Port_PORT_EXCLUSIVE_AREA_07+0x44>)
    8fda:	9b01      	ldr	r3, [sp, #4]
    8fdc:	f852 3023 	ldr.w	r3, [r2, r3, lsl #2]
    8fe0:	1e5a      	subs	r2, r3, #1
    8fe2:	490b      	ldr	r1, [pc, #44]	; (9010 <SchM_Exit_Port_PORT_EXCLUSIVE_AREA_07+0x44>)
    8fe4:	9b01      	ldr	r3, [sp, #4]
    8fe6:	f841 2023 	str.w	r2, [r1, r3, lsl #2]
    8fea:	4a0a      	ldr	r2, [pc, #40]	; (9014 <SchM_Exit_Port_PORT_EXCLUSIVE_AREA_07+0x48>)
    8fec:	9b01      	ldr	r3, [sp, #4]
    8fee:	f852 3023 	ldr.w	r3, [r2, r3, lsl #2]
    8ff2:	f003 0301 	and.w	r3, r3, #1
    8ff6:	2b00      	cmp	r3, #0
    8ff8:	d106      	bne.n	9008 <SchM_Exit_Port_PORT_EXCLUSIVE_AREA_07+0x3c>
    8ffa:	4a05      	ldr	r2, [pc, #20]	; (9010 <SchM_Exit_Port_PORT_EXCLUSIVE_AREA_07+0x44>)
    8ffc:	9b01      	ldr	r3, [sp, #4]
    8ffe:	f852 3023 	ldr.w	r3, [r2, r3, lsl #2]
    9002:	2b00      	cmp	r3, #0
    9004:	d100      	bne.n	9008 <SchM_Exit_Port_PORT_EXCLUSIVE_AREA_07+0x3c>
    9006:	b662      	cpsie	i
    9008:	bf00      	nop
    900a:	b003      	add	sp, #12
    900c:	f85d fb04 	ldr.w	pc, [sp], #4
    9010:	1fff9138 	.word	0x1fff9138
    9014:	1fff9134 	.word	0x1fff9134

00009018 <SchM_Enter_Port_PORT_EXCLUSIVE_AREA_08>:
    9018:	b500      	push	{lr}
    901a:	b083      	sub	sp, #12
    901c:	f7f7 fd46 	bl	aac <Sys_GetCoreID>
    9020:	4603      	mov	r3, r0
    9022:	9301      	str	r3, [sp, #4]
    9024:	4a10      	ldr	r2, [pc, #64]	; (9068 <SchM_Enter_Port_PORT_EXCLUSIVE_AREA_08+0x50>)
    9026:	9b01      	ldr	r3, [sp, #4]
    9028:	f852 3023 	ldr.w	r3, [r2, r3, lsl #2]
    902c:	2b00      	cmp	r3, #0
    902e:	d10d      	bne.n	904c <SchM_Enter_Port_PORT_EXCLUSIVE_AREA_08+0x34>
    9030:	f7f7 fc63 	bl	8fa <Port_schm_read_msr>
    9034:	9000      	str	r0, [sp, #0]
    9036:	9b00      	ldr	r3, [sp, #0]
    9038:	f003 0301 	and.w	r3, r3, #1
    903c:	2b00      	cmp	r3, #0
    903e:	d100      	bne.n	9042 <SchM_Enter_Port_PORT_EXCLUSIVE_AREA_08+0x2a>
    9040:	b672      	cpsid	i
    9042:	490a      	ldr	r1, [pc, #40]	; (906c <SchM_Enter_Port_PORT_EXCLUSIVE_AREA_08+0x54>)
    9044:	9b01      	ldr	r3, [sp, #4]
    9046:	9a00      	ldr	r2, [sp, #0]
    9048:	f841 2023 	str.w	r2, [r1, r3, lsl #2]
    904c:	4a06      	ldr	r2, [pc, #24]	; (9068 <SchM_Enter_Port_PORT_EXCLUSIVE_AREA_08+0x50>)
    904e:	9b01      	ldr	r3, [sp, #4]
    9050:	f852 3023 	ldr.w	r3, [r2, r3, lsl #2]
    9054:	1c5a      	adds	r2, r3, #1
    9056:	4904      	ldr	r1, [pc, #16]	; (9068 <SchM_Enter_Port_PORT_EXCLUSIVE_AREA_08+0x50>)
    9058:	9b01      	ldr	r3, [sp, #4]
    905a:	f841 2023 	str.w	r2, [r1, r3, lsl #2]
    905e:	bf00      	nop
    9060:	b003      	add	sp, #12
    9062:	f85d fb04 	ldr.w	pc, [sp], #4
    9066:	bf00      	nop
    9068:	1fff9140 	.word	0x1fff9140
    906c:	1fff913c 	.word	0x1fff913c

00009070 <SchM_Exit_Port_PORT_EXCLUSIVE_AREA_08>:
    9070:	b500      	push	{lr}
    9072:	b083      	sub	sp, #12
    9074:	f7f7 fd1a 	bl	aac <Sys_GetCoreID>
    9078:	4603      	mov	r3, r0
    907a:	9301      	str	r3, [sp, #4]
    907c:	4a0d      	ldr	r2, [pc, #52]	; (90b4 <SchM_Exit_Port_PORT_EXCLUSIVE_AREA_08+0x44>)
    907e:	9b01      	ldr	r3, [sp, #4]
    9080:	f852 3023 	ldr.w	r3, [r2, r3, lsl #2]
    9084:	1e5a      	subs	r2, r3, #1
    9086:	490b      	ldr	r1, [pc, #44]	; (90b4 <SchM_Exit_Port_PORT_EXCLUSIVE_AREA_08+0x44>)
    9088:	9b01      	ldr	r3, [sp, #4]
    908a:	f841 2023 	str.w	r2, [r1, r3, lsl #2]
    908e:	4a0a      	ldr	r2, [pc, #40]	; (90b8 <SchM_Exit_Port_PORT_EXCLUSIVE_AREA_08+0x48>)
    9090:	9b01      	ldr	r3, [sp, #4]
    9092:	f852 3023 	ldr.w	r3, [r2, r3, lsl #2]
    9096:	f003 0301 	and.w	r3, r3, #1
    909a:	2b00      	cmp	r3, #0
    909c:	d106      	bne.n	90ac <SchM_Exit_Port_PORT_EXCLUSIVE_AREA_08+0x3c>
    909e:	4a05      	ldr	r2, [pc, #20]	; (90b4 <SchM_Exit_Port_PORT_EXCLUSIVE_AREA_08+0x44>)
    90a0:	9b01      	ldr	r3, [sp, #4]
    90a2:	f852 3023 	ldr.w	r3, [r2, r3, lsl #2]
    90a6:	2b00      	cmp	r3, #0
    90a8:	d100      	bne.n	90ac <SchM_Exit_Port_PORT_EXCLUSIVE_AREA_08+0x3c>
    90aa:	b662      	cpsie	i
    90ac:	bf00      	nop
    90ae:	b003      	add	sp, #12
    90b0:	f85d fb04 	ldr.w	pc, [sp], #4
    90b4:	1fff9140 	.word	0x1fff9140
    90b8:	1fff913c 	.word	0x1fff913c

000090bc <SchM_Enter_Port_PORT_EXCLUSIVE_AREA_09>:
    90bc:	b500      	push	{lr}
    90be:	b083      	sub	sp, #12
    90c0:	f7f7 fcf4 	bl	aac <Sys_GetCoreID>
    90c4:	4603      	mov	r3, r0
    90c6:	9301      	str	r3, [sp, #4]
    90c8:	4a10      	ldr	r2, [pc, #64]	; (910c <SchM_Enter_Port_PORT_EXCLUSIVE_AREA_09+0x50>)
    90ca:	9b01      	ldr	r3, [sp, #4]
    90cc:	f852 3023 	ldr.w	r3, [r2, r3, lsl #2]
    90d0:	2b00      	cmp	r3, #0
    90d2:	d10d      	bne.n	90f0 <SchM_Enter_Port_PORT_EXCLUSIVE_AREA_09+0x34>
    90d4:	f7f7 fc11 	bl	8fa <Port_schm_read_msr>
    90d8:	9000      	str	r0, [sp, #0]
    90da:	9b00      	ldr	r3, [sp, #0]
    90dc:	f003 0301 	and.w	r3, r3, #1
    90e0:	2b00      	cmp	r3, #0
    90e2:	d100      	bne.n	90e6 <SchM_Enter_Port_PORT_EXCLUSIVE_AREA_09+0x2a>
    90e4:	b672      	cpsid	i
    90e6:	490a      	ldr	r1, [pc, #40]	; (9110 <SchM_Enter_Port_PORT_EXCLUSIVE_AREA_09+0x54>)
    90e8:	9b01      	ldr	r3, [sp, #4]
    90ea:	9a00      	ldr	r2, [sp, #0]
    90ec:	f841 2023 	str.w	r2, [r1, r3, lsl #2]
    90f0:	4a06      	ldr	r2, [pc, #24]	; (910c <SchM_Enter_Port_PORT_EXCLUSIVE_AREA_09+0x50>)
    90f2:	9b01      	ldr	r3, [sp, #4]
    90f4:	f852 3023 	ldr.w	r3, [r2, r3, lsl #2]
    90f8:	1c5a      	adds	r2, r3, #1
    90fa:	4904      	ldr	r1, [pc, #16]	; (910c <SchM_Enter_Port_PORT_EXCLUSIVE_AREA_09+0x50>)
    90fc:	9b01      	ldr	r3, [sp, #4]
    90fe:	f841 2023 	str.w	r2, [r1, r3, lsl #2]
    9102:	bf00      	nop
    9104:	b003      	add	sp, #12
    9106:	f85d fb04 	ldr.w	pc, [sp], #4
    910a:	bf00      	nop
    910c:	1fff9148 	.word	0x1fff9148
    9110:	1fff9144 	.word	0x1fff9144

00009114 <SchM_Exit_Port_PORT_EXCLUSIVE_AREA_09>:
    9114:	b500      	push	{lr}
    9116:	b083      	sub	sp, #12
    9118:	f7f7 fcc8 	bl	aac <Sys_GetCoreID>
    911c:	4603      	mov	r3, r0
    911e:	9301      	str	r3, [sp, #4]
    9120:	4a0d      	ldr	r2, [pc, #52]	; (9158 <SchM_Exit_Port_PORT_EXCLUSIVE_AREA_09+0x44>)
    9122:	9b01      	ldr	r3, [sp, #4]
    9124:	f852 3023 	ldr.w	r3, [r2, r3, lsl #2]
    9128:	1e5a      	subs	r2, r3, #1
    912a:	490b      	ldr	r1, [pc, #44]	; (9158 <SchM_Exit_Port_PORT_EXCLUSIVE_AREA_09+0x44>)
    912c:	9b01      	ldr	r3, [sp, #4]
    912e:	f841 2023 	str.w	r2, [r1, r3, lsl #2]
    9132:	4a0a      	ldr	r2, [pc, #40]	; (915c <SchM_Exit_Port_PORT_EXCLUSIVE_AREA_09+0x48>)
    9134:	9b01      	ldr	r3, [sp, #4]
    9136:	f852 3023 	ldr.w	r3, [r2, r3, lsl #2]
    913a:	f003 0301 	and.w	r3, r3, #1
    913e:	2b00      	cmp	r3, #0
    9140:	d106      	bne.n	9150 <SchM_Exit_Port_PORT_EXCLUSIVE_AREA_09+0x3c>
    9142:	4a05      	ldr	r2, [pc, #20]	; (9158 <SchM_Exit_Port_PORT_EXCLUSIVE_AREA_09+0x44>)
    9144:	9b01      	ldr	r3, [sp, #4]
    9146:	f852 3023 	ldr.w	r3, [r2, r3, lsl #2]
    914a:	2b00      	cmp	r3, #0
    914c:	d100      	bne.n	9150 <SchM_Exit_Port_PORT_EXCLUSIVE_AREA_09+0x3c>
    914e:	b662      	cpsie	i
    9150:	bf00      	nop
    9152:	b003      	add	sp, #12
    9154:	f85d fb04 	ldr.w	pc, [sp], #4
    9158:	1fff9148 	.word	0x1fff9148
    915c:	1fff9144 	.word	0x1fff9144

00009160 <SchM_Enter_Port_PORT_EXCLUSIVE_AREA_10>:
    9160:	b500      	push	{lr}
    9162:	b083      	sub	sp, #12
    9164:	f7f7 fca2 	bl	aac <Sys_GetCoreID>
    9168:	4603      	mov	r3, r0
    916a:	9301      	str	r3, [sp, #4]
    916c:	4a10      	ldr	r2, [pc, #64]	; (91b0 <SchM_Enter_Port_PORT_EXCLUSIVE_AREA_10+0x50>)
    916e:	9b01      	ldr	r3, [sp, #4]
    9170:	f852 3023 	ldr.w	r3, [r2, r3, lsl #2]
    9174:	2b00      	cmp	r3, #0
    9176:	d10d      	bne.n	9194 <SchM_Enter_Port_PORT_EXCLUSIVE_AREA_10+0x34>
    9178:	f7f7 fbbf 	bl	8fa <Port_schm_read_msr>
    917c:	9000      	str	r0, [sp, #0]
    917e:	9b00      	ldr	r3, [sp, #0]
    9180:	f003 0301 	and.w	r3, r3, #1
    9184:	2b00      	cmp	r3, #0
    9186:	d100      	bne.n	918a <SchM_Enter_Port_PORT_EXCLUSIVE_AREA_10+0x2a>
    9188:	b672      	cpsid	i
    918a:	490a      	ldr	r1, [pc, #40]	; (91b4 <SchM_Enter_Port_PORT_EXCLUSIVE_AREA_10+0x54>)
    918c:	9b01      	ldr	r3, [sp, #4]
    918e:	9a00      	ldr	r2, [sp, #0]
    9190:	f841 2023 	str.w	r2, [r1, r3, lsl #2]
    9194:	4a06      	ldr	r2, [pc, #24]	; (91b0 <SchM_Enter_Port_PORT_EXCLUSIVE_AREA_10+0x50>)
    9196:	9b01      	ldr	r3, [sp, #4]
    9198:	f852 3023 	ldr.w	r3, [r2, r3, lsl #2]
    919c:	1c5a      	adds	r2, r3, #1
    919e:	4904      	ldr	r1, [pc, #16]	; (91b0 <SchM_Enter_Port_PORT_EXCLUSIVE_AREA_10+0x50>)
    91a0:	9b01      	ldr	r3, [sp, #4]
    91a2:	f841 2023 	str.w	r2, [r1, r3, lsl #2]
    91a6:	bf00      	nop
    91a8:	b003      	add	sp, #12
    91aa:	f85d fb04 	ldr.w	pc, [sp], #4
    91ae:	bf00      	nop
    91b0:	1fff9150 	.word	0x1fff9150
    91b4:	1fff914c 	.word	0x1fff914c

000091b8 <SchM_Exit_Port_PORT_EXCLUSIVE_AREA_10>:
    91b8:	b500      	push	{lr}
    91ba:	b083      	sub	sp, #12
    91bc:	f7f7 fc76 	bl	aac <Sys_GetCoreID>
    91c0:	4603      	mov	r3, r0
    91c2:	9301      	str	r3, [sp, #4]
    91c4:	4a0d      	ldr	r2, [pc, #52]	; (91fc <SchM_Exit_Port_PORT_EXCLUSIVE_AREA_10+0x44>)
    91c6:	9b01      	ldr	r3, [sp, #4]
    91c8:	f852 3023 	ldr.w	r3, [r2, r3, lsl #2]
    91cc:	1e5a      	subs	r2, r3, #1
    91ce:	490b      	ldr	r1, [pc, #44]	; (91fc <SchM_Exit_Port_PORT_EXCLUSIVE_AREA_10+0x44>)
    91d0:	9b01      	ldr	r3, [sp, #4]
    91d2:	f841 2023 	str.w	r2, [r1, r3, lsl #2]
    91d6:	4a0a      	ldr	r2, [pc, #40]	; (9200 <SchM_Exit_Port_PORT_EXCLUSIVE_AREA_10+0x48>)
    91d8:	9b01      	ldr	r3, [sp, #4]
    91da:	f852 3023 	ldr.w	r3, [r2, r3, lsl #2]
    91de:	f003 0301 	and.w	r3, r3, #1
    91e2:	2b00      	cmp	r3, #0
    91e4:	d106      	bne.n	91f4 <SchM_Exit_Port_PORT_EXCLUSIVE_AREA_10+0x3c>
    91e6:	4a05      	ldr	r2, [pc, #20]	; (91fc <SchM_Exit_Port_PORT_EXCLUSIVE_AREA_10+0x44>)
    91e8:	9b01      	ldr	r3, [sp, #4]
    91ea:	f852 3023 	ldr.w	r3, [r2, r3, lsl #2]
    91ee:	2b00      	cmp	r3, #0
    91f0:	d100      	bne.n	91f4 <SchM_Exit_Port_PORT_EXCLUSIVE_AREA_10+0x3c>
    91f2:	b662      	cpsie	i
    91f4:	bf00      	nop
    91f6:	b003      	add	sp, #12
    91f8:	f85d fb04 	ldr.w	pc, [sp], #4
    91fc:	1fff9150 	.word	0x1fff9150
    9200:	1fff914c 	.word	0x1fff914c

00009204 <SchM_Enter_Port_PORT_EXCLUSIVE_AREA_11>:
    9204:	b500      	push	{lr}
    9206:	b083      	sub	sp, #12
    9208:	f7f7 fc50 	bl	aac <Sys_GetCoreID>
    920c:	4603      	mov	r3, r0
    920e:	9301      	str	r3, [sp, #4]
    9210:	4a10      	ldr	r2, [pc, #64]	; (9254 <SchM_Enter_Port_PORT_EXCLUSIVE_AREA_11+0x50>)
    9212:	9b01      	ldr	r3, [sp, #4]
    9214:	f852 3023 	ldr.w	r3, [r2, r3, lsl #2]
    9218:	2b00      	cmp	r3, #0
    921a:	d10d      	bne.n	9238 <SchM_Enter_Port_PORT_EXCLUSIVE_AREA_11+0x34>
    921c:	f7f7 fb6d 	bl	8fa <Port_schm_read_msr>
    9220:	9000      	str	r0, [sp, #0]
    9222:	9b00      	ldr	r3, [sp, #0]
    9224:	f003 0301 	and.w	r3, r3, #1
    9228:	2b00      	cmp	r3, #0
    922a:	d100      	bne.n	922e <SchM_Enter_Port_PORT_EXCLUSIVE_AREA_11+0x2a>
    922c:	b672      	cpsid	i
    922e:	490a      	ldr	r1, [pc, #40]	; (9258 <SchM_Enter_Port_PORT_EXCLUSIVE_AREA_11+0x54>)
    9230:	9b01      	ldr	r3, [sp, #4]
    9232:	9a00      	ldr	r2, [sp, #0]
    9234:	f841 2023 	str.w	r2, [r1, r3, lsl #2]
    9238:	4a06      	ldr	r2, [pc, #24]	; (9254 <SchM_Enter_Port_PORT_EXCLUSIVE_AREA_11+0x50>)
    923a:	9b01      	ldr	r3, [sp, #4]
    923c:	f852 3023 	ldr.w	r3, [r2, r3, lsl #2]
    9240:	1c5a      	adds	r2, r3, #1
    9242:	4904      	ldr	r1, [pc, #16]	; (9254 <SchM_Enter_Port_PORT_EXCLUSIVE_AREA_11+0x50>)
    9244:	9b01      	ldr	r3, [sp, #4]
    9246:	f841 2023 	str.w	r2, [r1, r3, lsl #2]
    924a:	bf00      	nop
    924c:	b003      	add	sp, #12
    924e:	f85d fb04 	ldr.w	pc, [sp], #4
    9252:	bf00      	nop
    9254:	1fff9158 	.word	0x1fff9158
    9258:	1fff9154 	.word	0x1fff9154

0000925c <SchM_Exit_Port_PORT_EXCLUSIVE_AREA_11>:
    925c:	b500      	push	{lr}
    925e:	b083      	sub	sp, #12
    9260:	f7f7 fc24 	bl	aac <Sys_GetCoreID>
    9264:	4603      	mov	r3, r0
    9266:	9301      	str	r3, [sp, #4]
    9268:	4a0d      	ldr	r2, [pc, #52]	; (92a0 <SchM_Exit_Port_PORT_EXCLUSIVE_AREA_11+0x44>)
    926a:	9b01      	ldr	r3, [sp, #4]
    926c:	f852 3023 	ldr.w	r3, [r2, r3, lsl #2]
    9270:	1e5a      	subs	r2, r3, #1
    9272:	490b      	ldr	r1, [pc, #44]	; (92a0 <SchM_Exit_Port_PORT_EXCLUSIVE_AREA_11+0x44>)
    9274:	9b01      	ldr	r3, [sp, #4]
    9276:	f841 2023 	str.w	r2, [r1, r3, lsl #2]
    927a:	4a0a      	ldr	r2, [pc, #40]	; (92a4 <SchM_Exit_Port_PORT_EXCLUSIVE_AREA_11+0x48>)
    927c:	9b01      	ldr	r3, [sp, #4]
    927e:	f852 3023 	ldr.w	r3, [r2, r3, lsl #2]
    9282:	f003 0301 	and.w	r3, r3, #1
    9286:	2b00      	cmp	r3, #0
    9288:	d106      	bne.n	9298 <SchM_Exit_Port_PORT_EXCLUSIVE_AREA_11+0x3c>
    928a:	4a05      	ldr	r2, [pc, #20]	; (92a0 <SchM_Exit_Port_PORT_EXCLUSIVE_AREA_11+0x44>)
    928c:	9b01      	ldr	r3, [sp, #4]
    928e:	f852 3023 	ldr.w	r3, [r2, r3, lsl #2]
    9292:	2b00      	cmp	r3, #0
    9294:	d100      	bne.n	9298 <SchM_Exit_Port_PORT_EXCLUSIVE_AREA_11+0x3c>
    9296:	b662      	cpsie	i
    9298:	bf00      	nop
    929a:	b003      	add	sp, #12
    929c:	f85d fb04 	ldr.w	pc, [sp], #4
    92a0:	1fff9158 	.word	0x1fff9158
    92a4:	1fff9154 	.word	0x1fff9154

000092a8 <SchM_Enter_Port_PORT_EXCLUSIVE_AREA_12>:
    92a8:	b500      	push	{lr}
    92aa:	b083      	sub	sp, #12
    92ac:	f7f7 fbfe 	bl	aac <Sys_GetCoreID>
    92b0:	4603      	mov	r3, r0
    92b2:	9301      	str	r3, [sp, #4]
    92b4:	4a10      	ldr	r2, [pc, #64]	; (92f8 <SchM_Enter_Port_PORT_EXCLUSIVE_AREA_12+0x50>)
    92b6:	9b01      	ldr	r3, [sp, #4]
    92b8:	f852 3023 	ldr.w	r3, [r2, r3, lsl #2]
    92bc:	2b00      	cmp	r3, #0
    92be:	d10d      	bne.n	92dc <SchM_Enter_Port_PORT_EXCLUSIVE_AREA_12+0x34>
    92c0:	f7f7 fb1b 	bl	8fa <Port_schm_read_msr>
    92c4:	9000      	str	r0, [sp, #0]
    92c6:	9b00      	ldr	r3, [sp, #0]
    92c8:	f003 0301 	and.w	r3, r3, #1
    92cc:	2b00      	cmp	r3, #0
    92ce:	d100      	bne.n	92d2 <SchM_Enter_Port_PORT_EXCLUSIVE_AREA_12+0x2a>
    92d0:	b672      	cpsid	i
    92d2:	490a      	ldr	r1, [pc, #40]	; (92fc <SchM_Enter_Port_PORT_EXCLUSIVE_AREA_12+0x54>)
    92d4:	9b01      	ldr	r3, [sp, #4]
    92d6:	9a00      	ldr	r2, [sp, #0]
    92d8:	f841 2023 	str.w	r2, [r1, r3, lsl #2]
    92dc:	4a06      	ldr	r2, [pc, #24]	; (92f8 <SchM_Enter_Port_PORT_EXCLUSIVE_AREA_12+0x50>)
    92de:	9b01      	ldr	r3, [sp, #4]
    92e0:	f852 3023 	ldr.w	r3, [r2, r3, lsl #2]
    92e4:	1c5a      	adds	r2, r3, #1
    92e6:	4904      	ldr	r1, [pc, #16]	; (92f8 <SchM_Enter_Port_PORT_EXCLUSIVE_AREA_12+0x50>)
    92e8:	9b01      	ldr	r3, [sp, #4]
    92ea:	f841 2023 	str.w	r2, [r1, r3, lsl #2]
    92ee:	bf00      	nop
    92f0:	b003      	add	sp, #12
    92f2:	f85d fb04 	ldr.w	pc, [sp], #4
    92f6:	bf00      	nop
    92f8:	1fff9160 	.word	0x1fff9160
    92fc:	1fff915c 	.word	0x1fff915c

00009300 <SchM_Exit_Port_PORT_EXCLUSIVE_AREA_12>:
    9300:	b500      	push	{lr}
    9302:	b083      	sub	sp, #12
    9304:	f7f7 fbd2 	bl	aac <Sys_GetCoreID>
    9308:	4603      	mov	r3, r0
    930a:	9301      	str	r3, [sp, #4]
    930c:	4a0d      	ldr	r2, [pc, #52]	; (9344 <SchM_Exit_Port_PORT_EXCLUSIVE_AREA_12+0x44>)
    930e:	9b01      	ldr	r3, [sp, #4]
    9310:	f852 3023 	ldr.w	r3, [r2, r3, lsl #2]
    9314:	1e5a      	subs	r2, r3, #1
    9316:	490b      	ldr	r1, [pc, #44]	; (9344 <SchM_Exit_Port_PORT_EXCLUSIVE_AREA_12+0x44>)
    9318:	9b01      	ldr	r3, [sp, #4]
    931a:	f841 2023 	str.w	r2, [r1, r3, lsl #2]
    931e:	4a0a      	ldr	r2, [pc, #40]	; (9348 <SchM_Exit_Port_PORT_EXCLUSIVE_AREA_12+0x48>)
    9320:	9b01      	ldr	r3, [sp, #4]
    9322:	f852 3023 	ldr.w	r3, [r2, r3, lsl #2]
    9326:	f003 0301 	and.w	r3, r3, #1
    932a:	2b00      	cmp	r3, #0
    932c:	d106      	bne.n	933c <SchM_Exit_Port_PORT_EXCLUSIVE_AREA_12+0x3c>
    932e:	4a05      	ldr	r2, [pc, #20]	; (9344 <SchM_Exit_Port_PORT_EXCLUSIVE_AREA_12+0x44>)
    9330:	9b01      	ldr	r3, [sp, #4]
    9332:	f852 3023 	ldr.w	r3, [r2, r3, lsl #2]
    9336:	2b00      	cmp	r3, #0
    9338:	d100      	bne.n	933c <SchM_Exit_Port_PORT_EXCLUSIVE_AREA_12+0x3c>
    933a:	b662      	cpsie	i
    933c:	bf00      	nop
    933e:	b003      	add	sp, #12
    9340:	f85d fb04 	ldr.w	pc, [sp], #4
    9344:	1fff9160 	.word	0x1fff9160
    9348:	1fff915c 	.word	0x1fff915c

0000934c <SchM_Enter_Port_PORT_EXCLUSIVE_AREA_13>:
    934c:	b500      	push	{lr}
    934e:	b083      	sub	sp, #12
    9350:	f7f7 fbac 	bl	aac <Sys_GetCoreID>
    9354:	4603      	mov	r3, r0
    9356:	9301      	str	r3, [sp, #4]
    9358:	4a10      	ldr	r2, [pc, #64]	; (939c <SchM_Enter_Port_PORT_EXCLUSIVE_AREA_13+0x50>)
    935a:	9b01      	ldr	r3, [sp, #4]
    935c:	f852 3023 	ldr.w	r3, [r2, r3, lsl #2]
    9360:	2b00      	cmp	r3, #0
    9362:	d10d      	bne.n	9380 <SchM_Enter_Port_PORT_EXCLUSIVE_AREA_13+0x34>
    9364:	f7f7 fac9 	bl	8fa <Port_schm_read_msr>
    9368:	9000      	str	r0, [sp, #0]
    936a:	9b00      	ldr	r3, [sp, #0]
    936c:	f003 0301 	and.w	r3, r3, #1
    9370:	2b00      	cmp	r3, #0
    9372:	d100      	bne.n	9376 <SchM_Enter_Port_PORT_EXCLUSIVE_AREA_13+0x2a>
    9374:	b672      	cpsid	i
    9376:	490a      	ldr	r1, [pc, #40]	; (93a0 <SchM_Enter_Port_PORT_EXCLUSIVE_AREA_13+0x54>)
    9378:	9b01      	ldr	r3, [sp, #4]
    937a:	9a00      	ldr	r2, [sp, #0]
    937c:	f841 2023 	str.w	r2, [r1, r3, lsl #2]
    9380:	4a06      	ldr	r2, [pc, #24]	; (939c <SchM_Enter_Port_PORT_EXCLUSIVE_AREA_13+0x50>)
    9382:	9b01      	ldr	r3, [sp, #4]
    9384:	f852 3023 	ldr.w	r3, [r2, r3, lsl #2]
    9388:	1c5a      	adds	r2, r3, #1
    938a:	4904      	ldr	r1, [pc, #16]	; (939c <SchM_Enter_Port_PORT_EXCLUSIVE_AREA_13+0x50>)
    938c:	9b01      	ldr	r3, [sp, #4]
    938e:	f841 2023 	str.w	r2, [r1, r3, lsl #2]
    9392:	bf00      	nop
    9394:	b003      	add	sp, #12
    9396:	f85d fb04 	ldr.w	pc, [sp], #4
    939a:	bf00      	nop
    939c:	1fff9168 	.word	0x1fff9168
    93a0:	1fff9164 	.word	0x1fff9164

000093a4 <SchM_Exit_Port_PORT_EXCLUSIVE_AREA_13>:
    93a4:	b500      	push	{lr}
    93a6:	b083      	sub	sp, #12
    93a8:	f7f7 fb80 	bl	aac <Sys_GetCoreID>
    93ac:	4603      	mov	r3, r0
    93ae:	9301      	str	r3, [sp, #4]
    93b0:	4a0d      	ldr	r2, [pc, #52]	; (93e8 <SchM_Exit_Port_PORT_EXCLUSIVE_AREA_13+0x44>)
    93b2:	9b01      	ldr	r3, [sp, #4]
    93b4:	f852 3023 	ldr.w	r3, [r2, r3, lsl #2]
    93b8:	1e5a      	subs	r2, r3, #1
    93ba:	490b      	ldr	r1, [pc, #44]	; (93e8 <SchM_Exit_Port_PORT_EXCLUSIVE_AREA_13+0x44>)
    93bc:	9b01      	ldr	r3, [sp, #4]
    93be:	f841 2023 	str.w	r2, [r1, r3, lsl #2]
    93c2:	4a0a      	ldr	r2, [pc, #40]	; (93ec <SchM_Exit_Port_PORT_EXCLUSIVE_AREA_13+0x48>)
    93c4:	9b01      	ldr	r3, [sp, #4]
    93c6:	f852 3023 	ldr.w	r3, [r2, r3, lsl #2]
    93ca:	f003 0301 	and.w	r3, r3, #1
    93ce:	2b00      	cmp	r3, #0
    93d0:	d106      	bne.n	93e0 <SchM_Exit_Port_PORT_EXCLUSIVE_AREA_13+0x3c>
    93d2:	4a05      	ldr	r2, [pc, #20]	; (93e8 <SchM_Exit_Port_PORT_EXCLUSIVE_AREA_13+0x44>)
    93d4:	9b01      	ldr	r3, [sp, #4]
    93d6:	f852 3023 	ldr.w	r3, [r2, r3, lsl #2]
    93da:	2b00      	cmp	r3, #0
    93dc:	d100      	bne.n	93e0 <SchM_Exit_Port_PORT_EXCLUSIVE_AREA_13+0x3c>
    93de:	b662      	cpsie	i
    93e0:	bf00      	nop
    93e2:	b003      	add	sp, #12
    93e4:	f85d fb04 	ldr.w	pc, [sp], #4
    93e8:	1fff9168 	.word	0x1fff9168
    93ec:	1fff9164 	.word	0x1fff9164

000093f0 <SchM_Enter_Port_PORT_EXCLUSIVE_AREA_14>:
    93f0:	b500      	push	{lr}
    93f2:	b083      	sub	sp, #12
    93f4:	f7f7 fb5a 	bl	aac <Sys_GetCoreID>
    93f8:	4603      	mov	r3, r0
    93fa:	9301      	str	r3, [sp, #4]
    93fc:	4a10      	ldr	r2, [pc, #64]	; (9440 <SchM_Enter_Port_PORT_EXCLUSIVE_AREA_14+0x50>)
    93fe:	9b01      	ldr	r3, [sp, #4]
    9400:	f852 3023 	ldr.w	r3, [r2, r3, lsl #2]
    9404:	2b00      	cmp	r3, #0
    9406:	d10d      	bne.n	9424 <SchM_Enter_Port_PORT_EXCLUSIVE_AREA_14+0x34>
    9408:	f7f7 fa77 	bl	8fa <Port_schm_read_msr>
    940c:	9000      	str	r0, [sp, #0]
    940e:	9b00      	ldr	r3, [sp, #0]
    9410:	f003 0301 	and.w	r3, r3, #1
    9414:	2b00      	cmp	r3, #0
    9416:	d100      	bne.n	941a <SchM_Enter_Port_PORT_EXCLUSIVE_AREA_14+0x2a>
    9418:	b672      	cpsid	i
    941a:	490a      	ldr	r1, [pc, #40]	; (9444 <SchM_Enter_Port_PORT_EXCLUSIVE_AREA_14+0x54>)
    941c:	9b01      	ldr	r3, [sp, #4]
    941e:	9a00      	ldr	r2, [sp, #0]
    9420:	f841 2023 	str.w	r2, [r1, r3, lsl #2]
    9424:	4a06      	ldr	r2, [pc, #24]	; (9440 <SchM_Enter_Port_PORT_EXCLUSIVE_AREA_14+0x50>)
    9426:	9b01      	ldr	r3, [sp, #4]
    9428:	f852 3023 	ldr.w	r3, [r2, r3, lsl #2]
    942c:	1c5a      	adds	r2, r3, #1
    942e:	4904      	ldr	r1, [pc, #16]	; (9440 <SchM_Enter_Port_PORT_EXCLUSIVE_AREA_14+0x50>)
    9430:	9b01      	ldr	r3, [sp, #4]
    9432:	f841 2023 	str.w	r2, [r1, r3, lsl #2]
    9436:	bf00      	nop
    9438:	b003      	add	sp, #12
    943a:	f85d fb04 	ldr.w	pc, [sp], #4
    943e:	bf00      	nop
    9440:	1fff9170 	.word	0x1fff9170
    9444:	1fff916c 	.word	0x1fff916c

00009448 <SchM_Exit_Port_PORT_EXCLUSIVE_AREA_14>:
    9448:	b500      	push	{lr}
    944a:	b083      	sub	sp, #12
    944c:	f7f7 fb2e 	bl	aac <Sys_GetCoreID>
    9450:	4603      	mov	r3, r0
    9452:	9301      	str	r3, [sp, #4]
    9454:	4a0d      	ldr	r2, [pc, #52]	; (948c <SchM_Exit_Port_PORT_EXCLUSIVE_AREA_14+0x44>)
    9456:	9b01      	ldr	r3, [sp, #4]
    9458:	f852 3023 	ldr.w	r3, [r2, r3, lsl #2]
    945c:	1e5a      	subs	r2, r3, #1
    945e:	490b      	ldr	r1, [pc, #44]	; (948c <SchM_Exit_Port_PORT_EXCLUSIVE_AREA_14+0x44>)
    9460:	9b01      	ldr	r3, [sp, #4]
    9462:	f841 2023 	str.w	r2, [r1, r3, lsl #2]
    9466:	4a0a      	ldr	r2, [pc, #40]	; (9490 <SchM_Exit_Port_PORT_EXCLUSIVE_AREA_14+0x48>)
    9468:	9b01      	ldr	r3, [sp, #4]
    946a:	f852 3023 	ldr.w	r3, [r2, r3, lsl #2]
    946e:	f003 0301 	and.w	r3, r3, #1
    9472:	2b00      	cmp	r3, #0
    9474:	d106      	bne.n	9484 <SchM_Exit_Port_PORT_EXCLUSIVE_AREA_14+0x3c>
    9476:	4a05      	ldr	r2, [pc, #20]	; (948c <SchM_Exit_Port_PORT_EXCLUSIVE_AREA_14+0x44>)
    9478:	9b01      	ldr	r3, [sp, #4]
    947a:	f852 3023 	ldr.w	r3, [r2, r3, lsl #2]
    947e:	2b00      	cmp	r3, #0
    9480:	d100      	bne.n	9484 <SchM_Exit_Port_PORT_EXCLUSIVE_AREA_14+0x3c>
    9482:	b662      	cpsie	i
    9484:	bf00      	nop
    9486:	b003      	add	sp, #12
    9488:	f85d fb04 	ldr.w	pc, [sp], #4
    948c:	1fff9170 	.word	0x1fff9170
    9490:	1fff916c 	.word	0x1fff916c

00009494 <SchM_Enter_Port_PORT_EXCLUSIVE_AREA_15>:
    9494:	b500      	push	{lr}
    9496:	b083      	sub	sp, #12
    9498:	f7f7 fb08 	bl	aac <Sys_GetCoreID>
    949c:	4603      	mov	r3, r0
    949e:	9301      	str	r3, [sp, #4]
    94a0:	4a10      	ldr	r2, [pc, #64]	; (94e4 <SchM_Enter_Port_PORT_EXCLUSIVE_AREA_15+0x50>)
    94a2:	9b01      	ldr	r3, [sp, #4]
    94a4:	f852 3023 	ldr.w	r3, [r2, r3, lsl #2]
    94a8:	2b00      	cmp	r3, #0
    94aa:	d10d      	bne.n	94c8 <SchM_Enter_Port_PORT_EXCLUSIVE_AREA_15+0x34>
    94ac:	f7f7 fa25 	bl	8fa <Port_schm_read_msr>
    94b0:	9000      	str	r0, [sp, #0]
    94b2:	9b00      	ldr	r3, [sp, #0]
    94b4:	f003 0301 	and.w	r3, r3, #1
    94b8:	2b00      	cmp	r3, #0
    94ba:	d100      	bne.n	94be <SchM_Enter_Port_PORT_EXCLUSIVE_AREA_15+0x2a>
    94bc:	b672      	cpsid	i
    94be:	490a      	ldr	r1, [pc, #40]	; (94e8 <SchM_Enter_Port_PORT_EXCLUSIVE_AREA_15+0x54>)
    94c0:	9b01      	ldr	r3, [sp, #4]
    94c2:	9a00      	ldr	r2, [sp, #0]
    94c4:	f841 2023 	str.w	r2, [r1, r3, lsl #2]
    94c8:	4a06      	ldr	r2, [pc, #24]	; (94e4 <SchM_Enter_Port_PORT_EXCLUSIVE_AREA_15+0x50>)
    94ca:	9b01      	ldr	r3, [sp, #4]
    94cc:	f852 3023 	ldr.w	r3, [r2, r3, lsl #2]
    94d0:	1c5a      	adds	r2, r3, #1
    94d2:	4904      	ldr	r1, [pc, #16]	; (94e4 <SchM_Enter_Port_PORT_EXCLUSIVE_AREA_15+0x50>)
    94d4:	9b01      	ldr	r3, [sp, #4]
    94d6:	f841 2023 	str.w	r2, [r1, r3, lsl #2]
    94da:	bf00      	nop
    94dc:	b003      	add	sp, #12
    94de:	f85d fb04 	ldr.w	pc, [sp], #4
    94e2:	bf00      	nop
    94e4:	1fff9178 	.word	0x1fff9178
    94e8:	1fff9174 	.word	0x1fff9174

000094ec <SchM_Exit_Port_PORT_EXCLUSIVE_AREA_15>:
    94ec:	b500      	push	{lr}
    94ee:	b083      	sub	sp, #12
    94f0:	f7f7 fadc 	bl	aac <Sys_GetCoreID>
    94f4:	4603      	mov	r3, r0
    94f6:	9301      	str	r3, [sp, #4]
    94f8:	4a0d      	ldr	r2, [pc, #52]	; (9530 <SchM_Exit_Port_PORT_EXCLUSIVE_AREA_15+0x44>)
    94fa:	9b01      	ldr	r3, [sp, #4]
    94fc:	f852 3023 	ldr.w	r3, [r2, r3, lsl #2]
    9500:	1e5a      	subs	r2, r3, #1
    9502:	490b      	ldr	r1, [pc, #44]	; (9530 <SchM_Exit_Port_PORT_EXCLUSIVE_AREA_15+0x44>)
    9504:	9b01      	ldr	r3, [sp, #4]
    9506:	f841 2023 	str.w	r2, [r1, r3, lsl #2]
    950a:	4a0a      	ldr	r2, [pc, #40]	; (9534 <SchM_Exit_Port_PORT_EXCLUSIVE_AREA_15+0x48>)
    950c:	9b01      	ldr	r3, [sp, #4]
    950e:	f852 3023 	ldr.w	r3, [r2, r3, lsl #2]
    9512:	f003 0301 	and.w	r3, r3, #1
    9516:	2b00      	cmp	r3, #0
    9518:	d106      	bne.n	9528 <SchM_Exit_Port_PORT_EXCLUSIVE_AREA_15+0x3c>
    951a:	4a05      	ldr	r2, [pc, #20]	; (9530 <SchM_Exit_Port_PORT_EXCLUSIVE_AREA_15+0x44>)
    951c:	9b01      	ldr	r3, [sp, #4]
    951e:	f852 3023 	ldr.w	r3, [r2, r3, lsl #2]
    9522:	2b00      	cmp	r3, #0
    9524:	d100      	bne.n	9528 <SchM_Exit_Port_PORT_EXCLUSIVE_AREA_15+0x3c>
    9526:	b662      	cpsie	i
    9528:	bf00      	nop
    952a:	b003      	add	sp, #12
    952c:	f85d fb04 	ldr.w	pc, [sp], #4
    9530:	1fff9178 	.word	0x1fff9178
    9534:	1fff9174 	.word	0x1fff9174

00009538 <SchM_Enter_Port_PORT_EXCLUSIVE_AREA_16>:
    9538:	b500      	push	{lr}
    953a:	b083      	sub	sp, #12
    953c:	f7f7 fab6 	bl	aac <Sys_GetCoreID>
    9540:	4603      	mov	r3, r0
    9542:	9301      	str	r3, [sp, #4]
    9544:	4a10      	ldr	r2, [pc, #64]	; (9588 <SchM_Enter_Port_PORT_EXCLUSIVE_AREA_16+0x50>)
    9546:	9b01      	ldr	r3, [sp, #4]
    9548:	f852 3023 	ldr.w	r3, [r2, r3, lsl #2]
    954c:	2b00      	cmp	r3, #0
    954e:	d10d      	bne.n	956c <SchM_Enter_Port_PORT_EXCLUSIVE_AREA_16+0x34>
    9550:	f7f7 f9d3 	bl	8fa <Port_schm_read_msr>
    9554:	9000      	str	r0, [sp, #0]
    9556:	9b00      	ldr	r3, [sp, #0]
    9558:	f003 0301 	and.w	r3, r3, #1
    955c:	2b00      	cmp	r3, #0
    955e:	d100      	bne.n	9562 <SchM_Enter_Port_PORT_EXCLUSIVE_AREA_16+0x2a>
    9560:	b672      	cpsid	i
    9562:	490a      	ldr	r1, [pc, #40]	; (958c <SchM_Enter_Port_PORT_EXCLUSIVE_AREA_16+0x54>)
    9564:	9b01      	ldr	r3, [sp, #4]
    9566:	9a00      	ldr	r2, [sp, #0]
    9568:	f841 2023 	str.w	r2, [r1, r3, lsl #2]
    956c:	4a06      	ldr	r2, [pc, #24]	; (9588 <SchM_Enter_Port_PORT_EXCLUSIVE_AREA_16+0x50>)
    956e:	9b01      	ldr	r3, [sp, #4]
    9570:	f852 3023 	ldr.w	r3, [r2, r3, lsl #2]
    9574:	1c5a      	adds	r2, r3, #1
    9576:	4904      	ldr	r1, [pc, #16]	; (9588 <SchM_Enter_Port_PORT_EXCLUSIVE_AREA_16+0x50>)
    9578:	9b01      	ldr	r3, [sp, #4]
    957a:	f841 2023 	str.w	r2, [r1, r3, lsl #2]
    957e:	bf00      	nop
    9580:	b003      	add	sp, #12
    9582:	f85d fb04 	ldr.w	pc, [sp], #4
    9586:	bf00      	nop
    9588:	1fff9180 	.word	0x1fff9180
    958c:	1fff917c 	.word	0x1fff917c

00009590 <SchM_Exit_Port_PORT_EXCLUSIVE_AREA_16>:
    9590:	b500      	push	{lr}
    9592:	b083      	sub	sp, #12
    9594:	f7f7 fa8a 	bl	aac <Sys_GetCoreID>
    9598:	4603      	mov	r3, r0
    959a:	9301      	str	r3, [sp, #4]
    959c:	4a0d      	ldr	r2, [pc, #52]	; (95d4 <SchM_Exit_Port_PORT_EXCLUSIVE_AREA_16+0x44>)
    959e:	9b01      	ldr	r3, [sp, #4]
    95a0:	f852 3023 	ldr.w	r3, [r2, r3, lsl #2]
    95a4:	1e5a      	subs	r2, r3, #1
    95a6:	490b      	ldr	r1, [pc, #44]	; (95d4 <SchM_Exit_Port_PORT_EXCLUSIVE_AREA_16+0x44>)
    95a8:	9b01      	ldr	r3, [sp, #4]
    95aa:	f841 2023 	str.w	r2, [r1, r3, lsl #2]
    95ae:	4a0a      	ldr	r2, [pc, #40]	; (95d8 <SchM_Exit_Port_PORT_EXCLUSIVE_AREA_16+0x48>)
    95b0:	9b01      	ldr	r3, [sp, #4]
    95b2:	f852 3023 	ldr.w	r3, [r2, r3, lsl #2]
    95b6:	f003 0301 	and.w	r3, r3, #1
    95ba:	2b00      	cmp	r3, #0
    95bc:	d106      	bne.n	95cc <SchM_Exit_Port_PORT_EXCLUSIVE_AREA_16+0x3c>
    95be:	4a05      	ldr	r2, [pc, #20]	; (95d4 <SchM_Exit_Port_PORT_EXCLUSIVE_AREA_16+0x44>)
    95c0:	9b01      	ldr	r3, [sp, #4]
    95c2:	f852 3023 	ldr.w	r3, [r2, r3, lsl #2]
    95c6:	2b00      	cmp	r3, #0
    95c8:	d100      	bne.n	95cc <SchM_Exit_Port_PORT_EXCLUSIVE_AREA_16+0x3c>
    95ca:	b662      	cpsie	i
    95cc:	bf00      	nop
    95ce:	b003      	add	sp, #12
    95d0:	f85d fb04 	ldr.w	pc, [sp], #4
    95d4:	1fff9180 	.word	0x1fff9180
    95d8:	1fff917c 	.word	0x1fff917c

000095dc <SchM_Enter_Port_PORT_EXCLUSIVE_AREA_17>:
    95dc:	b500      	push	{lr}
    95de:	b083      	sub	sp, #12
    95e0:	f7f7 fa64 	bl	aac <Sys_GetCoreID>
    95e4:	4603      	mov	r3, r0
    95e6:	9301      	str	r3, [sp, #4]
    95e8:	4a10      	ldr	r2, [pc, #64]	; (962c <SchM_Enter_Port_PORT_EXCLUSIVE_AREA_17+0x50>)
    95ea:	9b01      	ldr	r3, [sp, #4]
    95ec:	f852 3023 	ldr.w	r3, [r2, r3, lsl #2]
    95f0:	2b00      	cmp	r3, #0
    95f2:	d10d      	bne.n	9610 <SchM_Enter_Port_PORT_EXCLUSIVE_AREA_17+0x34>
    95f4:	f7f7 f981 	bl	8fa <Port_schm_read_msr>
    95f8:	9000      	str	r0, [sp, #0]
    95fa:	9b00      	ldr	r3, [sp, #0]
    95fc:	f003 0301 	and.w	r3, r3, #1
    9600:	2b00      	cmp	r3, #0
    9602:	d100      	bne.n	9606 <SchM_Enter_Port_PORT_EXCLUSIVE_AREA_17+0x2a>
    9604:	b672      	cpsid	i
    9606:	490a      	ldr	r1, [pc, #40]	; (9630 <SchM_Enter_Port_PORT_EXCLUSIVE_AREA_17+0x54>)
    9608:	9b01      	ldr	r3, [sp, #4]
    960a:	9a00      	ldr	r2, [sp, #0]
    960c:	f841 2023 	str.w	r2, [r1, r3, lsl #2]
    9610:	4a06      	ldr	r2, [pc, #24]	; (962c <SchM_Enter_Port_PORT_EXCLUSIVE_AREA_17+0x50>)
    9612:	9b01      	ldr	r3, [sp, #4]
    9614:	f852 3023 	ldr.w	r3, [r2, r3, lsl #2]
    9618:	1c5a      	adds	r2, r3, #1
    961a:	4904      	ldr	r1, [pc, #16]	; (962c <SchM_Enter_Port_PORT_EXCLUSIVE_AREA_17+0x50>)
    961c:	9b01      	ldr	r3, [sp, #4]
    961e:	f841 2023 	str.w	r2, [r1, r3, lsl #2]
    9622:	bf00      	nop
    9624:	b003      	add	sp, #12
    9626:	f85d fb04 	ldr.w	pc, [sp], #4
    962a:	bf00      	nop
    962c:	1fff9188 	.word	0x1fff9188
    9630:	1fff9184 	.word	0x1fff9184

00009634 <SchM_Exit_Port_PORT_EXCLUSIVE_AREA_17>:
    9634:	b500      	push	{lr}
    9636:	b083      	sub	sp, #12
    9638:	f7f7 fa38 	bl	aac <Sys_GetCoreID>
    963c:	4603      	mov	r3, r0
    963e:	9301      	str	r3, [sp, #4]
    9640:	4a0d      	ldr	r2, [pc, #52]	; (9678 <SchM_Exit_Port_PORT_EXCLUSIVE_AREA_17+0x44>)
    9642:	9b01      	ldr	r3, [sp, #4]
    9644:	f852 3023 	ldr.w	r3, [r2, r3, lsl #2]
    9648:	1e5a      	subs	r2, r3, #1
    964a:	490b      	ldr	r1, [pc, #44]	; (9678 <SchM_Exit_Port_PORT_EXCLUSIVE_AREA_17+0x44>)
    964c:	9b01      	ldr	r3, [sp, #4]
    964e:	f841 2023 	str.w	r2, [r1, r3, lsl #2]
    9652:	4a0a      	ldr	r2, [pc, #40]	; (967c <SchM_Exit_Port_PORT_EXCLUSIVE_AREA_17+0x48>)
    9654:	9b01      	ldr	r3, [sp, #4]
    9656:	f852 3023 	ldr.w	r3, [r2, r3, lsl #2]
    965a:	f003 0301 	and.w	r3, r3, #1
    965e:	2b00      	cmp	r3, #0
    9660:	d106      	bne.n	9670 <SchM_Exit_Port_PORT_EXCLUSIVE_AREA_17+0x3c>
    9662:	4a05      	ldr	r2, [pc, #20]	; (9678 <SchM_Exit_Port_PORT_EXCLUSIVE_AREA_17+0x44>)
    9664:	9b01      	ldr	r3, [sp, #4]
    9666:	f852 3023 	ldr.w	r3, [r2, r3, lsl #2]
    966a:	2b00      	cmp	r3, #0
    966c:	d100      	bne.n	9670 <SchM_Exit_Port_PORT_EXCLUSIVE_AREA_17+0x3c>
    966e:	b662      	cpsie	i
    9670:	bf00      	nop
    9672:	b003      	add	sp, #12
    9674:	f85d fb04 	ldr.w	pc, [sp], #4
    9678:	1fff9188 	.word	0x1fff9188
    967c:	1fff9184 	.word	0x1fff9184

00009680 <SchM_Enter_Port_PORT_EXCLUSIVE_AREA_18>:
    9680:	b500      	push	{lr}
    9682:	b083      	sub	sp, #12
    9684:	f7f7 fa12 	bl	aac <Sys_GetCoreID>
    9688:	4603      	mov	r3, r0
    968a:	9301      	str	r3, [sp, #4]
    968c:	4a10      	ldr	r2, [pc, #64]	; (96d0 <SchM_Enter_Port_PORT_EXCLUSIVE_AREA_18+0x50>)
    968e:	9b01      	ldr	r3, [sp, #4]
    9690:	f852 3023 	ldr.w	r3, [r2, r3, lsl #2]
    9694:	2b00      	cmp	r3, #0
    9696:	d10d      	bne.n	96b4 <SchM_Enter_Port_PORT_EXCLUSIVE_AREA_18+0x34>
    9698:	f7f7 f92f 	bl	8fa <Port_schm_read_msr>
    969c:	9000      	str	r0, [sp, #0]
    969e:	9b00      	ldr	r3, [sp, #0]
    96a0:	f003 0301 	and.w	r3, r3, #1
    96a4:	2b00      	cmp	r3, #0
    96a6:	d100      	bne.n	96aa <SchM_Enter_Port_PORT_EXCLUSIVE_AREA_18+0x2a>
    96a8:	b672      	cpsid	i
    96aa:	490a      	ldr	r1, [pc, #40]	; (96d4 <SchM_Enter_Port_PORT_EXCLUSIVE_AREA_18+0x54>)
    96ac:	9b01      	ldr	r3, [sp, #4]
    96ae:	9a00      	ldr	r2, [sp, #0]
    96b0:	f841 2023 	str.w	r2, [r1, r3, lsl #2]
    96b4:	4a06      	ldr	r2, [pc, #24]	; (96d0 <SchM_Enter_Port_PORT_EXCLUSIVE_AREA_18+0x50>)
    96b6:	9b01      	ldr	r3, [sp, #4]
    96b8:	f852 3023 	ldr.w	r3, [r2, r3, lsl #2]
    96bc:	1c5a      	adds	r2, r3, #1
    96be:	4904      	ldr	r1, [pc, #16]	; (96d0 <SchM_Enter_Port_PORT_EXCLUSIVE_AREA_18+0x50>)
    96c0:	9b01      	ldr	r3, [sp, #4]
    96c2:	f841 2023 	str.w	r2, [r1, r3, lsl #2]
    96c6:	bf00      	nop
    96c8:	b003      	add	sp, #12
    96ca:	f85d fb04 	ldr.w	pc, [sp], #4
    96ce:	bf00      	nop
    96d0:	1fff9190 	.word	0x1fff9190
    96d4:	1fff918c 	.word	0x1fff918c

000096d8 <SchM_Exit_Port_PORT_EXCLUSIVE_AREA_18>:
    96d8:	b500      	push	{lr}
    96da:	b083      	sub	sp, #12
    96dc:	f7f7 f9e6 	bl	aac <Sys_GetCoreID>
    96e0:	4603      	mov	r3, r0
    96e2:	9301      	str	r3, [sp, #4]
    96e4:	4a0d      	ldr	r2, [pc, #52]	; (971c <SchM_Exit_Port_PORT_EXCLUSIVE_AREA_18+0x44>)
    96e6:	9b01      	ldr	r3, [sp, #4]
    96e8:	f852 3023 	ldr.w	r3, [r2, r3, lsl #2]
    96ec:	1e5a      	subs	r2, r3, #1
    96ee:	490b      	ldr	r1, [pc, #44]	; (971c <SchM_Exit_Port_PORT_EXCLUSIVE_AREA_18+0x44>)
    96f0:	9b01      	ldr	r3, [sp, #4]
    96f2:	f841 2023 	str.w	r2, [r1, r3, lsl #2]
    96f6:	4a0a      	ldr	r2, [pc, #40]	; (9720 <SchM_Exit_Port_PORT_EXCLUSIVE_AREA_18+0x48>)
    96f8:	9b01      	ldr	r3, [sp, #4]
    96fa:	f852 3023 	ldr.w	r3, [r2, r3, lsl #2]
    96fe:	f003 0301 	and.w	r3, r3, #1
    9702:	2b00      	cmp	r3, #0
    9704:	d106      	bne.n	9714 <SchM_Exit_Port_PORT_EXCLUSIVE_AREA_18+0x3c>
    9706:	4a05      	ldr	r2, [pc, #20]	; (971c <SchM_Exit_Port_PORT_EXCLUSIVE_AREA_18+0x44>)
    9708:	9b01      	ldr	r3, [sp, #4]
    970a:	f852 3023 	ldr.w	r3, [r2, r3, lsl #2]
    970e:	2b00      	cmp	r3, #0
    9710:	d100      	bne.n	9714 <SchM_Exit_Port_PORT_EXCLUSIVE_AREA_18+0x3c>
    9712:	b662      	cpsie	i
    9714:	bf00      	nop
    9716:	b003      	add	sp, #12
    9718:	f85d fb04 	ldr.w	pc, [sp], #4
    971c:	1fff9190 	.word	0x1fff9190
    9720:	1fff918c 	.word	0x1fff918c

00009724 <SchM_Enter_Port_PORT_EXCLUSIVE_AREA_19>:
    9724:	b500      	push	{lr}
    9726:	b083      	sub	sp, #12
    9728:	f7f7 f9c0 	bl	aac <Sys_GetCoreID>
    972c:	4603      	mov	r3, r0
    972e:	9301      	str	r3, [sp, #4]
    9730:	4a10      	ldr	r2, [pc, #64]	; (9774 <SchM_Enter_Port_PORT_EXCLUSIVE_AREA_19+0x50>)
    9732:	9b01      	ldr	r3, [sp, #4]
    9734:	f852 3023 	ldr.w	r3, [r2, r3, lsl #2]
    9738:	2b00      	cmp	r3, #0
    973a:	d10d      	bne.n	9758 <SchM_Enter_Port_PORT_EXCLUSIVE_AREA_19+0x34>
    973c:	f7f7 f8dd 	bl	8fa <Port_schm_read_msr>
    9740:	9000      	str	r0, [sp, #0]
    9742:	9b00      	ldr	r3, [sp, #0]
    9744:	f003 0301 	and.w	r3, r3, #1
    9748:	2b00      	cmp	r3, #0
    974a:	d100      	bne.n	974e <SchM_Enter_Port_PORT_EXCLUSIVE_AREA_19+0x2a>
    974c:	b672      	cpsid	i
    974e:	490a      	ldr	r1, [pc, #40]	; (9778 <SchM_Enter_Port_PORT_EXCLUSIVE_AREA_19+0x54>)
    9750:	9b01      	ldr	r3, [sp, #4]
    9752:	9a00      	ldr	r2, [sp, #0]
    9754:	f841 2023 	str.w	r2, [r1, r3, lsl #2]
    9758:	4a06      	ldr	r2, [pc, #24]	; (9774 <SchM_Enter_Port_PORT_EXCLUSIVE_AREA_19+0x50>)
    975a:	9b01      	ldr	r3, [sp, #4]
    975c:	f852 3023 	ldr.w	r3, [r2, r3, lsl #2]
    9760:	1c5a      	adds	r2, r3, #1
    9762:	4904      	ldr	r1, [pc, #16]	; (9774 <SchM_Enter_Port_PORT_EXCLUSIVE_AREA_19+0x50>)
    9764:	9b01      	ldr	r3, [sp, #4]
    9766:	f841 2023 	str.w	r2, [r1, r3, lsl #2]
    976a:	bf00      	nop
    976c:	b003      	add	sp, #12
    976e:	f85d fb04 	ldr.w	pc, [sp], #4
    9772:	bf00      	nop
    9774:	1fff9198 	.word	0x1fff9198
    9778:	1fff9194 	.word	0x1fff9194

0000977c <SchM_Exit_Port_PORT_EXCLUSIVE_AREA_19>:
    977c:	b500      	push	{lr}
    977e:	b083      	sub	sp, #12
    9780:	f7f7 f994 	bl	aac <Sys_GetCoreID>
    9784:	4603      	mov	r3, r0
    9786:	9301      	str	r3, [sp, #4]
    9788:	4a0d      	ldr	r2, [pc, #52]	; (97c0 <SchM_Exit_Port_PORT_EXCLUSIVE_AREA_19+0x44>)
    978a:	9b01      	ldr	r3, [sp, #4]
    978c:	f852 3023 	ldr.w	r3, [r2, r3, lsl #2]
    9790:	1e5a      	subs	r2, r3, #1
    9792:	490b      	ldr	r1, [pc, #44]	; (97c0 <SchM_Exit_Port_PORT_EXCLUSIVE_AREA_19+0x44>)
    9794:	9b01      	ldr	r3, [sp, #4]
    9796:	f841 2023 	str.w	r2, [r1, r3, lsl #2]
    979a:	4a0a      	ldr	r2, [pc, #40]	; (97c4 <SchM_Exit_Port_PORT_EXCLUSIVE_AREA_19+0x48>)
    979c:	9b01      	ldr	r3, [sp, #4]
    979e:	f852 3023 	ldr.w	r3, [r2, r3, lsl #2]
    97a2:	f003 0301 	and.w	r3, r3, #1
    97a6:	2b00      	cmp	r3, #0
    97a8:	d106      	bne.n	97b8 <SchM_Exit_Port_PORT_EXCLUSIVE_AREA_19+0x3c>
    97aa:	4a05      	ldr	r2, [pc, #20]	; (97c0 <SchM_Exit_Port_PORT_EXCLUSIVE_AREA_19+0x44>)
    97ac:	9b01      	ldr	r3, [sp, #4]
    97ae:	f852 3023 	ldr.w	r3, [r2, r3, lsl #2]
    97b2:	2b00      	cmp	r3, #0
    97b4:	d100      	bne.n	97b8 <SchM_Exit_Port_PORT_EXCLUSIVE_AREA_19+0x3c>
    97b6:	b662      	cpsie	i
    97b8:	bf00      	nop
    97ba:	b003      	add	sp, #12
    97bc:	f85d fb04 	ldr.w	pc, [sp], #4
    97c0:	1fff9198 	.word	0x1fff9198
    97c4:	1fff9194 	.word	0x1fff9194

000097c8 <SchM_Enter_Port_PORT_EXCLUSIVE_AREA_20>:
    97c8:	b500      	push	{lr}
    97ca:	b083      	sub	sp, #12
    97cc:	f7f7 f96e 	bl	aac <Sys_GetCoreID>
    97d0:	4603      	mov	r3, r0
    97d2:	9301      	str	r3, [sp, #4]
    97d4:	4a10      	ldr	r2, [pc, #64]	; (9818 <SchM_Enter_Port_PORT_EXCLUSIVE_AREA_20+0x50>)
    97d6:	9b01      	ldr	r3, [sp, #4]
    97d8:	f852 3023 	ldr.w	r3, [r2, r3, lsl #2]
    97dc:	2b00      	cmp	r3, #0
    97de:	d10d      	bne.n	97fc <SchM_Enter_Port_PORT_EXCLUSIVE_AREA_20+0x34>
    97e0:	f7f7 f88b 	bl	8fa <Port_schm_read_msr>
    97e4:	9000      	str	r0, [sp, #0]
    97e6:	9b00      	ldr	r3, [sp, #0]
    97e8:	f003 0301 	and.w	r3, r3, #1
    97ec:	2b00      	cmp	r3, #0
    97ee:	d100      	bne.n	97f2 <SchM_Enter_Port_PORT_EXCLUSIVE_AREA_20+0x2a>
    97f0:	b672      	cpsid	i
    97f2:	490a      	ldr	r1, [pc, #40]	; (981c <SchM_Enter_Port_PORT_EXCLUSIVE_AREA_20+0x54>)
    97f4:	9b01      	ldr	r3, [sp, #4]
    97f6:	9a00      	ldr	r2, [sp, #0]
    97f8:	f841 2023 	str.w	r2, [r1, r3, lsl #2]
    97fc:	4a06      	ldr	r2, [pc, #24]	; (9818 <SchM_Enter_Port_PORT_EXCLUSIVE_AREA_20+0x50>)
    97fe:	9b01      	ldr	r3, [sp, #4]
    9800:	f852 3023 	ldr.w	r3, [r2, r3, lsl #2]
    9804:	1c5a      	adds	r2, r3, #1
    9806:	4904      	ldr	r1, [pc, #16]	; (9818 <SchM_Enter_Port_PORT_EXCLUSIVE_AREA_20+0x50>)
    9808:	9b01      	ldr	r3, [sp, #4]
    980a:	f841 2023 	str.w	r2, [r1, r3, lsl #2]
    980e:	bf00      	nop
    9810:	b003      	add	sp, #12
    9812:	f85d fb04 	ldr.w	pc, [sp], #4
    9816:	bf00      	nop
    9818:	1fff91a0 	.word	0x1fff91a0
    981c:	1fff919c 	.word	0x1fff919c

00009820 <SchM_Exit_Port_PORT_EXCLUSIVE_AREA_20>:
    9820:	b500      	push	{lr}
    9822:	b083      	sub	sp, #12
    9824:	f7f7 f942 	bl	aac <Sys_GetCoreID>
    9828:	4603      	mov	r3, r0
    982a:	9301      	str	r3, [sp, #4]
    982c:	4a0d      	ldr	r2, [pc, #52]	; (9864 <SchM_Exit_Port_PORT_EXCLUSIVE_AREA_20+0x44>)
    982e:	9b01      	ldr	r3, [sp, #4]
    9830:	f852 3023 	ldr.w	r3, [r2, r3, lsl #2]
    9834:	1e5a      	subs	r2, r3, #1
    9836:	490b      	ldr	r1, [pc, #44]	; (9864 <SchM_Exit_Port_PORT_EXCLUSIVE_AREA_20+0x44>)
    9838:	9b01      	ldr	r3, [sp, #4]
    983a:	f841 2023 	str.w	r2, [r1, r3, lsl #2]
    983e:	4a0a      	ldr	r2, [pc, #40]	; (9868 <SchM_Exit_Port_PORT_EXCLUSIVE_AREA_20+0x48>)
    9840:	9b01      	ldr	r3, [sp, #4]
    9842:	f852 3023 	ldr.w	r3, [r2, r3, lsl #2]
    9846:	f003 0301 	and.w	r3, r3, #1
    984a:	2b00      	cmp	r3, #0
    984c:	d106      	bne.n	985c <SchM_Exit_Port_PORT_EXCLUSIVE_AREA_20+0x3c>
    984e:	4a05      	ldr	r2, [pc, #20]	; (9864 <SchM_Exit_Port_PORT_EXCLUSIVE_AREA_20+0x44>)
    9850:	9b01      	ldr	r3, [sp, #4]
    9852:	f852 3023 	ldr.w	r3, [r2, r3, lsl #2]
    9856:	2b00      	cmp	r3, #0
    9858:	d100      	bne.n	985c <SchM_Exit_Port_PORT_EXCLUSIVE_AREA_20+0x3c>
    985a:	b662      	cpsie	i
    985c:	bf00      	nop
    985e:	b003      	add	sp, #12
    9860:	f85d fb04 	ldr.w	pc, [sp], #4
    9864:	1fff91a0 	.word	0x1fff91a0
    9868:	1fff919c 	.word	0x1fff919c

0000986c <SchM_Enter_Port_PORT_EXCLUSIVE_AREA_21>:
    986c:	b500      	push	{lr}
    986e:	b083      	sub	sp, #12
    9870:	f7f7 f91c 	bl	aac <Sys_GetCoreID>
    9874:	4603      	mov	r3, r0
    9876:	9301      	str	r3, [sp, #4]
    9878:	4a10      	ldr	r2, [pc, #64]	; (98bc <SchM_Enter_Port_PORT_EXCLUSIVE_AREA_21+0x50>)
    987a:	9b01      	ldr	r3, [sp, #4]
    987c:	f852 3023 	ldr.w	r3, [r2, r3, lsl #2]
    9880:	2b00      	cmp	r3, #0
    9882:	d10d      	bne.n	98a0 <SchM_Enter_Port_PORT_EXCLUSIVE_AREA_21+0x34>
    9884:	f7f7 f839 	bl	8fa <Port_schm_read_msr>
    9888:	9000      	str	r0, [sp, #0]
    988a:	9b00      	ldr	r3, [sp, #0]
    988c:	f003 0301 	and.w	r3, r3, #1
    9890:	2b00      	cmp	r3, #0
    9892:	d100      	bne.n	9896 <SchM_Enter_Port_PORT_EXCLUSIVE_AREA_21+0x2a>
    9894:	b672      	cpsid	i
    9896:	490a      	ldr	r1, [pc, #40]	; (98c0 <SchM_Enter_Port_PORT_EXCLUSIVE_AREA_21+0x54>)
    9898:	9b01      	ldr	r3, [sp, #4]
    989a:	9a00      	ldr	r2, [sp, #0]
    989c:	f841 2023 	str.w	r2, [r1, r3, lsl #2]
    98a0:	4a06      	ldr	r2, [pc, #24]	; (98bc <SchM_Enter_Port_PORT_EXCLUSIVE_AREA_21+0x50>)
    98a2:	9b01      	ldr	r3, [sp, #4]
    98a4:	f852 3023 	ldr.w	r3, [r2, r3, lsl #2]
    98a8:	1c5a      	adds	r2, r3, #1
    98aa:	4904      	ldr	r1, [pc, #16]	; (98bc <SchM_Enter_Port_PORT_EXCLUSIVE_AREA_21+0x50>)
    98ac:	9b01      	ldr	r3, [sp, #4]
    98ae:	f841 2023 	str.w	r2, [r1, r3, lsl #2]
    98b2:	bf00      	nop
    98b4:	b003      	add	sp, #12
    98b6:	f85d fb04 	ldr.w	pc, [sp], #4
    98ba:	bf00      	nop
    98bc:	1fff91a8 	.word	0x1fff91a8
    98c0:	1fff91a4 	.word	0x1fff91a4

000098c4 <SchM_Exit_Port_PORT_EXCLUSIVE_AREA_21>:
    98c4:	b500      	push	{lr}
    98c6:	b083      	sub	sp, #12
    98c8:	f7f7 f8f0 	bl	aac <Sys_GetCoreID>
    98cc:	4603      	mov	r3, r0
    98ce:	9301      	str	r3, [sp, #4]
    98d0:	4a0d      	ldr	r2, [pc, #52]	; (9908 <SchM_Exit_Port_PORT_EXCLUSIVE_AREA_21+0x44>)
    98d2:	9b01      	ldr	r3, [sp, #4]
    98d4:	f852 3023 	ldr.w	r3, [r2, r3, lsl #2]
    98d8:	1e5a      	subs	r2, r3, #1
    98da:	490b      	ldr	r1, [pc, #44]	; (9908 <SchM_Exit_Port_PORT_EXCLUSIVE_AREA_21+0x44>)
    98dc:	9b01      	ldr	r3, [sp, #4]
    98de:	f841 2023 	str.w	r2, [r1, r3, lsl #2]
    98e2:	4a0a      	ldr	r2, [pc, #40]	; (990c <SchM_Exit_Port_PORT_EXCLUSIVE_AREA_21+0x48>)
    98e4:	9b01      	ldr	r3, [sp, #4]
    98e6:	f852 3023 	ldr.w	r3, [r2, r3, lsl #2]
    98ea:	f003 0301 	and.w	r3, r3, #1
    98ee:	2b00      	cmp	r3, #0
    98f0:	d106      	bne.n	9900 <SchM_Exit_Port_PORT_EXCLUSIVE_AREA_21+0x3c>
    98f2:	4a05      	ldr	r2, [pc, #20]	; (9908 <SchM_Exit_Port_PORT_EXCLUSIVE_AREA_21+0x44>)
    98f4:	9b01      	ldr	r3, [sp, #4]
    98f6:	f852 3023 	ldr.w	r3, [r2, r3, lsl #2]
    98fa:	2b00      	cmp	r3, #0
    98fc:	d100      	bne.n	9900 <SchM_Exit_Port_PORT_EXCLUSIVE_AREA_21+0x3c>
    98fe:	b662      	cpsie	i
    9900:	bf00      	nop
    9902:	b003      	add	sp, #12
    9904:	f85d fb04 	ldr.w	pc, [sp], #4
    9908:	1fff91a8 	.word	0x1fff91a8
    990c:	1fff91a4 	.word	0x1fff91a4

00009910 <SchM_Enter_Port_PORT_EXCLUSIVE_AREA_22>:
    9910:	b500      	push	{lr}
    9912:	b083      	sub	sp, #12
    9914:	f7f7 f8ca 	bl	aac <Sys_GetCoreID>
    9918:	4603      	mov	r3, r0
    991a:	9301      	str	r3, [sp, #4]
    991c:	4a10      	ldr	r2, [pc, #64]	; (9960 <SchM_Enter_Port_PORT_EXCLUSIVE_AREA_22+0x50>)
    991e:	9b01      	ldr	r3, [sp, #4]
    9920:	f852 3023 	ldr.w	r3, [r2, r3, lsl #2]
    9924:	2b00      	cmp	r3, #0
    9926:	d10d      	bne.n	9944 <SchM_Enter_Port_PORT_EXCLUSIVE_AREA_22+0x34>
    9928:	f7f6 ffe7 	bl	8fa <Port_schm_read_msr>
    992c:	9000      	str	r0, [sp, #0]
    992e:	9b00      	ldr	r3, [sp, #0]
    9930:	f003 0301 	and.w	r3, r3, #1
    9934:	2b00      	cmp	r3, #0
    9936:	d100      	bne.n	993a <SchM_Enter_Port_PORT_EXCLUSIVE_AREA_22+0x2a>
    9938:	b672      	cpsid	i
    993a:	490a      	ldr	r1, [pc, #40]	; (9964 <SchM_Enter_Port_PORT_EXCLUSIVE_AREA_22+0x54>)
    993c:	9b01      	ldr	r3, [sp, #4]
    993e:	9a00      	ldr	r2, [sp, #0]
    9940:	f841 2023 	str.w	r2, [r1, r3, lsl #2]
    9944:	4a06      	ldr	r2, [pc, #24]	; (9960 <SchM_Enter_Port_PORT_EXCLUSIVE_AREA_22+0x50>)
    9946:	9b01      	ldr	r3, [sp, #4]
    9948:	f852 3023 	ldr.w	r3, [r2, r3, lsl #2]
    994c:	1c5a      	adds	r2, r3, #1
    994e:	4904      	ldr	r1, [pc, #16]	; (9960 <SchM_Enter_Port_PORT_EXCLUSIVE_AREA_22+0x50>)
    9950:	9b01      	ldr	r3, [sp, #4]
    9952:	f841 2023 	str.w	r2, [r1, r3, lsl #2]
    9956:	bf00      	nop
    9958:	b003      	add	sp, #12
    995a:	f85d fb04 	ldr.w	pc, [sp], #4
    995e:	bf00      	nop
    9960:	1fff91b0 	.word	0x1fff91b0
    9964:	1fff91ac 	.word	0x1fff91ac

00009968 <SchM_Exit_Port_PORT_EXCLUSIVE_AREA_22>:
    9968:	b500      	push	{lr}
    996a:	b083      	sub	sp, #12
    996c:	f7f7 f89e 	bl	aac <Sys_GetCoreID>
    9970:	4603      	mov	r3, r0
    9972:	9301      	str	r3, [sp, #4]
    9974:	4a0d      	ldr	r2, [pc, #52]	; (99ac <SchM_Exit_Port_PORT_EXCLUSIVE_AREA_22+0x44>)
    9976:	9b01      	ldr	r3, [sp, #4]
    9978:	f852 3023 	ldr.w	r3, [r2, r3, lsl #2]
    997c:	1e5a      	subs	r2, r3, #1
    997e:	490b      	ldr	r1, [pc, #44]	; (99ac <SchM_Exit_Port_PORT_EXCLUSIVE_AREA_22+0x44>)
    9980:	9b01      	ldr	r3, [sp, #4]
    9982:	f841 2023 	str.w	r2, [r1, r3, lsl #2]
    9986:	4a0a      	ldr	r2, [pc, #40]	; (99b0 <SchM_Exit_Port_PORT_EXCLUSIVE_AREA_22+0x48>)
    9988:	9b01      	ldr	r3, [sp, #4]
    998a:	f852 3023 	ldr.w	r3, [r2, r3, lsl #2]
    998e:	f003 0301 	and.w	r3, r3, #1
    9992:	2b00      	cmp	r3, #0
    9994:	d106      	bne.n	99a4 <SchM_Exit_Port_PORT_EXCLUSIVE_AREA_22+0x3c>
    9996:	4a05      	ldr	r2, [pc, #20]	; (99ac <SchM_Exit_Port_PORT_EXCLUSIVE_AREA_22+0x44>)
    9998:	9b01      	ldr	r3, [sp, #4]
    999a:	f852 3023 	ldr.w	r3, [r2, r3, lsl #2]
    999e:	2b00      	cmp	r3, #0
    99a0:	d100      	bne.n	99a4 <SchM_Exit_Port_PORT_EXCLUSIVE_AREA_22+0x3c>
    99a2:	b662      	cpsie	i
    99a4:	bf00      	nop
    99a6:	b003      	add	sp, #12
    99a8:	f85d fb04 	ldr.w	pc, [sp], #4
    99ac:	1fff91b0 	.word	0x1fff91b0
    99b0:	1fff91ac 	.word	0x1fff91ac

000099b4 <SchM_Enter_Port_PORT_EXCLUSIVE_AREA_23>:
    99b4:	b500      	push	{lr}
    99b6:	b083      	sub	sp, #12
    99b8:	f7f7 f878 	bl	aac <Sys_GetCoreID>
    99bc:	4603      	mov	r3, r0
    99be:	9301      	str	r3, [sp, #4]
    99c0:	4a10      	ldr	r2, [pc, #64]	; (9a04 <SchM_Enter_Port_PORT_EXCLUSIVE_AREA_23+0x50>)
    99c2:	9b01      	ldr	r3, [sp, #4]
    99c4:	f852 3023 	ldr.w	r3, [r2, r3, lsl #2]
    99c8:	2b00      	cmp	r3, #0
    99ca:	d10d      	bne.n	99e8 <SchM_Enter_Port_PORT_EXCLUSIVE_AREA_23+0x34>
    99cc:	f7f6 ff95 	bl	8fa <Port_schm_read_msr>
    99d0:	9000      	str	r0, [sp, #0]
    99d2:	9b00      	ldr	r3, [sp, #0]
    99d4:	f003 0301 	and.w	r3, r3, #1
    99d8:	2b00      	cmp	r3, #0
    99da:	d100      	bne.n	99de <SchM_Enter_Port_PORT_EXCLUSIVE_AREA_23+0x2a>
    99dc:	b672      	cpsid	i
    99de:	490a      	ldr	r1, [pc, #40]	; (9a08 <SchM_Enter_Port_PORT_EXCLUSIVE_AREA_23+0x54>)
    99e0:	9b01      	ldr	r3, [sp, #4]
    99e2:	9a00      	ldr	r2, [sp, #0]
    99e4:	f841 2023 	str.w	r2, [r1, r3, lsl #2]
    99e8:	4a06      	ldr	r2, [pc, #24]	; (9a04 <SchM_Enter_Port_PORT_EXCLUSIVE_AREA_23+0x50>)
    99ea:	9b01      	ldr	r3, [sp, #4]
    99ec:	f852 3023 	ldr.w	r3, [r2, r3, lsl #2]
    99f0:	1c5a      	adds	r2, r3, #1
    99f2:	4904      	ldr	r1, [pc, #16]	; (9a04 <SchM_Enter_Port_PORT_EXCLUSIVE_AREA_23+0x50>)
    99f4:	9b01      	ldr	r3, [sp, #4]
    99f6:	f841 2023 	str.w	r2, [r1, r3, lsl #2]
    99fa:	bf00      	nop
    99fc:	b003      	add	sp, #12
    99fe:	f85d fb04 	ldr.w	pc, [sp], #4
    9a02:	bf00      	nop
    9a04:	1fff91b8 	.word	0x1fff91b8
    9a08:	1fff91b4 	.word	0x1fff91b4

00009a0c <SchM_Exit_Port_PORT_EXCLUSIVE_AREA_23>:
    9a0c:	b500      	push	{lr}
    9a0e:	b083      	sub	sp, #12
    9a10:	f7f7 f84c 	bl	aac <Sys_GetCoreID>
    9a14:	4603      	mov	r3, r0
    9a16:	9301      	str	r3, [sp, #4]
    9a18:	4a0d      	ldr	r2, [pc, #52]	; (9a50 <SchM_Exit_Port_PORT_EXCLUSIVE_AREA_23+0x44>)
    9a1a:	9b01      	ldr	r3, [sp, #4]
    9a1c:	f852 3023 	ldr.w	r3, [r2, r3, lsl #2]
    9a20:	1e5a      	subs	r2, r3, #1
    9a22:	490b      	ldr	r1, [pc, #44]	; (9a50 <SchM_Exit_Port_PORT_EXCLUSIVE_AREA_23+0x44>)
    9a24:	9b01      	ldr	r3, [sp, #4]
    9a26:	f841 2023 	str.w	r2, [r1, r3, lsl #2]
    9a2a:	4a0a      	ldr	r2, [pc, #40]	; (9a54 <SchM_Exit_Port_PORT_EXCLUSIVE_AREA_23+0x48>)
    9a2c:	9b01      	ldr	r3, [sp, #4]
    9a2e:	f852 3023 	ldr.w	r3, [r2, r3, lsl #2]
    9a32:	f003 0301 	and.w	r3, r3, #1
    9a36:	2b00      	cmp	r3, #0
    9a38:	d106      	bne.n	9a48 <SchM_Exit_Port_PORT_EXCLUSIVE_AREA_23+0x3c>
    9a3a:	4a05      	ldr	r2, [pc, #20]	; (9a50 <SchM_Exit_Port_PORT_EXCLUSIVE_AREA_23+0x44>)
    9a3c:	9b01      	ldr	r3, [sp, #4]
    9a3e:	f852 3023 	ldr.w	r3, [r2, r3, lsl #2]
    9a42:	2b00      	cmp	r3, #0
    9a44:	d100      	bne.n	9a48 <SchM_Exit_Port_PORT_EXCLUSIVE_AREA_23+0x3c>
    9a46:	b662      	cpsie	i
    9a48:	bf00      	nop
    9a4a:	b003      	add	sp, #12
    9a4c:	f85d fb04 	ldr.w	pc, [sp], #4
    9a50:	1fff91b8 	.word	0x1fff91b8
    9a54:	1fff91b4 	.word	0x1fff91b4

00009a58 <SchM_Enter_Port_PORT_EXCLUSIVE_AREA_24>:
    9a58:	b500      	push	{lr}
    9a5a:	b083      	sub	sp, #12
    9a5c:	f7f7 f826 	bl	aac <Sys_GetCoreID>
    9a60:	4603      	mov	r3, r0
    9a62:	9301      	str	r3, [sp, #4]
    9a64:	4a10      	ldr	r2, [pc, #64]	; (9aa8 <SchM_Enter_Port_PORT_EXCLUSIVE_AREA_24+0x50>)
    9a66:	9b01      	ldr	r3, [sp, #4]
    9a68:	f852 3023 	ldr.w	r3, [r2, r3, lsl #2]
    9a6c:	2b00      	cmp	r3, #0
    9a6e:	d10d      	bne.n	9a8c <SchM_Enter_Port_PORT_EXCLUSIVE_AREA_24+0x34>
    9a70:	f7f6 ff43 	bl	8fa <Port_schm_read_msr>
    9a74:	9000      	str	r0, [sp, #0]
    9a76:	9b00      	ldr	r3, [sp, #0]
    9a78:	f003 0301 	and.w	r3, r3, #1
    9a7c:	2b00      	cmp	r3, #0
    9a7e:	d100      	bne.n	9a82 <SchM_Enter_Port_PORT_EXCLUSIVE_AREA_24+0x2a>
    9a80:	b672      	cpsid	i
    9a82:	490a      	ldr	r1, [pc, #40]	; (9aac <SchM_Enter_Port_PORT_EXCLUSIVE_AREA_24+0x54>)
    9a84:	9b01      	ldr	r3, [sp, #4]
    9a86:	9a00      	ldr	r2, [sp, #0]
    9a88:	f841 2023 	str.w	r2, [r1, r3, lsl #2]
    9a8c:	4a06      	ldr	r2, [pc, #24]	; (9aa8 <SchM_Enter_Port_PORT_EXCLUSIVE_AREA_24+0x50>)
    9a8e:	9b01      	ldr	r3, [sp, #4]
    9a90:	f852 3023 	ldr.w	r3, [r2, r3, lsl #2]
    9a94:	1c5a      	adds	r2, r3, #1
    9a96:	4904      	ldr	r1, [pc, #16]	; (9aa8 <SchM_Enter_Port_PORT_EXCLUSIVE_AREA_24+0x50>)
    9a98:	9b01      	ldr	r3, [sp, #4]
    9a9a:	f841 2023 	str.w	r2, [r1, r3, lsl #2]
    9a9e:	bf00      	nop
    9aa0:	b003      	add	sp, #12
    9aa2:	f85d fb04 	ldr.w	pc, [sp], #4
    9aa6:	bf00      	nop
    9aa8:	1fff91c0 	.word	0x1fff91c0
    9aac:	1fff91bc 	.word	0x1fff91bc

00009ab0 <SchM_Exit_Port_PORT_EXCLUSIVE_AREA_24>:
    9ab0:	b500      	push	{lr}
    9ab2:	b083      	sub	sp, #12
    9ab4:	f7f6 fffa 	bl	aac <Sys_GetCoreID>
    9ab8:	4603      	mov	r3, r0
    9aba:	9301      	str	r3, [sp, #4]
    9abc:	4a0d      	ldr	r2, [pc, #52]	; (9af4 <SchM_Exit_Port_PORT_EXCLUSIVE_AREA_24+0x44>)
    9abe:	9b01      	ldr	r3, [sp, #4]
    9ac0:	f852 3023 	ldr.w	r3, [r2, r3, lsl #2]
    9ac4:	1e5a      	subs	r2, r3, #1
    9ac6:	490b      	ldr	r1, [pc, #44]	; (9af4 <SchM_Exit_Port_PORT_EXCLUSIVE_AREA_24+0x44>)
    9ac8:	9b01      	ldr	r3, [sp, #4]
    9aca:	f841 2023 	str.w	r2, [r1, r3, lsl #2]
    9ace:	4a0a      	ldr	r2, [pc, #40]	; (9af8 <SchM_Exit_Port_PORT_EXCLUSIVE_AREA_24+0x48>)
    9ad0:	9b01      	ldr	r3, [sp, #4]
    9ad2:	f852 3023 	ldr.w	r3, [r2, r3, lsl #2]
    9ad6:	f003 0301 	and.w	r3, r3, #1
    9ada:	2b00      	cmp	r3, #0
    9adc:	d106      	bne.n	9aec <SchM_Exit_Port_PORT_EXCLUSIVE_AREA_24+0x3c>
    9ade:	4a05      	ldr	r2, [pc, #20]	; (9af4 <SchM_Exit_Port_PORT_EXCLUSIVE_AREA_24+0x44>)
    9ae0:	9b01      	ldr	r3, [sp, #4]
    9ae2:	f852 3023 	ldr.w	r3, [r2, r3, lsl #2]
    9ae6:	2b00      	cmp	r3, #0
    9ae8:	d100      	bne.n	9aec <SchM_Exit_Port_PORT_EXCLUSIVE_AREA_24+0x3c>
    9aea:	b662      	cpsie	i
    9aec:	bf00      	nop
    9aee:	b003      	add	sp, #12
    9af0:	f85d fb04 	ldr.w	pc, [sp], #4
    9af4:	1fff91c0 	.word	0x1fff91c0
    9af8:	1fff91bc 	.word	0x1fff91bc

00009afc <SchM_Enter_Port_PORT_EXCLUSIVE_AREA_25>:
    9afc:	b500      	push	{lr}
    9afe:	b083      	sub	sp, #12
    9b00:	f7f6 ffd4 	bl	aac <Sys_GetCoreID>
    9b04:	4603      	mov	r3, r0
    9b06:	9301      	str	r3, [sp, #4]
    9b08:	4a10      	ldr	r2, [pc, #64]	; (9b4c <SchM_Enter_Port_PORT_EXCLUSIVE_AREA_25+0x50>)
    9b0a:	9b01      	ldr	r3, [sp, #4]
    9b0c:	f852 3023 	ldr.w	r3, [r2, r3, lsl #2]
    9b10:	2b00      	cmp	r3, #0
    9b12:	d10d      	bne.n	9b30 <SchM_Enter_Port_PORT_EXCLUSIVE_AREA_25+0x34>
    9b14:	f7f6 fef1 	bl	8fa <Port_schm_read_msr>
    9b18:	9000      	str	r0, [sp, #0]
    9b1a:	9b00      	ldr	r3, [sp, #0]
    9b1c:	f003 0301 	and.w	r3, r3, #1
    9b20:	2b00      	cmp	r3, #0
    9b22:	d100      	bne.n	9b26 <SchM_Enter_Port_PORT_EXCLUSIVE_AREA_25+0x2a>
    9b24:	b672      	cpsid	i
    9b26:	490a      	ldr	r1, [pc, #40]	; (9b50 <SchM_Enter_Port_PORT_EXCLUSIVE_AREA_25+0x54>)
    9b28:	9b01      	ldr	r3, [sp, #4]
    9b2a:	9a00      	ldr	r2, [sp, #0]
    9b2c:	f841 2023 	str.w	r2, [r1, r3, lsl #2]
    9b30:	4a06      	ldr	r2, [pc, #24]	; (9b4c <SchM_Enter_Port_PORT_EXCLUSIVE_AREA_25+0x50>)
    9b32:	9b01      	ldr	r3, [sp, #4]
    9b34:	f852 3023 	ldr.w	r3, [r2, r3, lsl #2]
    9b38:	1c5a      	adds	r2, r3, #1
    9b3a:	4904      	ldr	r1, [pc, #16]	; (9b4c <SchM_Enter_Port_PORT_EXCLUSIVE_AREA_25+0x50>)
    9b3c:	9b01      	ldr	r3, [sp, #4]
    9b3e:	f841 2023 	str.w	r2, [r1, r3, lsl #2]
    9b42:	bf00      	nop
    9b44:	b003      	add	sp, #12
    9b46:	f85d fb04 	ldr.w	pc, [sp], #4
    9b4a:	bf00      	nop
    9b4c:	1fff91c8 	.word	0x1fff91c8
    9b50:	1fff91c4 	.word	0x1fff91c4

00009b54 <SchM_Exit_Port_PORT_EXCLUSIVE_AREA_25>:
    9b54:	b500      	push	{lr}
    9b56:	b083      	sub	sp, #12
    9b58:	f7f6 ffa8 	bl	aac <Sys_GetCoreID>
    9b5c:	4603      	mov	r3, r0
    9b5e:	9301      	str	r3, [sp, #4]
    9b60:	4a0d      	ldr	r2, [pc, #52]	; (9b98 <SchM_Exit_Port_PORT_EXCLUSIVE_AREA_25+0x44>)
    9b62:	9b01      	ldr	r3, [sp, #4]
    9b64:	f852 3023 	ldr.w	r3, [r2, r3, lsl #2]
    9b68:	1e5a      	subs	r2, r3, #1
    9b6a:	490b      	ldr	r1, [pc, #44]	; (9b98 <SchM_Exit_Port_PORT_EXCLUSIVE_AREA_25+0x44>)
    9b6c:	9b01      	ldr	r3, [sp, #4]
    9b6e:	f841 2023 	str.w	r2, [r1, r3, lsl #2]
    9b72:	4a0a      	ldr	r2, [pc, #40]	; (9b9c <SchM_Exit_Port_PORT_EXCLUSIVE_AREA_25+0x48>)
    9b74:	9b01      	ldr	r3, [sp, #4]
    9b76:	f852 3023 	ldr.w	r3, [r2, r3, lsl #2]
    9b7a:	f003 0301 	and.w	r3, r3, #1
    9b7e:	2b00      	cmp	r3, #0
    9b80:	d106      	bne.n	9b90 <SchM_Exit_Port_PORT_EXCLUSIVE_AREA_25+0x3c>
    9b82:	4a05      	ldr	r2, [pc, #20]	; (9b98 <SchM_Exit_Port_PORT_EXCLUSIVE_AREA_25+0x44>)
    9b84:	9b01      	ldr	r3, [sp, #4]
    9b86:	f852 3023 	ldr.w	r3, [r2, r3, lsl #2]
    9b8a:	2b00      	cmp	r3, #0
    9b8c:	d100      	bne.n	9b90 <SchM_Exit_Port_PORT_EXCLUSIVE_AREA_25+0x3c>
    9b8e:	b662      	cpsie	i
    9b90:	bf00      	nop
    9b92:	b003      	add	sp, #12
    9b94:	f85d fb04 	ldr.w	pc, [sp], #4
    9b98:	1fff91c8 	.word	0x1fff91c8
    9b9c:	1fff91c4 	.word	0x1fff91c4

00009ba0 <SchM_Enter_Port_PORT_EXCLUSIVE_AREA_26>:
    9ba0:	b500      	push	{lr}
    9ba2:	b083      	sub	sp, #12
    9ba4:	f7f6 ff82 	bl	aac <Sys_GetCoreID>
    9ba8:	4603      	mov	r3, r0
    9baa:	9301      	str	r3, [sp, #4]
    9bac:	4a10      	ldr	r2, [pc, #64]	; (9bf0 <SchM_Enter_Port_PORT_EXCLUSIVE_AREA_26+0x50>)
    9bae:	9b01      	ldr	r3, [sp, #4]
    9bb0:	f852 3023 	ldr.w	r3, [r2, r3, lsl #2]
    9bb4:	2b00      	cmp	r3, #0
    9bb6:	d10d      	bne.n	9bd4 <SchM_Enter_Port_PORT_EXCLUSIVE_AREA_26+0x34>
    9bb8:	f7f6 fe9f 	bl	8fa <Port_schm_read_msr>
    9bbc:	9000      	str	r0, [sp, #0]
    9bbe:	9b00      	ldr	r3, [sp, #0]
    9bc0:	f003 0301 	and.w	r3, r3, #1
    9bc4:	2b00      	cmp	r3, #0
    9bc6:	d100      	bne.n	9bca <SchM_Enter_Port_PORT_EXCLUSIVE_AREA_26+0x2a>
    9bc8:	b672      	cpsid	i
    9bca:	490a      	ldr	r1, [pc, #40]	; (9bf4 <SchM_Enter_Port_PORT_EXCLUSIVE_AREA_26+0x54>)
    9bcc:	9b01      	ldr	r3, [sp, #4]
    9bce:	9a00      	ldr	r2, [sp, #0]
    9bd0:	f841 2023 	str.w	r2, [r1, r3, lsl #2]
    9bd4:	4a06      	ldr	r2, [pc, #24]	; (9bf0 <SchM_Enter_Port_PORT_EXCLUSIVE_AREA_26+0x50>)
    9bd6:	9b01      	ldr	r3, [sp, #4]
    9bd8:	f852 3023 	ldr.w	r3, [r2, r3, lsl #2]
    9bdc:	1c5a      	adds	r2, r3, #1
    9bde:	4904      	ldr	r1, [pc, #16]	; (9bf0 <SchM_Enter_Port_PORT_EXCLUSIVE_AREA_26+0x50>)
    9be0:	9b01      	ldr	r3, [sp, #4]
    9be2:	f841 2023 	str.w	r2, [r1, r3, lsl #2]
    9be6:	bf00      	nop
    9be8:	b003      	add	sp, #12
    9bea:	f85d fb04 	ldr.w	pc, [sp], #4
    9bee:	bf00      	nop
    9bf0:	1fff91d0 	.word	0x1fff91d0
    9bf4:	1fff91cc 	.word	0x1fff91cc

00009bf8 <SchM_Exit_Port_PORT_EXCLUSIVE_AREA_26>:
    9bf8:	b500      	push	{lr}
    9bfa:	b083      	sub	sp, #12
    9bfc:	f7f6 ff56 	bl	aac <Sys_GetCoreID>
    9c00:	4603      	mov	r3, r0
    9c02:	9301      	str	r3, [sp, #4]
    9c04:	4a0d      	ldr	r2, [pc, #52]	; (9c3c <SchM_Exit_Port_PORT_EXCLUSIVE_AREA_26+0x44>)
    9c06:	9b01      	ldr	r3, [sp, #4]
    9c08:	f852 3023 	ldr.w	r3, [r2, r3, lsl #2]
    9c0c:	1e5a      	subs	r2, r3, #1
    9c0e:	490b      	ldr	r1, [pc, #44]	; (9c3c <SchM_Exit_Port_PORT_EXCLUSIVE_AREA_26+0x44>)
    9c10:	9b01      	ldr	r3, [sp, #4]
    9c12:	f841 2023 	str.w	r2, [r1, r3, lsl #2]
    9c16:	4a0a      	ldr	r2, [pc, #40]	; (9c40 <SchM_Exit_Port_PORT_EXCLUSIVE_AREA_26+0x48>)
    9c18:	9b01      	ldr	r3, [sp, #4]
    9c1a:	f852 3023 	ldr.w	r3, [r2, r3, lsl #2]
    9c1e:	f003 0301 	and.w	r3, r3, #1
    9c22:	2b00      	cmp	r3, #0
    9c24:	d106      	bne.n	9c34 <SchM_Exit_Port_PORT_EXCLUSIVE_AREA_26+0x3c>
    9c26:	4a05      	ldr	r2, [pc, #20]	; (9c3c <SchM_Exit_Port_PORT_EXCLUSIVE_AREA_26+0x44>)
    9c28:	9b01      	ldr	r3, [sp, #4]
    9c2a:	f852 3023 	ldr.w	r3, [r2, r3, lsl #2]
    9c2e:	2b00      	cmp	r3, #0
    9c30:	d100      	bne.n	9c34 <SchM_Exit_Port_PORT_EXCLUSIVE_AREA_26+0x3c>
    9c32:	b662      	cpsie	i
    9c34:	bf00      	nop
    9c36:	b003      	add	sp, #12
    9c38:	f85d fb04 	ldr.w	pc, [sp], #4
    9c3c:	1fff91d0 	.word	0x1fff91d0
    9c40:	1fff91cc 	.word	0x1fff91cc

00009c44 <SchM_Enter_Port_PORT_EXCLUSIVE_AREA_27>:
    9c44:	b500      	push	{lr}
    9c46:	b083      	sub	sp, #12
    9c48:	f7f6 ff30 	bl	aac <Sys_GetCoreID>
    9c4c:	4603      	mov	r3, r0
    9c4e:	9301      	str	r3, [sp, #4]
    9c50:	4a10      	ldr	r2, [pc, #64]	; (9c94 <SchM_Enter_Port_PORT_EXCLUSIVE_AREA_27+0x50>)
    9c52:	9b01      	ldr	r3, [sp, #4]
    9c54:	f852 3023 	ldr.w	r3, [r2, r3, lsl #2]
    9c58:	2b00      	cmp	r3, #0
    9c5a:	d10d      	bne.n	9c78 <SchM_Enter_Port_PORT_EXCLUSIVE_AREA_27+0x34>
    9c5c:	f7f6 fe4d 	bl	8fa <Port_schm_read_msr>
    9c60:	9000      	str	r0, [sp, #0]
    9c62:	9b00      	ldr	r3, [sp, #0]
    9c64:	f003 0301 	and.w	r3, r3, #1
    9c68:	2b00      	cmp	r3, #0
    9c6a:	d100      	bne.n	9c6e <SchM_Enter_Port_PORT_EXCLUSIVE_AREA_27+0x2a>
    9c6c:	b672      	cpsid	i
    9c6e:	490a      	ldr	r1, [pc, #40]	; (9c98 <SchM_Enter_Port_PORT_EXCLUSIVE_AREA_27+0x54>)
    9c70:	9b01      	ldr	r3, [sp, #4]
    9c72:	9a00      	ldr	r2, [sp, #0]
    9c74:	f841 2023 	str.w	r2, [r1, r3, lsl #2]
    9c78:	4a06      	ldr	r2, [pc, #24]	; (9c94 <SchM_Enter_Port_PORT_EXCLUSIVE_AREA_27+0x50>)
    9c7a:	9b01      	ldr	r3, [sp, #4]
    9c7c:	f852 3023 	ldr.w	r3, [r2, r3, lsl #2]
    9c80:	1c5a      	adds	r2, r3, #1
    9c82:	4904      	ldr	r1, [pc, #16]	; (9c94 <SchM_Enter_Port_PORT_EXCLUSIVE_AREA_27+0x50>)
    9c84:	9b01      	ldr	r3, [sp, #4]
    9c86:	f841 2023 	str.w	r2, [r1, r3, lsl #2]
    9c8a:	bf00      	nop
    9c8c:	b003      	add	sp, #12
    9c8e:	f85d fb04 	ldr.w	pc, [sp], #4
    9c92:	bf00      	nop
    9c94:	1fff91d8 	.word	0x1fff91d8
    9c98:	1fff91d4 	.word	0x1fff91d4

00009c9c <SchM_Exit_Port_PORT_EXCLUSIVE_AREA_27>:
    9c9c:	b500      	push	{lr}
    9c9e:	b083      	sub	sp, #12
    9ca0:	f7f6 ff04 	bl	aac <Sys_GetCoreID>
    9ca4:	4603      	mov	r3, r0
    9ca6:	9301      	str	r3, [sp, #4]
    9ca8:	4a0d      	ldr	r2, [pc, #52]	; (9ce0 <SchM_Exit_Port_PORT_EXCLUSIVE_AREA_27+0x44>)
    9caa:	9b01      	ldr	r3, [sp, #4]
    9cac:	f852 3023 	ldr.w	r3, [r2, r3, lsl #2]
    9cb0:	1e5a      	subs	r2, r3, #1
    9cb2:	490b      	ldr	r1, [pc, #44]	; (9ce0 <SchM_Exit_Port_PORT_EXCLUSIVE_AREA_27+0x44>)
    9cb4:	9b01      	ldr	r3, [sp, #4]
    9cb6:	f841 2023 	str.w	r2, [r1, r3, lsl #2]
    9cba:	4a0a      	ldr	r2, [pc, #40]	; (9ce4 <SchM_Exit_Port_PORT_EXCLUSIVE_AREA_27+0x48>)
    9cbc:	9b01      	ldr	r3, [sp, #4]
    9cbe:	f852 3023 	ldr.w	r3, [r2, r3, lsl #2]
    9cc2:	f003 0301 	and.w	r3, r3, #1
    9cc6:	2b00      	cmp	r3, #0
    9cc8:	d106      	bne.n	9cd8 <SchM_Exit_Port_PORT_EXCLUSIVE_AREA_27+0x3c>
    9cca:	4a05      	ldr	r2, [pc, #20]	; (9ce0 <SchM_Exit_Port_PORT_EXCLUSIVE_AREA_27+0x44>)
    9ccc:	9b01      	ldr	r3, [sp, #4]
    9cce:	f852 3023 	ldr.w	r3, [r2, r3, lsl #2]
    9cd2:	2b00      	cmp	r3, #0
    9cd4:	d100      	bne.n	9cd8 <SchM_Exit_Port_PORT_EXCLUSIVE_AREA_27+0x3c>
    9cd6:	b662      	cpsie	i
    9cd8:	bf00      	nop
    9cda:	b003      	add	sp, #12
    9cdc:	f85d fb04 	ldr.w	pc, [sp], #4
    9ce0:	1fff91d8 	.word	0x1fff91d8
    9ce4:	1fff91d4 	.word	0x1fff91d4

00009ce8 <SchM_Enter_Pwm_PWM_EXCLUSIVE_AREA_00>:
    9ce8:	b500      	push	{lr}
    9cea:	b083      	sub	sp, #12
    9cec:	f7f6 fede 	bl	aac <Sys_GetCoreID>
    9cf0:	4603      	mov	r3, r0
    9cf2:	9301      	str	r3, [sp, #4]
    9cf4:	4a10      	ldr	r2, [pc, #64]	; (9d38 <SchM_Enter_Pwm_PWM_EXCLUSIVE_AREA_00+0x50>)
    9cf6:	9b01      	ldr	r3, [sp, #4]
    9cf8:	f852 3023 	ldr.w	r3, [r2, r3, lsl #2]
    9cfc:	2b00      	cmp	r3, #0
    9cfe:	d10d      	bne.n	9d1c <SchM_Enter_Pwm_PWM_EXCLUSIVE_AREA_00+0x34>
    9d00:	f7f6 fe04 	bl	90c <Pwm_schm_read_msr>
    9d04:	9000      	str	r0, [sp, #0]
    9d06:	9b00      	ldr	r3, [sp, #0]
    9d08:	f003 0301 	and.w	r3, r3, #1
    9d0c:	2b00      	cmp	r3, #0
    9d0e:	d100      	bne.n	9d12 <SchM_Enter_Pwm_PWM_EXCLUSIVE_AREA_00+0x2a>
    9d10:	b672      	cpsid	i
    9d12:	490a      	ldr	r1, [pc, #40]	; (9d3c <SchM_Enter_Pwm_PWM_EXCLUSIVE_AREA_00+0x54>)
    9d14:	9b01      	ldr	r3, [sp, #4]
    9d16:	9a00      	ldr	r2, [sp, #0]
    9d18:	f841 2023 	str.w	r2, [r1, r3, lsl #2]
    9d1c:	4a06      	ldr	r2, [pc, #24]	; (9d38 <SchM_Enter_Pwm_PWM_EXCLUSIVE_AREA_00+0x50>)
    9d1e:	9b01      	ldr	r3, [sp, #4]
    9d20:	f852 3023 	ldr.w	r3, [r2, r3, lsl #2]
    9d24:	1c5a      	adds	r2, r3, #1
    9d26:	4904      	ldr	r1, [pc, #16]	; (9d38 <SchM_Enter_Pwm_PWM_EXCLUSIVE_AREA_00+0x50>)
    9d28:	9b01      	ldr	r3, [sp, #4]
    9d2a:	f841 2023 	str.w	r2, [r1, r3, lsl #2]
    9d2e:	bf00      	nop
    9d30:	b003      	add	sp, #12
    9d32:	f85d fb04 	ldr.w	pc, [sp], #4
    9d36:	bf00      	nop
    9d38:	1fff91e0 	.word	0x1fff91e0
    9d3c:	1fff91dc 	.word	0x1fff91dc

00009d40 <SchM_Exit_Pwm_PWM_EXCLUSIVE_AREA_00>:
    9d40:	b500      	push	{lr}
    9d42:	b083      	sub	sp, #12
    9d44:	f7f6 feb2 	bl	aac <Sys_GetCoreID>
    9d48:	4603      	mov	r3, r0
    9d4a:	9301      	str	r3, [sp, #4]
    9d4c:	4a0d      	ldr	r2, [pc, #52]	; (9d84 <SchM_Exit_Pwm_PWM_EXCLUSIVE_AREA_00+0x44>)
    9d4e:	9b01      	ldr	r3, [sp, #4]
    9d50:	f852 3023 	ldr.w	r3, [r2, r3, lsl #2]
    9d54:	1e5a      	subs	r2, r3, #1
    9d56:	490b      	ldr	r1, [pc, #44]	; (9d84 <SchM_Exit_Pwm_PWM_EXCLUSIVE_AREA_00+0x44>)
    9d58:	9b01      	ldr	r3, [sp, #4]
    9d5a:	f841 2023 	str.w	r2, [r1, r3, lsl #2]
    9d5e:	4a0a      	ldr	r2, [pc, #40]	; (9d88 <SchM_Exit_Pwm_PWM_EXCLUSIVE_AREA_00+0x48>)
    9d60:	9b01      	ldr	r3, [sp, #4]
    9d62:	f852 3023 	ldr.w	r3, [r2, r3, lsl #2]
    9d66:	f003 0301 	and.w	r3, r3, #1
    9d6a:	2b00      	cmp	r3, #0
    9d6c:	d106      	bne.n	9d7c <SchM_Exit_Pwm_PWM_EXCLUSIVE_AREA_00+0x3c>
    9d6e:	4a05      	ldr	r2, [pc, #20]	; (9d84 <SchM_Exit_Pwm_PWM_EXCLUSIVE_AREA_00+0x44>)
    9d70:	9b01      	ldr	r3, [sp, #4]
    9d72:	f852 3023 	ldr.w	r3, [r2, r3, lsl #2]
    9d76:	2b00      	cmp	r3, #0
    9d78:	d100      	bne.n	9d7c <SchM_Exit_Pwm_PWM_EXCLUSIVE_AREA_00+0x3c>
    9d7a:	b662      	cpsie	i
    9d7c:	bf00      	nop
    9d7e:	b003      	add	sp, #12
    9d80:	f85d fb04 	ldr.w	pc, [sp], #4
    9d84:	1fff91e0 	.word	0x1fff91e0
    9d88:	1fff91dc 	.word	0x1fff91dc

00009d8c <SchM_Enter_Pwm_PWM_EXCLUSIVE_AREA_01>:
    9d8c:	b500      	push	{lr}
    9d8e:	b083      	sub	sp, #12
    9d90:	f7f6 fe8c 	bl	aac <Sys_GetCoreID>
    9d94:	4603      	mov	r3, r0
    9d96:	9301      	str	r3, [sp, #4]
    9d98:	4a10      	ldr	r2, [pc, #64]	; (9ddc <SchM_Enter_Pwm_PWM_EXCLUSIVE_AREA_01+0x50>)
    9d9a:	9b01      	ldr	r3, [sp, #4]
    9d9c:	f852 3023 	ldr.w	r3, [r2, r3, lsl #2]
    9da0:	2b00      	cmp	r3, #0
    9da2:	d10d      	bne.n	9dc0 <SchM_Enter_Pwm_PWM_EXCLUSIVE_AREA_01+0x34>
    9da4:	f7f6 fdb2 	bl	90c <Pwm_schm_read_msr>
    9da8:	9000      	str	r0, [sp, #0]
    9daa:	9b00      	ldr	r3, [sp, #0]
    9dac:	f003 0301 	and.w	r3, r3, #1
    9db0:	2b00      	cmp	r3, #0
    9db2:	d100      	bne.n	9db6 <SchM_Enter_Pwm_PWM_EXCLUSIVE_AREA_01+0x2a>
    9db4:	b672      	cpsid	i
    9db6:	490a      	ldr	r1, [pc, #40]	; (9de0 <SchM_Enter_Pwm_PWM_EXCLUSIVE_AREA_01+0x54>)
    9db8:	9b01      	ldr	r3, [sp, #4]
    9dba:	9a00      	ldr	r2, [sp, #0]
    9dbc:	f841 2023 	str.w	r2, [r1, r3, lsl #2]
    9dc0:	4a06      	ldr	r2, [pc, #24]	; (9ddc <SchM_Enter_Pwm_PWM_EXCLUSIVE_AREA_01+0x50>)
    9dc2:	9b01      	ldr	r3, [sp, #4]
    9dc4:	f852 3023 	ldr.w	r3, [r2, r3, lsl #2]
    9dc8:	1c5a      	adds	r2, r3, #1
    9dca:	4904      	ldr	r1, [pc, #16]	; (9ddc <SchM_Enter_Pwm_PWM_EXCLUSIVE_AREA_01+0x50>)
    9dcc:	9b01      	ldr	r3, [sp, #4]
    9dce:	f841 2023 	str.w	r2, [r1, r3, lsl #2]
    9dd2:	bf00      	nop
    9dd4:	b003      	add	sp, #12
    9dd6:	f85d fb04 	ldr.w	pc, [sp], #4
    9dda:	bf00      	nop
    9ddc:	1fff91e8 	.word	0x1fff91e8
    9de0:	1fff91e4 	.word	0x1fff91e4

00009de4 <SchM_Exit_Pwm_PWM_EXCLUSIVE_AREA_01>:
    9de4:	b500      	push	{lr}
    9de6:	b083      	sub	sp, #12
    9de8:	f7f6 fe60 	bl	aac <Sys_GetCoreID>
    9dec:	4603      	mov	r3, r0
    9dee:	9301      	str	r3, [sp, #4]
    9df0:	4a0d      	ldr	r2, [pc, #52]	; (9e28 <SchM_Exit_Pwm_PWM_EXCLUSIVE_AREA_01+0x44>)
    9df2:	9b01      	ldr	r3, [sp, #4]
    9df4:	f852 3023 	ldr.w	r3, [r2, r3, lsl #2]
    9df8:	1e5a      	subs	r2, r3, #1
    9dfa:	490b      	ldr	r1, [pc, #44]	; (9e28 <SchM_Exit_Pwm_PWM_EXCLUSIVE_AREA_01+0x44>)
    9dfc:	9b01      	ldr	r3, [sp, #4]
    9dfe:	f841 2023 	str.w	r2, [r1, r3, lsl #2]
    9e02:	4a0a      	ldr	r2, [pc, #40]	; (9e2c <SchM_Exit_Pwm_PWM_EXCLUSIVE_AREA_01+0x48>)
    9e04:	9b01      	ldr	r3, [sp, #4]
    9e06:	f852 3023 	ldr.w	r3, [r2, r3, lsl #2]
    9e0a:	f003 0301 	and.w	r3, r3, #1
    9e0e:	2b00      	cmp	r3, #0
    9e10:	d106      	bne.n	9e20 <SchM_Exit_Pwm_PWM_EXCLUSIVE_AREA_01+0x3c>
    9e12:	4a05      	ldr	r2, [pc, #20]	; (9e28 <SchM_Exit_Pwm_PWM_EXCLUSIVE_AREA_01+0x44>)
    9e14:	9b01      	ldr	r3, [sp, #4]
    9e16:	f852 3023 	ldr.w	r3, [r2, r3, lsl #2]
    9e1a:	2b00      	cmp	r3, #0
    9e1c:	d100      	bne.n	9e20 <SchM_Exit_Pwm_PWM_EXCLUSIVE_AREA_01+0x3c>
    9e1e:	b662      	cpsie	i
    9e20:	bf00      	nop
    9e22:	b003      	add	sp, #12
    9e24:	f85d fb04 	ldr.w	pc, [sp], #4
    9e28:	1fff91e8 	.word	0x1fff91e8
    9e2c:	1fff91e4 	.word	0x1fff91e4

00009e30 <SchM_Enter_Pwm_PWM_EXCLUSIVE_AREA_02>:
    9e30:	b500      	push	{lr}
    9e32:	b083      	sub	sp, #12
    9e34:	f7f6 fe3a 	bl	aac <Sys_GetCoreID>
    9e38:	4603      	mov	r3, r0
    9e3a:	9301      	str	r3, [sp, #4]
    9e3c:	4a10      	ldr	r2, [pc, #64]	; (9e80 <SchM_Enter_Pwm_PWM_EXCLUSIVE_AREA_02+0x50>)
    9e3e:	9b01      	ldr	r3, [sp, #4]
    9e40:	f852 3023 	ldr.w	r3, [r2, r3, lsl #2]
    9e44:	2b00      	cmp	r3, #0
    9e46:	d10d      	bne.n	9e64 <SchM_Enter_Pwm_PWM_EXCLUSIVE_AREA_02+0x34>
    9e48:	f7f6 fd60 	bl	90c <Pwm_schm_read_msr>
    9e4c:	9000      	str	r0, [sp, #0]
    9e4e:	9b00      	ldr	r3, [sp, #0]
    9e50:	f003 0301 	and.w	r3, r3, #1
    9e54:	2b00      	cmp	r3, #0
    9e56:	d100      	bne.n	9e5a <SchM_Enter_Pwm_PWM_EXCLUSIVE_AREA_02+0x2a>
    9e58:	b672      	cpsid	i
    9e5a:	490a      	ldr	r1, [pc, #40]	; (9e84 <SchM_Enter_Pwm_PWM_EXCLUSIVE_AREA_02+0x54>)
    9e5c:	9b01      	ldr	r3, [sp, #4]
    9e5e:	9a00      	ldr	r2, [sp, #0]
    9e60:	f841 2023 	str.w	r2, [r1, r3, lsl #2]
    9e64:	4a06      	ldr	r2, [pc, #24]	; (9e80 <SchM_Enter_Pwm_PWM_EXCLUSIVE_AREA_02+0x50>)
    9e66:	9b01      	ldr	r3, [sp, #4]
    9e68:	f852 3023 	ldr.w	r3, [r2, r3, lsl #2]
    9e6c:	1c5a      	adds	r2, r3, #1
    9e6e:	4904      	ldr	r1, [pc, #16]	; (9e80 <SchM_Enter_Pwm_PWM_EXCLUSIVE_AREA_02+0x50>)
    9e70:	9b01      	ldr	r3, [sp, #4]
    9e72:	f841 2023 	str.w	r2, [r1, r3, lsl #2]
    9e76:	bf00      	nop
    9e78:	b003      	add	sp, #12
    9e7a:	f85d fb04 	ldr.w	pc, [sp], #4
    9e7e:	bf00      	nop
    9e80:	1fff91f0 	.word	0x1fff91f0
    9e84:	1fff91ec 	.word	0x1fff91ec

00009e88 <SchM_Exit_Pwm_PWM_EXCLUSIVE_AREA_02>:
    9e88:	b500      	push	{lr}
    9e8a:	b083      	sub	sp, #12
    9e8c:	f7f6 fe0e 	bl	aac <Sys_GetCoreID>
    9e90:	4603      	mov	r3, r0
    9e92:	9301      	str	r3, [sp, #4]
    9e94:	4a0d      	ldr	r2, [pc, #52]	; (9ecc <SchM_Exit_Pwm_PWM_EXCLUSIVE_AREA_02+0x44>)
    9e96:	9b01      	ldr	r3, [sp, #4]
    9e98:	f852 3023 	ldr.w	r3, [r2, r3, lsl #2]
    9e9c:	1e5a      	subs	r2, r3, #1
    9e9e:	490b      	ldr	r1, [pc, #44]	; (9ecc <SchM_Exit_Pwm_PWM_EXCLUSIVE_AREA_02+0x44>)
    9ea0:	9b01      	ldr	r3, [sp, #4]
    9ea2:	f841 2023 	str.w	r2, [r1, r3, lsl #2]
    9ea6:	4a0a      	ldr	r2, [pc, #40]	; (9ed0 <SchM_Exit_Pwm_PWM_EXCLUSIVE_AREA_02+0x48>)
    9ea8:	9b01      	ldr	r3, [sp, #4]
    9eaa:	f852 3023 	ldr.w	r3, [r2, r3, lsl #2]
    9eae:	f003 0301 	and.w	r3, r3, #1
    9eb2:	2b00      	cmp	r3, #0
    9eb4:	d106      	bne.n	9ec4 <SchM_Exit_Pwm_PWM_EXCLUSIVE_AREA_02+0x3c>
    9eb6:	4a05      	ldr	r2, [pc, #20]	; (9ecc <SchM_Exit_Pwm_PWM_EXCLUSIVE_AREA_02+0x44>)
    9eb8:	9b01      	ldr	r3, [sp, #4]
    9eba:	f852 3023 	ldr.w	r3, [r2, r3, lsl #2]
    9ebe:	2b00      	cmp	r3, #0
    9ec0:	d100      	bne.n	9ec4 <SchM_Exit_Pwm_PWM_EXCLUSIVE_AREA_02+0x3c>
    9ec2:	b662      	cpsie	i
    9ec4:	bf00      	nop
    9ec6:	b003      	add	sp, #12
    9ec8:	f85d fb04 	ldr.w	pc, [sp], #4
    9ecc:	1fff91f0 	.word	0x1fff91f0
    9ed0:	1fff91ec 	.word	0x1fff91ec

00009ed4 <SchM_Enter_Pwm_PWM_EXCLUSIVE_AREA_03>:
    9ed4:	b500      	push	{lr}
    9ed6:	b083      	sub	sp, #12
    9ed8:	f7f6 fde8 	bl	aac <Sys_GetCoreID>
    9edc:	4603      	mov	r3, r0
    9ede:	9301      	str	r3, [sp, #4]
    9ee0:	4a10      	ldr	r2, [pc, #64]	; (9f24 <SchM_Enter_Pwm_PWM_EXCLUSIVE_AREA_03+0x50>)
    9ee2:	9b01      	ldr	r3, [sp, #4]
    9ee4:	f852 3023 	ldr.w	r3, [r2, r3, lsl #2]
    9ee8:	2b00      	cmp	r3, #0
    9eea:	d10d      	bne.n	9f08 <SchM_Enter_Pwm_PWM_EXCLUSIVE_AREA_03+0x34>
    9eec:	f7f6 fd0e 	bl	90c <Pwm_schm_read_msr>
    9ef0:	9000      	str	r0, [sp, #0]
    9ef2:	9b00      	ldr	r3, [sp, #0]
    9ef4:	f003 0301 	and.w	r3, r3, #1
    9ef8:	2b00      	cmp	r3, #0
    9efa:	d100      	bne.n	9efe <SchM_Enter_Pwm_PWM_EXCLUSIVE_AREA_03+0x2a>
    9efc:	b672      	cpsid	i
    9efe:	490a      	ldr	r1, [pc, #40]	; (9f28 <SchM_Enter_Pwm_PWM_EXCLUSIVE_AREA_03+0x54>)
    9f00:	9b01      	ldr	r3, [sp, #4]
    9f02:	9a00      	ldr	r2, [sp, #0]
    9f04:	f841 2023 	str.w	r2, [r1, r3, lsl #2]
    9f08:	4a06      	ldr	r2, [pc, #24]	; (9f24 <SchM_Enter_Pwm_PWM_EXCLUSIVE_AREA_03+0x50>)
    9f0a:	9b01      	ldr	r3, [sp, #4]
    9f0c:	f852 3023 	ldr.w	r3, [r2, r3, lsl #2]
    9f10:	1c5a      	adds	r2, r3, #1
    9f12:	4904      	ldr	r1, [pc, #16]	; (9f24 <SchM_Enter_Pwm_PWM_EXCLUSIVE_AREA_03+0x50>)
    9f14:	9b01      	ldr	r3, [sp, #4]
    9f16:	f841 2023 	str.w	r2, [r1, r3, lsl #2]
    9f1a:	bf00      	nop
    9f1c:	b003      	add	sp, #12
    9f1e:	f85d fb04 	ldr.w	pc, [sp], #4
    9f22:	bf00      	nop
    9f24:	1fff91f8 	.word	0x1fff91f8
    9f28:	1fff91f4 	.word	0x1fff91f4

00009f2c <SchM_Exit_Pwm_PWM_EXCLUSIVE_AREA_03>:
    9f2c:	b500      	push	{lr}
    9f2e:	b083      	sub	sp, #12
    9f30:	f7f6 fdbc 	bl	aac <Sys_GetCoreID>
    9f34:	4603      	mov	r3, r0
    9f36:	9301      	str	r3, [sp, #4]
    9f38:	4a0d      	ldr	r2, [pc, #52]	; (9f70 <SchM_Exit_Pwm_PWM_EXCLUSIVE_AREA_03+0x44>)
    9f3a:	9b01      	ldr	r3, [sp, #4]
    9f3c:	f852 3023 	ldr.w	r3, [r2, r3, lsl #2]
    9f40:	1e5a      	subs	r2, r3, #1
    9f42:	490b      	ldr	r1, [pc, #44]	; (9f70 <SchM_Exit_Pwm_PWM_EXCLUSIVE_AREA_03+0x44>)
    9f44:	9b01      	ldr	r3, [sp, #4]
    9f46:	f841 2023 	str.w	r2, [r1, r3, lsl #2]
    9f4a:	4a0a      	ldr	r2, [pc, #40]	; (9f74 <SchM_Exit_Pwm_PWM_EXCLUSIVE_AREA_03+0x48>)
    9f4c:	9b01      	ldr	r3, [sp, #4]
    9f4e:	f852 3023 	ldr.w	r3, [r2, r3, lsl #2]
    9f52:	f003 0301 	and.w	r3, r3, #1
    9f56:	2b00      	cmp	r3, #0
    9f58:	d106      	bne.n	9f68 <SchM_Exit_Pwm_PWM_EXCLUSIVE_AREA_03+0x3c>
    9f5a:	4a05      	ldr	r2, [pc, #20]	; (9f70 <SchM_Exit_Pwm_PWM_EXCLUSIVE_AREA_03+0x44>)
    9f5c:	9b01      	ldr	r3, [sp, #4]
    9f5e:	f852 3023 	ldr.w	r3, [r2, r3, lsl #2]
    9f62:	2b00      	cmp	r3, #0
    9f64:	d100      	bne.n	9f68 <SchM_Exit_Pwm_PWM_EXCLUSIVE_AREA_03+0x3c>
    9f66:	b662      	cpsie	i
    9f68:	bf00      	nop
    9f6a:	b003      	add	sp, #12
    9f6c:	f85d fb04 	ldr.w	pc, [sp], #4
    9f70:	1fff91f8 	.word	0x1fff91f8
    9f74:	1fff91f4 	.word	0x1fff91f4

00009f78 <SchM_Enter_Pwm_PWM_EXCLUSIVE_AREA_04>:
    9f78:	b500      	push	{lr}
    9f7a:	b083      	sub	sp, #12
    9f7c:	f7f6 fd96 	bl	aac <Sys_GetCoreID>
    9f80:	4603      	mov	r3, r0
    9f82:	9301      	str	r3, [sp, #4]
    9f84:	4a10      	ldr	r2, [pc, #64]	; (9fc8 <SchM_Enter_Pwm_PWM_EXCLUSIVE_AREA_04+0x50>)
    9f86:	9b01      	ldr	r3, [sp, #4]
    9f88:	f852 3023 	ldr.w	r3, [r2, r3, lsl #2]
    9f8c:	2b00      	cmp	r3, #0
    9f8e:	d10d      	bne.n	9fac <SchM_Enter_Pwm_PWM_EXCLUSIVE_AREA_04+0x34>
    9f90:	f7f6 fcbc 	bl	90c <Pwm_schm_read_msr>
    9f94:	9000      	str	r0, [sp, #0]
    9f96:	9b00      	ldr	r3, [sp, #0]
    9f98:	f003 0301 	and.w	r3, r3, #1
    9f9c:	2b00      	cmp	r3, #0
    9f9e:	d100      	bne.n	9fa2 <SchM_Enter_Pwm_PWM_EXCLUSIVE_AREA_04+0x2a>
    9fa0:	b672      	cpsid	i
    9fa2:	490a      	ldr	r1, [pc, #40]	; (9fcc <SchM_Enter_Pwm_PWM_EXCLUSIVE_AREA_04+0x54>)
    9fa4:	9b01      	ldr	r3, [sp, #4]
    9fa6:	9a00      	ldr	r2, [sp, #0]
    9fa8:	f841 2023 	str.w	r2, [r1, r3, lsl #2]
    9fac:	4a06      	ldr	r2, [pc, #24]	; (9fc8 <SchM_Enter_Pwm_PWM_EXCLUSIVE_AREA_04+0x50>)
    9fae:	9b01      	ldr	r3, [sp, #4]
    9fb0:	f852 3023 	ldr.w	r3, [r2, r3, lsl #2]
    9fb4:	1c5a      	adds	r2, r3, #1
    9fb6:	4904      	ldr	r1, [pc, #16]	; (9fc8 <SchM_Enter_Pwm_PWM_EXCLUSIVE_AREA_04+0x50>)
    9fb8:	9b01      	ldr	r3, [sp, #4]
    9fba:	f841 2023 	str.w	r2, [r1, r3, lsl #2]
    9fbe:	bf00      	nop
    9fc0:	b003      	add	sp, #12
    9fc2:	f85d fb04 	ldr.w	pc, [sp], #4
    9fc6:	bf00      	nop
    9fc8:	1fff9200 	.word	0x1fff9200
    9fcc:	1fff91fc 	.word	0x1fff91fc

00009fd0 <SchM_Exit_Pwm_PWM_EXCLUSIVE_AREA_04>:
    9fd0:	b500      	push	{lr}
    9fd2:	b083      	sub	sp, #12
    9fd4:	f7f6 fd6a 	bl	aac <Sys_GetCoreID>
    9fd8:	4603      	mov	r3, r0
    9fda:	9301      	str	r3, [sp, #4]
    9fdc:	4a0d      	ldr	r2, [pc, #52]	; (a014 <SchM_Exit_Pwm_PWM_EXCLUSIVE_AREA_04+0x44>)
    9fde:	9b01      	ldr	r3, [sp, #4]
    9fe0:	f852 3023 	ldr.w	r3, [r2, r3, lsl #2]
    9fe4:	1e5a      	subs	r2, r3, #1
    9fe6:	490b      	ldr	r1, [pc, #44]	; (a014 <SchM_Exit_Pwm_PWM_EXCLUSIVE_AREA_04+0x44>)
    9fe8:	9b01      	ldr	r3, [sp, #4]
    9fea:	f841 2023 	str.w	r2, [r1, r3, lsl #2]
    9fee:	4a0a      	ldr	r2, [pc, #40]	; (a018 <SchM_Exit_Pwm_PWM_EXCLUSIVE_AREA_04+0x48>)
    9ff0:	9b01      	ldr	r3, [sp, #4]
    9ff2:	f852 3023 	ldr.w	r3, [r2, r3, lsl #2]
    9ff6:	f003 0301 	and.w	r3, r3, #1
    9ffa:	2b00      	cmp	r3, #0
    9ffc:	d106      	bne.n	a00c <SchM_Exit_Pwm_PWM_EXCLUSIVE_AREA_04+0x3c>
    9ffe:	4a05      	ldr	r2, [pc, #20]	; (a014 <SchM_Exit_Pwm_PWM_EXCLUSIVE_AREA_04+0x44>)
    a000:	9b01      	ldr	r3, [sp, #4]
    a002:	f852 3023 	ldr.w	r3, [r2, r3, lsl #2]
    a006:	2b00      	cmp	r3, #0
    a008:	d100      	bne.n	a00c <SchM_Exit_Pwm_PWM_EXCLUSIVE_AREA_04+0x3c>
    a00a:	b662      	cpsie	i
    a00c:	bf00      	nop
    a00e:	b003      	add	sp, #12
    a010:	f85d fb04 	ldr.w	pc, [sp], #4
    a014:	1fff9200 	.word	0x1fff9200
    a018:	1fff91fc 	.word	0x1fff91fc

0000a01c <SchM_Enter_Pwm_PWM_EXCLUSIVE_AREA_05>:
    a01c:	b500      	push	{lr}
    a01e:	b083      	sub	sp, #12
    a020:	f7f6 fd44 	bl	aac <Sys_GetCoreID>
    a024:	4603      	mov	r3, r0
    a026:	9301      	str	r3, [sp, #4]
    a028:	4a10      	ldr	r2, [pc, #64]	; (a06c <SchM_Enter_Pwm_PWM_EXCLUSIVE_AREA_05+0x50>)
    a02a:	9b01      	ldr	r3, [sp, #4]
    a02c:	f852 3023 	ldr.w	r3, [r2, r3, lsl #2]
    a030:	2b00      	cmp	r3, #0
    a032:	d10d      	bne.n	a050 <SchM_Enter_Pwm_PWM_EXCLUSIVE_AREA_05+0x34>
    a034:	f7f6 fc6a 	bl	90c <Pwm_schm_read_msr>
    a038:	9000      	str	r0, [sp, #0]
    a03a:	9b00      	ldr	r3, [sp, #0]
    a03c:	f003 0301 	and.w	r3, r3, #1
    a040:	2b00      	cmp	r3, #0
    a042:	d100      	bne.n	a046 <SchM_Enter_Pwm_PWM_EXCLUSIVE_AREA_05+0x2a>
    a044:	b672      	cpsid	i
    a046:	490a      	ldr	r1, [pc, #40]	; (a070 <SchM_Enter_Pwm_PWM_EXCLUSIVE_AREA_05+0x54>)
    a048:	9b01      	ldr	r3, [sp, #4]
    a04a:	9a00      	ldr	r2, [sp, #0]
    a04c:	f841 2023 	str.w	r2, [r1, r3, lsl #2]
    a050:	4a06      	ldr	r2, [pc, #24]	; (a06c <SchM_Enter_Pwm_PWM_EXCLUSIVE_AREA_05+0x50>)
    a052:	9b01      	ldr	r3, [sp, #4]
    a054:	f852 3023 	ldr.w	r3, [r2, r3, lsl #2]
    a058:	1c5a      	adds	r2, r3, #1
    a05a:	4904      	ldr	r1, [pc, #16]	; (a06c <SchM_Enter_Pwm_PWM_EXCLUSIVE_AREA_05+0x50>)
    a05c:	9b01      	ldr	r3, [sp, #4]
    a05e:	f841 2023 	str.w	r2, [r1, r3, lsl #2]
    a062:	bf00      	nop
    a064:	b003      	add	sp, #12
    a066:	f85d fb04 	ldr.w	pc, [sp], #4
    a06a:	bf00      	nop
    a06c:	1fff9208 	.word	0x1fff9208
    a070:	1fff9204 	.word	0x1fff9204

0000a074 <SchM_Exit_Pwm_PWM_EXCLUSIVE_AREA_05>:
    a074:	b500      	push	{lr}
    a076:	b083      	sub	sp, #12
    a078:	f7f6 fd18 	bl	aac <Sys_GetCoreID>
    a07c:	4603      	mov	r3, r0
    a07e:	9301      	str	r3, [sp, #4]
    a080:	4a0d      	ldr	r2, [pc, #52]	; (a0b8 <SchM_Exit_Pwm_PWM_EXCLUSIVE_AREA_05+0x44>)
    a082:	9b01      	ldr	r3, [sp, #4]
    a084:	f852 3023 	ldr.w	r3, [r2, r3, lsl #2]
    a088:	1e5a      	subs	r2, r3, #1
    a08a:	490b      	ldr	r1, [pc, #44]	; (a0b8 <SchM_Exit_Pwm_PWM_EXCLUSIVE_AREA_05+0x44>)
    a08c:	9b01      	ldr	r3, [sp, #4]
    a08e:	f841 2023 	str.w	r2, [r1, r3, lsl #2]
    a092:	4a0a      	ldr	r2, [pc, #40]	; (a0bc <SchM_Exit_Pwm_PWM_EXCLUSIVE_AREA_05+0x48>)
    a094:	9b01      	ldr	r3, [sp, #4]
    a096:	f852 3023 	ldr.w	r3, [r2, r3, lsl #2]
    a09a:	f003 0301 	and.w	r3, r3, #1
    a09e:	2b00      	cmp	r3, #0
    a0a0:	d106      	bne.n	a0b0 <SchM_Exit_Pwm_PWM_EXCLUSIVE_AREA_05+0x3c>
    a0a2:	4a05      	ldr	r2, [pc, #20]	; (a0b8 <SchM_Exit_Pwm_PWM_EXCLUSIVE_AREA_05+0x44>)
    a0a4:	9b01      	ldr	r3, [sp, #4]
    a0a6:	f852 3023 	ldr.w	r3, [r2, r3, lsl #2]
    a0aa:	2b00      	cmp	r3, #0
    a0ac:	d100      	bne.n	a0b0 <SchM_Exit_Pwm_PWM_EXCLUSIVE_AREA_05+0x3c>
    a0ae:	b662      	cpsie	i
    a0b0:	bf00      	nop
    a0b2:	b003      	add	sp, #12
    a0b4:	f85d fb04 	ldr.w	pc, [sp], #4
    a0b8:	1fff9208 	.word	0x1fff9208
    a0bc:	1fff9204 	.word	0x1fff9204

0000a0c0 <SchM_Enter_Pwm_PWM_EXCLUSIVE_AREA_06>:
    a0c0:	b500      	push	{lr}
    a0c2:	b083      	sub	sp, #12
    a0c4:	f7f6 fcf2 	bl	aac <Sys_GetCoreID>
    a0c8:	4603      	mov	r3, r0
    a0ca:	9301      	str	r3, [sp, #4]
    a0cc:	4a10      	ldr	r2, [pc, #64]	; (a110 <SchM_Enter_Pwm_PWM_EXCLUSIVE_AREA_06+0x50>)
    a0ce:	9b01      	ldr	r3, [sp, #4]
    a0d0:	f852 3023 	ldr.w	r3, [r2, r3, lsl #2]
    a0d4:	2b00      	cmp	r3, #0
    a0d6:	d10d      	bne.n	a0f4 <SchM_Enter_Pwm_PWM_EXCLUSIVE_AREA_06+0x34>
    a0d8:	f7f6 fc18 	bl	90c <Pwm_schm_read_msr>
    a0dc:	9000      	str	r0, [sp, #0]
    a0de:	9b00      	ldr	r3, [sp, #0]
    a0e0:	f003 0301 	and.w	r3, r3, #1
    a0e4:	2b00      	cmp	r3, #0
    a0e6:	d100      	bne.n	a0ea <SchM_Enter_Pwm_PWM_EXCLUSIVE_AREA_06+0x2a>
    a0e8:	b672      	cpsid	i
    a0ea:	490a      	ldr	r1, [pc, #40]	; (a114 <SchM_Enter_Pwm_PWM_EXCLUSIVE_AREA_06+0x54>)
    a0ec:	9b01      	ldr	r3, [sp, #4]
    a0ee:	9a00      	ldr	r2, [sp, #0]
    a0f0:	f841 2023 	str.w	r2, [r1, r3, lsl #2]
    a0f4:	4a06      	ldr	r2, [pc, #24]	; (a110 <SchM_Enter_Pwm_PWM_EXCLUSIVE_AREA_06+0x50>)
    a0f6:	9b01      	ldr	r3, [sp, #4]
    a0f8:	f852 3023 	ldr.w	r3, [r2, r3, lsl #2]
    a0fc:	1c5a      	adds	r2, r3, #1
    a0fe:	4904      	ldr	r1, [pc, #16]	; (a110 <SchM_Enter_Pwm_PWM_EXCLUSIVE_AREA_06+0x50>)
    a100:	9b01      	ldr	r3, [sp, #4]
    a102:	f841 2023 	str.w	r2, [r1, r3, lsl #2]
    a106:	bf00      	nop
    a108:	b003      	add	sp, #12
    a10a:	f85d fb04 	ldr.w	pc, [sp], #4
    a10e:	bf00      	nop
    a110:	1fff9210 	.word	0x1fff9210
    a114:	1fff920c 	.word	0x1fff920c

0000a118 <SchM_Exit_Pwm_PWM_EXCLUSIVE_AREA_06>:
    a118:	b500      	push	{lr}
    a11a:	b083      	sub	sp, #12
    a11c:	f7f6 fcc6 	bl	aac <Sys_GetCoreID>
    a120:	4603      	mov	r3, r0
    a122:	9301      	str	r3, [sp, #4]
    a124:	4a0d      	ldr	r2, [pc, #52]	; (a15c <SchM_Exit_Pwm_PWM_EXCLUSIVE_AREA_06+0x44>)
    a126:	9b01      	ldr	r3, [sp, #4]
    a128:	f852 3023 	ldr.w	r3, [r2, r3, lsl #2]
    a12c:	1e5a      	subs	r2, r3, #1
    a12e:	490b      	ldr	r1, [pc, #44]	; (a15c <SchM_Exit_Pwm_PWM_EXCLUSIVE_AREA_06+0x44>)
    a130:	9b01      	ldr	r3, [sp, #4]
    a132:	f841 2023 	str.w	r2, [r1, r3, lsl #2]
    a136:	4a0a      	ldr	r2, [pc, #40]	; (a160 <SchM_Exit_Pwm_PWM_EXCLUSIVE_AREA_06+0x48>)
    a138:	9b01      	ldr	r3, [sp, #4]
    a13a:	f852 3023 	ldr.w	r3, [r2, r3, lsl #2]
    a13e:	f003 0301 	and.w	r3, r3, #1
    a142:	2b00      	cmp	r3, #0
    a144:	d106      	bne.n	a154 <SchM_Exit_Pwm_PWM_EXCLUSIVE_AREA_06+0x3c>
    a146:	4a05      	ldr	r2, [pc, #20]	; (a15c <SchM_Exit_Pwm_PWM_EXCLUSIVE_AREA_06+0x44>)
    a148:	9b01      	ldr	r3, [sp, #4]
    a14a:	f852 3023 	ldr.w	r3, [r2, r3, lsl #2]
    a14e:	2b00      	cmp	r3, #0
    a150:	d100      	bne.n	a154 <SchM_Exit_Pwm_PWM_EXCLUSIVE_AREA_06+0x3c>
    a152:	b662      	cpsie	i
    a154:	bf00      	nop
    a156:	b003      	add	sp, #12
    a158:	f85d fb04 	ldr.w	pc, [sp], #4
    a15c:	1fff9210 	.word	0x1fff9210
    a160:	1fff920c 	.word	0x1fff920c

0000a164 <SchM_Enter_Pwm_PWM_EXCLUSIVE_AREA_07>:
    a164:	b500      	push	{lr}
    a166:	b083      	sub	sp, #12
    a168:	f7f6 fca0 	bl	aac <Sys_GetCoreID>
    a16c:	4603      	mov	r3, r0
    a16e:	9301      	str	r3, [sp, #4]
    a170:	4a10      	ldr	r2, [pc, #64]	; (a1b4 <SchM_Enter_Pwm_PWM_EXCLUSIVE_AREA_07+0x50>)
    a172:	9b01      	ldr	r3, [sp, #4]
    a174:	f852 3023 	ldr.w	r3, [r2, r3, lsl #2]
    a178:	2b00      	cmp	r3, #0
    a17a:	d10d      	bne.n	a198 <SchM_Enter_Pwm_PWM_EXCLUSIVE_AREA_07+0x34>
    a17c:	f7f6 fbc6 	bl	90c <Pwm_schm_read_msr>
    a180:	9000      	str	r0, [sp, #0]
    a182:	9b00      	ldr	r3, [sp, #0]
    a184:	f003 0301 	and.w	r3, r3, #1
    a188:	2b00      	cmp	r3, #0
    a18a:	d100      	bne.n	a18e <SchM_Enter_Pwm_PWM_EXCLUSIVE_AREA_07+0x2a>
    a18c:	b672      	cpsid	i
    a18e:	490a      	ldr	r1, [pc, #40]	; (a1b8 <SchM_Enter_Pwm_PWM_EXCLUSIVE_AREA_07+0x54>)
    a190:	9b01      	ldr	r3, [sp, #4]
    a192:	9a00      	ldr	r2, [sp, #0]
    a194:	f841 2023 	str.w	r2, [r1, r3, lsl #2]
    a198:	4a06      	ldr	r2, [pc, #24]	; (a1b4 <SchM_Enter_Pwm_PWM_EXCLUSIVE_AREA_07+0x50>)
    a19a:	9b01      	ldr	r3, [sp, #4]
    a19c:	f852 3023 	ldr.w	r3, [r2, r3, lsl #2]
    a1a0:	1c5a      	adds	r2, r3, #1
    a1a2:	4904      	ldr	r1, [pc, #16]	; (a1b4 <SchM_Enter_Pwm_PWM_EXCLUSIVE_AREA_07+0x50>)
    a1a4:	9b01      	ldr	r3, [sp, #4]
    a1a6:	f841 2023 	str.w	r2, [r1, r3, lsl #2]
    a1aa:	bf00      	nop
    a1ac:	b003      	add	sp, #12
    a1ae:	f85d fb04 	ldr.w	pc, [sp], #4
    a1b2:	bf00      	nop
    a1b4:	1fff9218 	.word	0x1fff9218
    a1b8:	1fff9214 	.word	0x1fff9214

0000a1bc <SchM_Exit_Pwm_PWM_EXCLUSIVE_AREA_07>:
    a1bc:	b500      	push	{lr}
    a1be:	b083      	sub	sp, #12
    a1c0:	f7f6 fc74 	bl	aac <Sys_GetCoreID>
    a1c4:	4603      	mov	r3, r0
    a1c6:	9301      	str	r3, [sp, #4]
    a1c8:	4a0d      	ldr	r2, [pc, #52]	; (a200 <SchM_Exit_Pwm_PWM_EXCLUSIVE_AREA_07+0x44>)
    a1ca:	9b01      	ldr	r3, [sp, #4]
    a1cc:	f852 3023 	ldr.w	r3, [r2, r3, lsl #2]
    a1d0:	1e5a      	subs	r2, r3, #1
    a1d2:	490b      	ldr	r1, [pc, #44]	; (a200 <SchM_Exit_Pwm_PWM_EXCLUSIVE_AREA_07+0x44>)
    a1d4:	9b01      	ldr	r3, [sp, #4]
    a1d6:	f841 2023 	str.w	r2, [r1, r3, lsl #2]
    a1da:	4a0a      	ldr	r2, [pc, #40]	; (a204 <SchM_Exit_Pwm_PWM_EXCLUSIVE_AREA_07+0x48>)
    a1dc:	9b01      	ldr	r3, [sp, #4]
    a1de:	f852 3023 	ldr.w	r3, [r2, r3, lsl #2]
    a1e2:	f003 0301 	and.w	r3, r3, #1
    a1e6:	2b00      	cmp	r3, #0
    a1e8:	d106      	bne.n	a1f8 <SchM_Exit_Pwm_PWM_EXCLUSIVE_AREA_07+0x3c>
    a1ea:	4a05      	ldr	r2, [pc, #20]	; (a200 <SchM_Exit_Pwm_PWM_EXCLUSIVE_AREA_07+0x44>)
    a1ec:	9b01      	ldr	r3, [sp, #4]
    a1ee:	f852 3023 	ldr.w	r3, [r2, r3, lsl #2]
    a1f2:	2b00      	cmp	r3, #0
    a1f4:	d100      	bne.n	a1f8 <SchM_Exit_Pwm_PWM_EXCLUSIVE_AREA_07+0x3c>
    a1f6:	b662      	cpsie	i
    a1f8:	bf00      	nop
    a1fa:	b003      	add	sp, #12
    a1fc:	f85d fb04 	ldr.w	pc, [sp], #4
    a200:	1fff9218 	.word	0x1fff9218
    a204:	1fff9214 	.word	0x1fff9214

0000a208 <SchM_Enter_Pwm_PWM_EXCLUSIVE_AREA_08>:
    a208:	b500      	push	{lr}
    a20a:	b083      	sub	sp, #12
    a20c:	f7f6 fc4e 	bl	aac <Sys_GetCoreID>
    a210:	4603      	mov	r3, r0
    a212:	9301      	str	r3, [sp, #4]
    a214:	4a10      	ldr	r2, [pc, #64]	; (a258 <SchM_Enter_Pwm_PWM_EXCLUSIVE_AREA_08+0x50>)
    a216:	9b01      	ldr	r3, [sp, #4]
    a218:	f852 3023 	ldr.w	r3, [r2, r3, lsl #2]
    a21c:	2b00      	cmp	r3, #0
    a21e:	d10d      	bne.n	a23c <SchM_Enter_Pwm_PWM_EXCLUSIVE_AREA_08+0x34>
    a220:	f7f6 fb74 	bl	90c <Pwm_schm_read_msr>
    a224:	9000      	str	r0, [sp, #0]
    a226:	9b00      	ldr	r3, [sp, #0]
    a228:	f003 0301 	and.w	r3, r3, #1
    a22c:	2b00      	cmp	r3, #0
    a22e:	d100      	bne.n	a232 <SchM_Enter_Pwm_PWM_EXCLUSIVE_AREA_08+0x2a>
    a230:	b672      	cpsid	i
    a232:	490a      	ldr	r1, [pc, #40]	; (a25c <SchM_Enter_Pwm_PWM_EXCLUSIVE_AREA_08+0x54>)
    a234:	9b01      	ldr	r3, [sp, #4]
    a236:	9a00      	ldr	r2, [sp, #0]
    a238:	f841 2023 	str.w	r2, [r1, r3, lsl #2]
    a23c:	4a06      	ldr	r2, [pc, #24]	; (a258 <SchM_Enter_Pwm_PWM_EXCLUSIVE_AREA_08+0x50>)
    a23e:	9b01      	ldr	r3, [sp, #4]
    a240:	f852 3023 	ldr.w	r3, [r2, r3, lsl #2]
    a244:	1c5a      	adds	r2, r3, #1
    a246:	4904      	ldr	r1, [pc, #16]	; (a258 <SchM_Enter_Pwm_PWM_EXCLUSIVE_AREA_08+0x50>)
    a248:	9b01      	ldr	r3, [sp, #4]
    a24a:	f841 2023 	str.w	r2, [r1, r3, lsl #2]
    a24e:	bf00      	nop
    a250:	b003      	add	sp, #12
    a252:	f85d fb04 	ldr.w	pc, [sp], #4
    a256:	bf00      	nop
    a258:	1fff9220 	.word	0x1fff9220
    a25c:	1fff921c 	.word	0x1fff921c

0000a260 <SchM_Exit_Pwm_PWM_EXCLUSIVE_AREA_08>:
    a260:	b500      	push	{lr}
    a262:	b083      	sub	sp, #12
    a264:	f7f6 fc22 	bl	aac <Sys_GetCoreID>
    a268:	4603      	mov	r3, r0
    a26a:	9301      	str	r3, [sp, #4]
    a26c:	4a0d      	ldr	r2, [pc, #52]	; (a2a4 <SchM_Exit_Pwm_PWM_EXCLUSIVE_AREA_08+0x44>)
    a26e:	9b01      	ldr	r3, [sp, #4]
    a270:	f852 3023 	ldr.w	r3, [r2, r3, lsl #2]
    a274:	1e5a      	subs	r2, r3, #1
    a276:	490b      	ldr	r1, [pc, #44]	; (a2a4 <SchM_Exit_Pwm_PWM_EXCLUSIVE_AREA_08+0x44>)
    a278:	9b01      	ldr	r3, [sp, #4]
    a27a:	f841 2023 	str.w	r2, [r1, r3, lsl #2]
    a27e:	4a0a      	ldr	r2, [pc, #40]	; (a2a8 <SchM_Exit_Pwm_PWM_EXCLUSIVE_AREA_08+0x48>)
    a280:	9b01      	ldr	r3, [sp, #4]
    a282:	f852 3023 	ldr.w	r3, [r2, r3, lsl #2]
    a286:	f003 0301 	and.w	r3, r3, #1
    a28a:	2b00      	cmp	r3, #0
    a28c:	d106      	bne.n	a29c <SchM_Exit_Pwm_PWM_EXCLUSIVE_AREA_08+0x3c>
    a28e:	4a05      	ldr	r2, [pc, #20]	; (a2a4 <SchM_Exit_Pwm_PWM_EXCLUSIVE_AREA_08+0x44>)
    a290:	9b01      	ldr	r3, [sp, #4]
    a292:	f852 3023 	ldr.w	r3, [r2, r3, lsl #2]
    a296:	2b00      	cmp	r3, #0
    a298:	d100      	bne.n	a29c <SchM_Exit_Pwm_PWM_EXCLUSIVE_AREA_08+0x3c>
    a29a:	b662      	cpsie	i
    a29c:	bf00      	nop
    a29e:	b003      	add	sp, #12
    a2a0:	f85d fb04 	ldr.w	pc, [sp], #4
    a2a4:	1fff9220 	.word	0x1fff9220
    a2a8:	1fff921c 	.word	0x1fff921c

0000a2ac <SchM_Enter_Pwm_PWM_EXCLUSIVE_AREA_09>:
    a2ac:	b500      	push	{lr}
    a2ae:	b083      	sub	sp, #12
    a2b0:	f7f6 fbfc 	bl	aac <Sys_GetCoreID>
    a2b4:	4603      	mov	r3, r0
    a2b6:	9301      	str	r3, [sp, #4]
    a2b8:	4a10      	ldr	r2, [pc, #64]	; (a2fc <SchM_Enter_Pwm_PWM_EXCLUSIVE_AREA_09+0x50>)
    a2ba:	9b01      	ldr	r3, [sp, #4]
    a2bc:	f852 3023 	ldr.w	r3, [r2, r3, lsl #2]
    a2c0:	2b00      	cmp	r3, #0
    a2c2:	d10d      	bne.n	a2e0 <SchM_Enter_Pwm_PWM_EXCLUSIVE_AREA_09+0x34>
    a2c4:	f7f6 fb22 	bl	90c <Pwm_schm_read_msr>
    a2c8:	9000      	str	r0, [sp, #0]
    a2ca:	9b00      	ldr	r3, [sp, #0]
    a2cc:	f003 0301 	and.w	r3, r3, #1
    a2d0:	2b00      	cmp	r3, #0
    a2d2:	d100      	bne.n	a2d6 <SchM_Enter_Pwm_PWM_EXCLUSIVE_AREA_09+0x2a>
    a2d4:	b672      	cpsid	i
    a2d6:	490a      	ldr	r1, [pc, #40]	; (a300 <SchM_Enter_Pwm_PWM_EXCLUSIVE_AREA_09+0x54>)
    a2d8:	9b01      	ldr	r3, [sp, #4]
    a2da:	9a00      	ldr	r2, [sp, #0]
    a2dc:	f841 2023 	str.w	r2, [r1, r3, lsl #2]
    a2e0:	4a06      	ldr	r2, [pc, #24]	; (a2fc <SchM_Enter_Pwm_PWM_EXCLUSIVE_AREA_09+0x50>)
    a2e2:	9b01      	ldr	r3, [sp, #4]
    a2e4:	f852 3023 	ldr.w	r3, [r2, r3, lsl #2]
    a2e8:	1c5a      	adds	r2, r3, #1
    a2ea:	4904      	ldr	r1, [pc, #16]	; (a2fc <SchM_Enter_Pwm_PWM_EXCLUSIVE_AREA_09+0x50>)
    a2ec:	9b01      	ldr	r3, [sp, #4]
    a2ee:	f841 2023 	str.w	r2, [r1, r3, lsl #2]
    a2f2:	bf00      	nop
    a2f4:	b003      	add	sp, #12
    a2f6:	f85d fb04 	ldr.w	pc, [sp], #4
    a2fa:	bf00      	nop
    a2fc:	1fff9228 	.word	0x1fff9228
    a300:	1fff9224 	.word	0x1fff9224

0000a304 <SchM_Exit_Pwm_PWM_EXCLUSIVE_AREA_09>:
    a304:	b500      	push	{lr}
    a306:	b083      	sub	sp, #12
    a308:	f7f6 fbd0 	bl	aac <Sys_GetCoreID>
    a30c:	4603      	mov	r3, r0
    a30e:	9301      	str	r3, [sp, #4]
    a310:	4a0d      	ldr	r2, [pc, #52]	; (a348 <SchM_Exit_Pwm_PWM_EXCLUSIVE_AREA_09+0x44>)
    a312:	9b01      	ldr	r3, [sp, #4]
    a314:	f852 3023 	ldr.w	r3, [r2, r3, lsl #2]
    a318:	1e5a      	subs	r2, r3, #1
    a31a:	490b      	ldr	r1, [pc, #44]	; (a348 <SchM_Exit_Pwm_PWM_EXCLUSIVE_AREA_09+0x44>)
    a31c:	9b01      	ldr	r3, [sp, #4]
    a31e:	f841 2023 	str.w	r2, [r1, r3, lsl #2]
    a322:	4a0a      	ldr	r2, [pc, #40]	; (a34c <SchM_Exit_Pwm_PWM_EXCLUSIVE_AREA_09+0x48>)
    a324:	9b01      	ldr	r3, [sp, #4]
    a326:	f852 3023 	ldr.w	r3, [r2, r3, lsl #2]
    a32a:	f003 0301 	and.w	r3, r3, #1
    a32e:	2b00      	cmp	r3, #0
    a330:	d106      	bne.n	a340 <SchM_Exit_Pwm_PWM_EXCLUSIVE_AREA_09+0x3c>
    a332:	4a05      	ldr	r2, [pc, #20]	; (a348 <SchM_Exit_Pwm_PWM_EXCLUSIVE_AREA_09+0x44>)
    a334:	9b01      	ldr	r3, [sp, #4]
    a336:	f852 3023 	ldr.w	r3, [r2, r3, lsl #2]
    a33a:	2b00      	cmp	r3, #0
    a33c:	d100      	bne.n	a340 <SchM_Exit_Pwm_PWM_EXCLUSIVE_AREA_09+0x3c>
    a33e:	b662      	cpsie	i
    a340:	bf00      	nop
    a342:	b003      	add	sp, #12
    a344:	f85d fb04 	ldr.w	pc, [sp], #4
    a348:	1fff9228 	.word	0x1fff9228
    a34c:	1fff9224 	.word	0x1fff9224

0000a350 <SchM_Enter_Pwm_PWM_EXCLUSIVE_AREA_10>:
    a350:	b500      	push	{lr}
    a352:	b083      	sub	sp, #12
    a354:	f7f6 fbaa 	bl	aac <Sys_GetCoreID>
    a358:	4603      	mov	r3, r0
    a35a:	9301      	str	r3, [sp, #4]
    a35c:	4a10      	ldr	r2, [pc, #64]	; (a3a0 <SchM_Enter_Pwm_PWM_EXCLUSIVE_AREA_10+0x50>)
    a35e:	9b01      	ldr	r3, [sp, #4]
    a360:	f852 3023 	ldr.w	r3, [r2, r3, lsl #2]
    a364:	2b00      	cmp	r3, #0
    a366:	d10d      	bne.n	a384 <SchM_Enter_Pwm_PWM_EXCLUSIVE_AREA_10+0x34>
    a368:	f7f6 fad0 	bl	90c <Pwm_schm_read_msr>
    a36c:	9000      	str	r0, [sp, #0]
    a36e:	9b00      	ldr	r3, [sp, #0]
    a370:	f003 0301 	and.w	r3, r3, #1
    a374:	2b00      	cmp	r3, #0
    a376:	d100      	bne.n	a37a <SchM_Enter_Pwm_PWM_EXCLUSIVE_AREA_10+0x2a>
    a378:	b672      	cpsid	i
    a37a:	490a      	ldr	r1, [pc, #40]	; (a3a4 <SchM_Enter_Pwm_PWM_EXCLUSIVE_AREA_10+0x54>)
    a37c:	9b01      	ldr	r3, [sp, #4]
    a37e:	9a00      	ldr	r2, [sp, #0]
    a380:	f841 2023 	str.w	r2, [r1, r3, lsl #2]
    a384:	4a06      	ldr	r2, [pc, #24]	; (a3a0 <SchM_Enter_Pwm_PWM_EXCLUSIVE_AREA_10+0x50>)
    a386:	9b01      	ldr	r3, [sp, #4]
    a388:	f852 3023 	ldr.w	r3, [r2, r3, lsl #2]
    a38c:	1c5a      	adds	r2, r3, #1
    a38e:	4904      	ldr	r1, [pc, #16]	; (a3a0 <SchM_Enter_Pwm_PWM_EXCLUSIVE_AREA_10+0x50>)
    a390:	9b01      	ldr	r3, [sp, #4]
    a392:	f841 2023 	str.w	r2, [r1, r3, lsl #2]
    a396:	bf00      	nop
    a398:	b003      	add	sp, #12
    a39a:	f85d fb04 	ldr.w	pc, [sp], #4
    a39e:	bf00      	nop
    a3a0:	1fff9230 	.word	0x1fff9230
    a3a4:	1fff922c 	.word	0x1fff922c

0000a3a8 <SchM_Exit_Pwm_PWM_EXCLUSIVE_AREA_10>:
    a3a8:	b500      	push	{lr}
    a3aa:	b083      	sub	sp, #12
    a3ac:	f7f6 fb7e 	bl	aac <Sys_GetCoreID>
    a3b0:	4603      	mov	r3, r0
    a3b2:	9301      	str	r3, [sp, #4]
    a3b4:	4a0d      	ldr	r2, [pc, #52]	; (a3ec <SchM_Exit_Pwm_PWM_EXCLUSIVE_AREA_10+0x44>)
    a3b6:	9b01      	ldr	r3, [sp, #4]
    a3b8:	f852 3023 	ldr.w	r3, [r2, r3, lsl #2]
    a3bc:	1e5a      	subs	r2, r3, #1
    a3be:	490b      	ldr	r1, [pc, #44]	; (a3ec <SchM_Exit_Pwm_PWM_EXCLUSIVE_AREA_10+0x44>)
    a3c0:	9b01      	ldr	r3, [sp, #4]
    a3c2:	f841 2023 	str.w	r2, [r1, r3, lsl #2]
    a3c6:	4a0a      	ldr	r2, [pc, #40]	; (a3f0 <SchM_Exit_Pwm_PWM_EXCLUSIVE_AREA_10+0x48>)
    a3c8:	9b01      	ldr	r3, [sp, #4]
    a3ca:	f852 3023 	ldr.w	r3, [r2, r3, lsl #2]
    a3ce:	f003 0301 	and.w	r3, r3, #1
    a3d2:	2b00      	cmp	r3, #0
    a3d4:	d106      	bne.n	a3e4 <SchM_Exit_Pwm_PWM_EXCLUSIVE_AREA_10+0x3c>
    a3d6:	4a05      	ldr	r2, [pc, #20]	; (a3ec <SchM_Exit_Pwm_PWM_EXCLUSIVE_AREA_10+0x44>)
    a3d8:	9b01      	ldr	r3, [sp, #4]
    a3da:	f852 3023 	ldr.w	r3, [r2, r3, lsl #2]
    a3de:	2b00      	cmp	r3, #0
    a3e0:	d100      	bne.n	a3e4 <SchM_Exit_Pwm_PWM_EXCLUSIVE_AREA_10+0x3c>
    a3e2:	b662      	cpsie	i
    a3e4:	bf00      	nop
    a3e6:	b003      	add	sp, #12
    a3e8:	f85d fb04 	ldr.w	pc, [sp], #4
    a3ec:	1fff9230 	.word	0x1fff9230
    a3f0:	1fff922c 	.word	0x1fff922c

0000a3f4 <SchM_Enter_Pwm_PWM_EXCLUSIVE_AREA_11>:
    a3f4:	b500      	push	{lr}
    a3f6:	b083      	sub	sp, #12
    a3f8:	f7f6 fb58 	bl	aac <Sys_GetCoreID>
    a3fc:	4603      	mov	r3, r0
    a3fe:	9301      	str	r3, [sp, #4]
    a400:	4a10      	ldr	r2, [pc, #64]	; (a444 <SchM_Enter_Pwm_PWM_EXCLUSIVE_AREA_11+0x50>)
    a402:	9b01      	ldr	r3, [sp, #4]
    a404:	f852 3023 	ldr.w	r3, [r2, r3, lsl #2]
    a408:	2b00      	cmp	r3, #0
    a40a:	d10d      	bne.n	a428 <SchM_Enter_Pwm_PWM_EXCLUSIVE_AREA_11+0x34>
    a40c:	f7f6 fa7e 	bl	90c <Pwm_schm_read_msr>
    a410:	9000      	str	r0, [sp, #0]
    a412:	9b00      	ldr	r3, [sp, #0]
    a414:	f003 0301 	and.w	r3, r3, #1
    a418:	2b00      	cmp	r3, #0
    a41a:	d100      	bne.n	a41e <SchM_Enter_Pwm_PWM_EXCLUSIVE_AREA_11+0x2a>
    a41c:	b672      	cpsid	i
    a41e:	490a      	ldr	r1, [pc, #40]	; (a448 <SchM_Enter_Pwm_PWM_EXCLUSIVE_AREA_11+0x54>)
    a420:	9b01      	ldr	r3, [sp, #4]
    a422:	9a00      	ldr	r2, [sp, #0]
    a424:	f841 2023 	str.w	r2, [r1, r3, lsl #2]
    a428:	4a06      	ldr	r2, [pc, #24]	; (a444 <SchM_Enter_Pwm_PWM_EXCLUSIVE_AREA_11+0x50>)
    a42a:	9b01      	ldr	r3, [sp, #4]
    a42c:	f852 3023 	ldr.w	r3, [r2, r3, lsl #2]
    a430:	1c5a      	adds	r2, r3, #1
    a432:	4904      	ldr	r1, [pc, #16]	; (a444 <SchM_Enter_Pwm_PWM_EXCLUSIVE_AREA_11+0x50>)
    a434:	9b01      	ldr	r3, [sp, #4]
    a436:	f841 2023 	str.w	r2, [r1, r3, lsl #2]
    a43a:	bf00      	nop
    a43c:	b003      	add	sp, #12
    a43e:	f85d fb04 	ldr.w	pc, [sp], #4
    a442:	bf00      	nop
    a444:	1fff9238 	.word	0x1fff9238
    a448:	1fff9234 	.word	0x1fff9234

0000a44c <SchM_Exit_Pwm_PWM_EXCLUSIVE_AREA_11>:
    a44c:	b500      	push	{lr}
    a44e:	b083      	sub	sp, #12
    a450:	f7f6 fb2c 	bl	aac <Sys_GetCoreID>
    a454:	4603      	mov	r3, r0
    a456:	9301      	str	r3, [sp, #4]
    a458:	4a0d      	ldr	r2, [pc, #52]	; (a490 <SchM_Exit_Pwm_PWM_EXCLUSIVE_AREA_11+0x44>)
    a45a:	9b01      	ldr	r3, [sp, #4]
    a45c:	f852 3023 	ldr.w	r3, [r2, r3, lsl #2]
    a460:	1e5a      	subs	r2, r3, #1
    a462:	490b      	ldr	r1, [pc, #44]	; (a490 <SchM_Exit_Pwm_PWM_EXCLUSIVE_AREA_11+0x44>)
    a464:	9b01      	ldr	r3, [sp, #4]
    a466:	f841 2023 	str.w	r2, [r1, r3, lsl #2]
    a46a:	4a0a      	ldr	r2, [pc, #40]	; (a494 <SchM_Exit_Pwm_PWM_EXCLUSIVE_AREA_11+0x48>)
    a46c:	9b01      	ldr	r3, [sp, #4]
    a46e:	f852 3023 	ldr.w	r3, [r2, r3, lsl #2]
    a472:	f003 0301 	and.w	r3, r3, #1
    a476:	2b00      	cmp	r3, #0
    a478:	d106      	bne.n	a488 <SchM_Exit_Pwm_PWM_EXCLUSIVE_AREA_11+0x3c>
    a47a:	4a05      	ldr	r2, [pc, #20]	; (a490 <SchM_Exit_Pwm_PWM_EXCLUSIVE_AREA_11+0x44>)
    a47c:	9b01      	ldr	r3, [sp, #4]
    a47e:	f852 3023 	ldr.w	r3, [r2, r3, lsl #2]
    a482:	2b00      	cmp	r3, #0
    a484:	d100      	bne.n	a488 <SchM_Exit_Pwm_PWM_EXCLUSIVE_AREA_11+0x3c>
    a486:	b662      	cpsie	i
    a488:	bf00      	nop
    a48a:	b003      	add	sp, #12
    a48c:	f85d fb04 	ldr.w	pc, [sp], #4
    a490:	1fff9238 	.word	0x1fff9238
    a494:	1fff9234 	.word	0x1fff9234

0000a498 <SchM_Enter_Pwm_PWM_EXCLUSIVE_AREA_12>:
    a498:	b500      	push	{lr}
    a49a:	b083      	sub	sp, #12
    a49c:	f7f6 fb06 	bl	aac <Sys_GetCoreID>
    a4a0:	4603      	mov	r3, r0
    a4a2:	9301      	str	r3, [sp, #4]
    a4a4:	4a10      	ldr	r2, [pc, #64]	; (a4e8 <SchM_Enter_Pwm_PWM_EXCLUSIVE_AREA_12+0x50>)
    a4a6:	9b01      	ldr	r3, [sp, #4]
    a4a8:	f852 3023 	ldr.w	r3, [r2, r3, lsl #2]
    a4ac:	2b00      	cmp	r3, #0
    a4ae:	d10d      	bne.n	a4cc <SchM_Enter_Pwm_PWM_EXCLUSIVE_AREA_12+0x34>
    a4b0:	f7f6 fa2c 	bl	90c <Pwm_schm_read_msr>
    a4b4:	9000      	str	r0, [sp, #0]
    a4b6:	9b00      	ldr	r3, [sp, #0]
    a4b8:	f003 0301 	and.w	r3, r3, #1
    a4bc:	2b00      	cmp	r3, #0
    a4be:	d100      	bne.n	a4c2 <SchM_Enter_Pwm_PWM_EXCLUSIVE_AREA_12+0x2a>
    a4c0:	b672      	cpsid	i
    a4c2:	490a      	ldr	r1, [pc, #40]	; (a4ec <SchM_Enter_Pwm_PWM_EXCLUSIVE_AREA_12+0x54>)
    a4c4:	9b01      	ldr	r3, [sp, #4]
    a4c6:	9a00      	ldr	r2, [sp, #0]
    a4c8:	f841 2023 	str.w	r2, [r1, r3, lsl #2]
    a4cc:	4a06      	ldr	r2, [pc, #24]	; (a4e8 <SchM_Enter_Pwm_PWM_EXCLUSIVE_AREA_12+0x50>)
    a4ce:	9b01      	ldr	r3, [sp, #4]
    a4d0:	f852 3023 	ldr.w	r3, [r2, r3, lsl #2]
    a4d4:	1c5a      	adds	r2, r3, #1
    a4d6:	4904      	ldr	r1, [pc, #16]	; (a4e8 <SchM_Enter_Pwm_PWM_EXCLUSIVE_AREA_12+0x50>)
    a4d8:	9b01      	ldr	r3, [sp, #4]
    a4da:	f841 2023 	str.w	r2, [r1, r3, lsl #2]
    a4de:	bf00      	nop
    a4e0:	b003      	add	sp, #12
    a4e2:	f85d fb04 	ldr.w	pc, [sp], #4
    a4e6:	bf00      	nop
    a4e8:	1fff9240 	.word	0x1fff9240
    a4ec:	1fff923c 	.word	0x1fff923c

0000a4f0 <SchM_Exit_Pwm_PWM_EXCLUSIVE_AREA_12>:
    a4f0:	b500      	push	{lr}
    a4f2:	b083      	sub	sp, #12
    a4f4:	f7f6 fada 	bl	aac <Sys_GetCoreID>
    a4f8:	4603      	mov	r3, r0
    a4fa:	9301      	str	r3, [sp, #4]
    a4fc:	4a0d      	ldr	r2, [pc, #52]	; (a534 <SchM_Exit_Pwm_PWM_EXCLUSIVE_AREA_12+0x44>)
    a4fe:	9b01      	ldr	r3, [sp, #4]
    a500:	f852 3023 	ldr.w	r3, [r2, r3, lsl #2]
    a504:	1e5a      	subs	r2, r3, #1
    a506:	490b      	ldr	r1, [pc, #44]	; (a534 <SchM_Exit_Pwm_PWM_EXCLUSIVE_AREA_12+0x44>)
    a508:	9b01      	ldr	r3, [sp, #4]
    a50a:	f841 2023 	str.w	r2, [r1, r3, lsl #2]
    a50e:	4a0a      	ldr	r2, [pc, #40]	; (a538 <SchM_Exit_Pwm_PWM_EXCLUSIVE_AREA_12+0x48>)
    a510:	9b01      	ldr	r3, [sp, #4]
    a512:	f852 3023 	ldr.w	r3, [r2, r3, lsl #2]
    a516:	f003 0301 	and.w	r3, r3, #1
    a51a:	2b00      	cmp	r3, #0
    a51c:	d106      	bne.n	a52c <SchM_Exit_Pwm_PWM_EXCLUSIVE_AREA_12+0x3c>
    a51e:	4a05      	ldr	r2, [pc, #20]	; (a534 <SchM_Exit_Pwm_PWM_EXCLUSIVE_AREA_12+0x44>)
    a520:	9b01      	ldr	r3, [sp, #4]
    a522:	f852 3023 	ldr.w	r3, [r2, r3, lsl #2]
    a526:	2b00      	cmp	r3, #0
    a528:	d100      	bne.n	a52c <SchM_Exit_Pwm_PWM_EXCLUSIVE_AREA_12+0x3c>
    a52a:	b662      	cpsie	i
    a52c:	bf00      	nop
    a52e:	b003      	add	sp, #12
    a530:	f85d fb04 	ldr.w	pc, [sp], #4
    a534:	1fff9240 	.word	0x1fff9240
    a538:	1fff923c 	.word	0x1fff923c

0000a53c <SchM_Enter_Pwm_PWM_EXCLUSIVE_AREA_13>:
    a53c:	b500      	push	{lr}
    a53e:	b083      	sub	sp, #12
    a540:	f7f6 fab4 	bl	aac <Sys_GetCoreID>
    a544:	4603      	mov	r3, r0
    a546:	9301      	str	r3, [sp, #4]
    a548:	4a10      	ldr	r2, [pc, #64]	; (a58c <SchM_Enter_Pwm_PWM_EXCLUSIVE_AREA_13+0x50>)
    a54a:	9b01      	ldr	r3, [sp, #4]
    a54c:	f852 3023 	ldr.w	r3, [r2, r3, lsl #2]
    a550:	2b00      	cmp	r3, #0
    a552:	d10d      	bne.n	a570 <SchM_Enter_Pwm_PWM_EXCLUSIVE_AREA_13+0x34>
    a554:	f7f6 f9da 	bl	90c <Pwm_schm_read_msr>
    a558:	9000      	str	r0, [sp, #0]
    a55a:	9b00      	ldr	r3, [sp, #0]
    a55c:	f003 0301 	and.w	r3, r3, #1
    a560:	2b00      	cmp	r3, #0
    a562:	d100      	bne.n	a566 <SchM_Enter_Pwm_PWM_EXCLUSIVE_AREA_13+0x2a>
    a564:	b672      	cpsid	i
    a566:	490a      	ldr	r1, [pc, #40]	; (a590 <SchM_Enter_Pwm_PWM_EXCLUSIVE_AREA_13+0x54>)
    a568:	9b01      	ldr	r3, [sp, #4]
    a56a:	9a00      	ldr	r2, [sp, #0]
    a56c:	f841 2023 	str.w	r2, [r1, r3, lsl #2]
    a570:	4a06      	ldr	r2, [pc, #24]	; (a58c <SchM_Enter_Pwm_PWM_EXCLUSIVE_AREA_13+0x50>)
    a572:	9b01      	ldr	r3, [sp, #4]
    a574:	f852 3023 	ldr.w	r3, [r2, r3, lsl #2]
    a578:	1c5a      	adds	r2, r3, #1
    a57a:	4904      	ldr	r1, [pc, #16]	; (a58c <SchM_Enter_Pwm_PWM_EXCLUSIVE_AREA_13+0x50>)
    a57c:	9b01      	ldr	r3, [sp, #4]
    a57e:	f841 2023 	str.w	r2, [r1, r3, lsl #2]
    a582:	bf00      	nop
    a584:	b003      	add	sp, #12
    a586:	f85d fb04 	ldr.w	pc, [sp], #4
    a58a:	bf00      	nop
    a58c:	1fff9248 	.word	0x1fff9248
    a590:	1fff9244 	.word	0x1fff9244

0000a594 <SchM_Exit_Pwm_PWM_EXCLUSIVE_AREA_13>:
    a594:	b500      	push	{lr}
    a596:	b083      	sub	sp, #12
    a598:	f7f6 fa88 	bl	aac <Sys_GetCoreID>
    a59c:	4603      	mov	r3, r0
    a59e:	9301      	str	r3, [sp, #4]
    a5a0:	4a0d      	ldr	r2, [pc, #52]	; (a5d8 <SchM_Exit_Pwm_PWM_EXCLUSIVE_AREA_13+0x44>)
    a5a2:	9b01      	ldr	r3, [sp, #4]
    a5a4:	f852 3023 	ldr.w	r3, [r2, r3, lsl #2]
    a5a8:	1e5a      	subs	r2, r3, #1
    a5aa:	490b      	ldr	r1, [pc, #44]	; (a5d8 <SchM_Exit_Pwm_PWM_EXCLUSIVE_AREA_13+0x44>)
    a5ac:	9b01      	ldr	r3, [sp, #4]
    a5ae:	f841 2023 	str.w	r2, [r1, r3, lsl #2]
    a5b2:	4a0a      	ldr	r2, [pc, #40]	; (a5dc <SchM_Exit_Pwm_PWM_EXCLUSIVE_AREA_13+0x48>)
    a5b4:	9b01      	ldr	r3, [sp, #4]
    a5b6:	f852 3023 	ldr.w	r3, [r2, r3, lsl #2]
    a5ba:	f003 0301 	and.w	r3, r3, #1
    a5be:	2b00      	cmp	r3, #0
    a5c0:	d106      	bne.n	a5d0 <SchM_Exit_Pwm_PWM_EXCLUSIVE_AREA_13+0x3c>
    a5c2:	4a05      	ldr	r2, [pc, #20]	; (a5d8 <SchM_Exit_Pwm_PWM_EXCLUSIVE_AREA_13+0x44>)
    a5c4:	9b01      	ldr	r3, [sp, #4]
    a5c6:	f852 3023 	ldr.w	r3, [r2, r3, lsl #2]
    a5ca:	2b00      	cmp	r3, #0
    a5cc:	d100      	bne.n	a5d0 <SchM_Exit_Pwm_PWM_EXCLUSIVE_AREA_13+0x3c>
    a5ce:	b662      	cpsie	i
    a5d0:	bf00      	nop
    a5d2:	b003      	add	sp, #12
    a5d4:	f85d fb04 	ldr.w	pc, [sp], #4
    a5d8:	1fff9248 	.word	0x1fff9248
    a5dc:	1fff9244 	.word	0x1fff9244

0000a5e0 <SchM_Enter_Pwm_PWM_EXCLUSIVE_AREA_14>:
    a5e0:	b500      	push	{lr}
    a5e2:	b083      	sub	sp, #12
    a5e4:	f7f6 fa62 	bl	aac <Sys_GetCoreID>
    a5e8:	4603      	mov	r3, r0
    a5ea:	9301      	str	r3, [sp, #4]
    a5ec:	4a10      	ldr	r2, [pc, #64]	; (a630 <SchM_Enter_Pwm_PWM_EXCLUSIVE_AREA_14+0x50>)
    a5ee:	9b01      	ldr	r3, [sp, #4]
    a5f0:	f852 3023 	ldr.w	r3, [r2, r3, lsl #2]
    a5f4:	2b00      	cmp	r3, #0
    a5f6:	d10d      	bne.n	a614 <SchM_Enter_Pwm_PWM_EXCLUSIVE_AREA_14+0x34>
    a5f8:	f7f6 f988 	bl	90c <Pwm_schm_read_msr>
    a5fc:	9000      	str	r0, [sp, #0]
    a5fe:	9b00      	ldr	r3, [sp, #0]
    a600:	f003 0301 	and.w	r3, r3, #1
    a604:	2b00      	cmp	r3, #0
    a606:	d100      	bne.n	a60a <SchM_Enter_Pwm_PWM_EXCLUSIVE_AREA_14+0x2a>
    a608:	b672      	cpsid	i
    a60a:	490a      	ldr	r1, [pc, #40]	; (a634 <SchM_Enter_Pwm_PWM_EXCLUSIVE_AREA_14+0x54>)
    a60c:	9b01      	ldr	r3, [sp, #4]
    a60e:	9a00      	ldr	r2, [sp, #0]
    a610:	f841 2023 	str.w	r2, [r1, r3, lsl #2]
    a614:	4a06      	ldr	r2, [pc, #24]	; (a630 <SchM_Enter_Pwm_PWM_EXCLUSIVE_AREA_14+0x50>)
    a616:	9b01      	ldr	r3, [sp, #4]
    a618:	f852 3023 	ldr.w	r3, [r2, r3, lsl #2]
    a61c:	1c5a      	adds	r2, r3, #1
    a61e:	4904      	ldr	r1, [pc, #16]	; (a630 <SchM_Enter_Pwm_PWM_EXCLUSIVE_AREA_14+0x50>)
    a620:	9b01      	ldr	r3, [sp, #4]
    a622:	f841 2023 	str.w	r2, [r1, r3, lsl #2]
    a626:	bf00      	nop
    a628:	b003      	add	sp, #12
    a62a:	f85d fb04 	ldr.w	pc, [sp], #4
    a62e:	bf00      	nop
    a630:	1fff9250 	.word	0x1fff9250
    a634:	1fff924c 	.word	0x1fff924c

0000a638 <SchM_Exit_Pwm_PWM_EXCLUSIVE_AREA_14>:
    a638:	b500      	push	{lr}
    a63a:	b083      	sub	sp, #12
    a63c:	f7f6 fa36 	bl	aac <Sys_GetCoreID>
    a640:	4603      	mov	r3, r0
    a642:	9301      	str	r3, [sp, #4]
    a644:	4a0d      	ldr	r2, [pc, #52]	; (a67c <SchM_Exit_Pwm_PWM_EXCLUSIVE_AREA_14+0x44>)
    a646:	9b01      	ldr	r3, [sp, #4]
    a648:	f852 3023 	ldr.w	r3, [r2, r3, lsl #2]
    a64c:	1e5a      	subs	r2, r3, #1
    a64e:	490b      	ldr	r1, [pc, #44]	; (a67c <SchM_Exit_Pwm_PWM_EXCLUSIVE_AREA_14+0x44>)
    a650:	9b01      	ldr	r3, [sp, #4]
    a652:	f841 2023 	str.w	r2, [r1, r3, lsl #2]
    a656:	4a0a      	ldr	r2, [pc, #40]	; (a680 <SchM_Exit_Pwm_PWM_EXCLUSIVE_AREA_14+0x48>)
    a658:	9b01      	ldr	r3, [sp, #4]
    a65a:	f852 3023 	ldr.w	r3, [r2, r3, lsl #2]
    a65e:	f003 0301 	and.w	r3, r3, #1
    a662:	2b00      	cmp	r3, #0
    a664:	d106      	bne.n	a674 <SchM_Exit_Pwm_PWM_EXCLUSIVE_AREA_14+0x3c>
    a666:	4a05      	ldr	r2, [pc, #20]	; (a67c <SchM_Exit_Pwm_PWM_EXCLUSIVE_AREA_14+0x44>)
    a668:	9b01      	ldr	r3, [sp, #4]
    a66a:	f852 3023 	ldr.w	r3, [r2, r3, lsl #2]
    a66e:	2b00      	cmp	r3, #0
    a670:	d100      	bne.n	a674 <SchM_Exit_Pwm_PWM_EXCLUSIVE_AREA_14+0x3c>
    a672:	b662      	cpsie	i
    a674:	bf00      	nop
    a676:	b003      	add	sp, #12
    a678:	f85d fb04 	ldr.w	pc, [sp], #4
    a67c:	1fff9250 	.word	0x1fff9250
    a680:	1fff924c 	.word	0x1fff924c

0000a684 <SchM_Enter_Pwm_PWM_EXCLUSIVE_AREA_15>:
    a684:	b500      	push	{lr}
    a686:	b083      	sub	sp, #12
    a688:	f7f6 fa10 	bl	aac <Sys_GetCoreID>
    a68c:	4603      	mov	r3, r0
    a68e:	9301      	str	r3, [sp, #4]
    a690:	4a10      	ldr	r2, [pc, #64]	; (a6d4 <SchM_Enter_Pwm_PWM_EXCLUSIVE_AREA_15+0x50>)
    a692:	9b01      	ldr	r3, [sp, #4]
    a694:	f852 3023 	ldr.w	r3, [r2, r3, lsl #2]
    a698:	2b00      	cmp	r3, #0
    a69a:	d10d      	bne.n	a6b8 <SchM_Enter_Pwm_PWM_EXCLUSIVE_AREA_15+0x34>
    a69c:	f7f6 f936 	bl	90c <Pwm_schm_read_msr>
    a6a0:	9000      	str	r0, [sp, #0]
    a6a2:	9b00      	ldr	r3, [sp, #0]
    a6a4:	f003 0301 	and.w	r3, r3, #1
    a6a8:	2b00      	cmp	r3, #0
    a6aa:	d100      	bne.n	a6ae <SchM_Enter_Pwm_PWM_EXCLUSIVE_AREA_15+0x2a>
    a6ac:	b672      	cpsid	i
    a6ae:	490a      	ldr	r1, [pc, #40]	; (a6d8 <SchM_Enter_Pwm_PWM_EXCLUSIVE_AREA_15+0x54>)
    a6b0:	9b01      	ldr	r3, [sp, #4]
    a6b2:	9a00      	ldr	r2, [sp, #0]
    a6b4:	f841 2023 	str.w	r2, [r1, r3, lsl #2]
    a6b8:	4a06      	ldr	r2, [pc, #24]	; (a6d4 <SchM_Enter_Pwm_PWM_EXCLUSIVE_AREA_15+0x50>)
    a6ba:	9b01      	ldr	r3, [sp, #4]
    a6bc:	f852 3023 	ldr.w	r3, [r2, r3, lsl #2]
    a6c0:	1c5a      	adds	r2, r3, #1
    a6c2:	4904      	ldr	r1, [pc, #16]	; (a6d4 <SchM_Enter_Pwm_PWM_EXCLUSIVE_AREA_15+0x50>)
    a6c4:	9b01      	ldr	r3, [sp, #4]
    a6c6:	f841 2023 	str.w	r2, [r1, r3, lsl #2]
    a6ca:	bf00      	nop
    a6cc:	b003      	add	sp, #12
    a6ce:	f85d fb04 	ldr.w	pc, [sp], #4
    a6d2:	bf00      	nop
    a6d4:	1fff9258 	.word	0x1fff9258
    a6d8:	1fff9254 	.word	0x1fff9254

0000a6dc <SchM_Exit_Pwm_PWM_EXCLUSIVE_AREA_15>:
    a6dc:	b500      	push	{lr}
    a6de:	b083      	sub	sp, #12
    a6e0:	f7f6 f9e4 	bl	aac <Sys_GetCoreID>
    a6e4:	4603      	mov	r3, r0
    a6e6:	9301      	str	r3, [sp, #4]
    a6e8:	4a0d      	ldr	r2, [pc, #52]	; (a720 <SchM_Exit_Pwm_PWM_EXCLUSIVE_AREA_15+0x44>)
    a6ea:	9b01      	ldr	r3, [sp, #4]
    a6ec:	f852 3023 	ldr.w	r3, [r2, r3, lsl #2]
    a6f0:	1e5a      	subs	r2, r3, #1
    a6f2:	490b      	ldr	r1, [pc, #44]	; (a720 <SchM_Exit_Pwm_PWM_EXCLUSIVE_AREA_15+0x44>)
    a6f4:	9b01      	ldr	r3, [sp, #4]
    a6f6:	f841 2023 	str.w	r2, [r1, r3, lsl #2]
    a6fa:	4a0a      	ldr	r2, [pc, #40]	; (a724 <SchM_Exit_Pwm_PWM_EXCLUSIVE_AREA_15+0x48>)
    a6fc:	9b01      	ldr	r3, [sp, #4]
    a6fe:	f852 3023 	ldr.w	r3, [r2, r3, lsl #2]
    a702:	f003 0301 	and.w	r3, r3, #1
    a706:	2b00      	cmp	r3, #0
    a708:	d106      	bne.n	a718 <SchM_Exit_Pwm_PWM_EXCLUSIVE_AREA_15+0x3c>
    a70a:	4a05      	ldr	r2, [pc, #20]	; (a720 <SchM_Exit_Pwm_PWM_EXCLUSIVE_AREA_15+0x44>)
    a70c:	9b01      	ldr	r3, [sp, #4]
    a70e:	f852 3023 	ldr.w	r3, [r2, r3, lsl #2]
    a712:	2b00      	cmp	r3, #0
    a714:	d100      	bne.n	a718 <SchM_Exit_Pwm_PWM_EXCLUSIVE_AREA_15+0x3c>
    a716:	b662      	cpsie	i
    a718:	bf00      	nop
    a71a:	b003      	add	sp, #12
    a71c:	f85d fb04 	ldr.w	pc, [sp], #4
    a720:	1fff9258 	.word	0x1fff9258
    a724:	1fff9254 	.word	0x1fff9254

0000a728 <SchM_Enter_Pwm_PWM_EXCLUSIVE_AREA_16>:
    a728:	b500      	push	{lr}
    a72a:	b083      	sub	sp, #12
    a72c:	f7f6 f9be 	bl	aac <Sys_GetCoreID>
    a730:	4603      	mov	r3, r0
    a732:	9301      	str	r3, [sp, #4]
    a734:	4a10      	ldr	r2, [pc, #64]	; (a778 <SchM_Enter_Pwm_PWM_EXCLUSIVE_AREA_16+0x50>)
    a736:	9b01      	ldr	r3, [sp, #4]
    a738:	f852 3023 	ldr.w	r3, [r2, r3, lsl #2]
    a73c:	2b00      	cmp	r3, #0
    a73e:	d10d      	bne.n	a75c <SchM_Enter_Pwm_PWM_EXCLUSIVE_AREA_16+0x34>
    a740:	f7f6 f8e4 	bl	90c <Pwm_schm_read_msr>
    a744:	9000      	str	r0, [sp, #0]
    a746:	9b00      	ldr	r3, [sp, #0]
    a748:	f003 0301 	and.w	r3, r3, #1
    a74c:	2b00      	cmp	r3, #0
    a74e:	d100      	bne.n	a752 <SchM_Enter_Pwm_PWM_EXCLUSIVE_AREA_16+0x2a>
    a750:	b672      	cpsid	i
    a752:	490a      	ldr	r1, [pc, #40]	; (a77c <SchM_Enter_Pwm_PWM_EXCLUSIVE_AREA_16+0x54>)
    a754:	9b01      	ldr	r3, [sp, #4]
    a756:	9a00      	ldr	r2, [sp, #0]
    a758:	f841 2023 	str.w	r2, [r1, r3, lsl #2]
    a75c:	4a06      	ldr	r2, [pc, #24]	; (a778 <SchM_Enter_Pwm_PWM_EXCLUSIVE_AREA_16+0x50>)
    a75e:	9b01      	ldr	r3, [sp, #4]
    a760:	f852 3023 	ldr.w	r3, [r2, r3, lsl #2]
    a764:	1c5a      	adds	r2, r3, #1
    a766:	4904      	ldr	r1, [pc, #16]	; (a778 <SchM_Enter_Pwm_PWM_EXCLUSIVE_AREA_16+0x50>)
    a768:	9b01      	ldr	r3, [sp, #4]
    a76a:	f841 2023 	str.w	r2, [r1, r3, lsl #2]
    a76e:	bf00      	nop
    a770:	b003      	add	sp, #12
    a772:	f85d fb04 	ldr.w	pc, [sp], #4
    a776:	bf00      	nop
    a778:	1fff9260 	.word	0x1fff9260
    a77c:	1fff925c 	.word	0x1fff925c

0000a780 <SchM_Exit_Pwm_PWM_EXCLUSIVE_AREA_16>:
    a780:	b500      	push	{lr}
    a782:	b083      	sub	sp, #12
    a784:	f7f6 f992 	bl	aac <Sys_GetCoreID>
    a788:	4603      	mov	r3, r0
    a78a:	9301      	str	r3, [sp, #4]
    a78c:	4a0d      	ldr	r2, [pc, #52]	; (a7c4 <SchM_Exit_Pwm_PWM_EXCLUSIVE_AREA_16+0x44>)
    a78e:	9b01      	ldr	r3, [sp, #4]
    a790:	f852 3023 	ldr.w	r3, [r2, r3, lsl #2]
    a794:	1e5a      	subs	r2, r3, #1
    a796:	490b      	ldr	r1, [pc, #44]	; (a7c4 <SchM_Exit_Pwm_PWM_EXCLUSIVE_AREA_16+0x44>)
    a798:	9b01      	ldr	r3, [sp, #4]
    a79a:	f841 2023 	str.w	r2, [r1, r3, lsl #2]
    a79e:	4a0a      	ldr	r2, [pc, #40]	; (a7c8 <SchM_Exit_Pwm_PWM_EXCLUSIVE_AREA_16+0x48>)
    a7a0:	9b01      	ldr	r3, [sp, #4]
    a7a2:	f852 3023 	ldr.w	r3, [r2, r3, lsl #2]
    a7a6:	f003 0301 	and.w	r3, r3, #1
    a7aa:	2b00      	cmp	r3, #0
    a7ac:	d106      	bne.n	a7bc <SchM_Exit_Pwm_PWM_EXCLUSIVE_AREA_16+0x3c>
    a7ae:	4a05      	ldr	r2, [pc, #20]	; (a7c4 <SchM_Exit_Pwm_PWM_EXCLUSIVE_AREA_16+0x44>)
    a7b0:	9b01      	ldr	r3, [sp, #4]
    a7b2:	f852 3023 	ldr.w	r3, [r2, r3, lsl #2]
    a7b6:	2b00      	cmp	r3, #0
    a7b8:	d100      	bne.n	a7bc <SchM_Exit_Pwm_PWM_EXCLUSIVE_AREA_16+0x3c>
    a7ba:	b662      	cpsie	i
    a7bc:	bf00      	nop
    a7be:	b003      	add	sp, #12
    a7c0:	f85d fb04 	ldr.w	pc, [sp], #4
    a7c4:	1fff9260 	.word	0x1fff9260
    a7c8:	1fff925c 	.word	0x1fff925c

0000a7cc <SchM_Enter_Pwm_PWM_EXCLUSIVE_AREA_17>:
    a7cc:	b500      	push	{lr}
    a7ce:	b083      	sub	sp, #12
    a7d0:	f7f6 f96c 	bl	aac <Sys_GetCoreID>
    a7d4:	4603      	mov	r3, r0
    a7d6:	9301      	str	r3, [sp, #4]
    a7d8:	4a10      	ldr	r2, [pc, #64]	; (a81c <SchM_Enter_Pwm_PWM_EXCLUSIVE_AREA_17+0x50>)
    a7da:	9b01      	ldr	r3, [sp, #4]
    a7dc:	f852 3023 	ldr.w	r3, [r2, r3, lsl #2]
    a7e0:	2b00      	cmp	r3, #0
    a7e2:	d10d      	bne.n	a800 <SchM_Enter_Pwm_PWM_EXCLUSIVE_AREA_17+0x34>
    a7e4:	f7f6 f892 	bl	90c <Pwm_schm_read_msr>
    a7e8:	9000      	str	r0, [sp, #0]
    a7ea:	9b00      	ldr	r3, [sp, #0]
    a7ec:	f003 0301 	and.w	r3, r3, #1
    a7f0:	2b00      	cmp	r3, #0
    a7f2:	d100      	bne.n	a7f6 <SchM_Enter_Pwm_PWM_EXCLUSIVE_AREA_17+0x2a>
    a7f4:	b672      	cpsid	i
    a7f6:	490a      	ldr	r1, [pc, #40]	; (a820 <SchM_Enter_Pwm_PWM_EXCLUSIVE_AREA_17+0x54>)
    a7f8:	9b01      	ldr	r3, [sp, #4]
    a7fa:	9a00      	ldr	r2, [sp, #0]
    a7fc:	f841 2023 	str.w	r2, [r1, r3, lsl #2]
    a800:	4a06      	ldr	r2, [pc, #24]	; (a81c <SchM_Enter_Pwm_PWM_EXCLUSIVE_AREA_17+0x50>)
    a802:	9b01      	ldr	r3, [sp, #4]
    a804:	f852 3023 	ldr.w	r3, [r2, r3, lsl #2]
    a808:	1c5a      	adds	r2, r3, #1
    a80a:	4904      	ldr	r1, [pc, #16]	; (a81c <SchM_Enter_Pwm_PWM_EXCLUSIVE_AREA_17+0x50>)
    a80c:	9b01      	ldr	r3, [sp, #4]
    a80e:	f841 2023 	str.w	r2, [r1, r3, lsl #2]
    a812:	bf00      	nop
    a814:	b003      	add	sp, #12
    a816:	f85d fb04 	ldr.w	pc, [sp], #4
    a81a:	bf00      	nop
    a81c:	1fff9268 	.word	0x1fff9268
    a820:	1fff9264 	.word	0x1fff9264

0000a824 <SchM_Exit_Pwm_PWM_EXCLUSIVE_AREA_17>:
    a824:	b500      	push	{lr}
    a826:	b083      	sub	sp, #12
    a828:	f7f6 f940 	bl	aac <Sys_GetCoreID>
    a82c:	4603      	mov	r3, r0
    a82e:	9301      	str	r3, [sp, #4]
    a830:	4a0d      	ldr	r2, [pc, #52]	; (a868 <SchM_Exit_Pwm_PWM_EXCLUSIVE_AREA_17+0x44>)
    a832:	9b01      	ldr	r3, [sp, #4]
    a834:	f852 3023 	ldr.w	r3, [r2, r3, lsl #2]
    a838:	1e5a      	subs	r2, r3, #1
    a83a:	490b      	ldr	r1, [pc, #44]	; (a868 <SchM_Exit_Pwm_PWM_EXCLUSIVE_AREA_17+0x44>)
    a83c:	9b01      	ldr	r3, [sp, #4]
    a83e:	f841 2023 	str.w	r2, [r1, r3, lsl #2]
    a842:	4a0a      	ldr	r2, [pc, #40]	; (a86c <SchM_Exit_Pwm_PWM_EXCLUSIVE_AREA_17+0x48>)
    a844:	9b01      	ldr	r3, [sp, #4]
    a846:	f852 3023 	ldr.w	r3, [r2, r3, lsl #2]
    a84a:	f003 0301 	and.w	r3, r3, #1
    a84e:	2b00      	cmp	r3, #0
    a850:	d106      	bne.n	a860 <SchM_Exit_Pwm_PWM_EXCLUSIVE_AREA_17+0x3c>
    a852:	4a05      	ldr	r2, [pc, #20]	; (a868 <SchM_Exit_Pwm_PWM_EXCLUSIVE_AREA_17+0x44>)
    a854:	9b01      	ldr	r3, [sp, #4]
    a856:	f852 3023 	ldr.w	r3, [r2, r3, lsl #2]
    a85a:	2b00      	cmp	r3, #0
    a85c:	d100      	bne.n	a860 <SchM_Exit_Pwm_PWM_EXCLUSIVE_AREA_17+0x3c>
    a85e:	b662      	cpsie	i
    a860:	bf00      	nop
    a862:	b003      	add	sp, #12
    a864:	f85d fb04 	ldr.w	pc, [sp], #4
    a868:	1fff9268 	.word	0x1fff9268
    a86c:	1fff9264 	.word	0x1fff9264

0000a870 <SchM_Enter_Pwm_PWM_EXCLUSIVE_AREA_18>:
    a870:	b500      	push	{lr}
    a872:	b083      	sub	sp, #12
    a874:	f7f6 f91a 	bl	aac <Sys_GetCoreID>
    a878:	4603      	mov	r3, r0
    a87a:	9301      	str	r3, [sp, #4]
    a87c:	4a10      	ldr	r2, [pc, #64]	; (a8c0 <SchM_Enter_Pwm_PWM_EXCLUSIVE_AREA_18+0x50>)
    a87e:	9b01      	ldr	r3, [sp, #4]
    a880:	f852 3023 	ldr.w	r3, [r2, r3, lsl #2]
    a884:	2b00      	cmp	r3, #0
    a886:	d10d      	bne.n	a8a4 <SchM_Enter_Pwm_PWM_EXCLUSIVE_AREA_18+0x34>
    a888:	f7f6 f840 	bl	90c <Pwm_schm_read_msr>
    a88c:	9000      	str	r0, [sp, #0]
    a88e:	9b00      	ldr	r3, [sp, #0]
    a890:	f003 0301 	and.w	r3, r3, #1
    a894:	2b00      	cmp	r3, #0
    a896:	d100      	bne.n	a89a <SchM_Enter_Pwm_PWM_EXCLUSIVE_AREA_18+0x2a>
    a898:	b672      	cpsid	i
    a89a:	490a      	ldr	r1, [pc, #40]	; (a8c4 <SchM_Enter_Pwm_PWM_EXCLUSIVE_AREA_18+0x54>)
    a89c:	9b01      	ldr	r3, [sp, #4]
    a89e:	9a00      	ldr	r2, [sp, #0]
    a8a0:	f841 2023 	str.w	r2, [r1, r3, lsl #2]
    a8a4:	4a06      	ldr	r2, [pc, #24]	; (a8c0 <SchM_Enter_Pwm_PWM_EXCLUSIVE_AREA_18+0x50>)
    a8a6:	9b01      	ldr	r3, [sp, #4]
    a8a8:	f852 3023 	ldr.w	r3, [r2, r3, lsl #2]
    a8ac:	1c5a      	adds	r2, r3, #1
    a8ae:	4904      	ldr	r1, [pc, #16]	; (a8c0 <SchM_Enter_Pwm_PWM_EXCLUSIVE_AREA_18+0x50>)
    a8b0:	9b01      	ldr	r3, [sp, #4]
    a8b2:	f841 2023 	str.w	r2, [r1, r3, lsl #2]
    a8b6:	bf00      	nop
    a8b8:	b003      	add	sp, #12
    a8ba:	f85d fb04 	ldr.w	pc, [sp], #4
    a8be:	bf00      	nop
    a8c0:	1fff9270 	.word	0x1fff9270
    a8c4:	1fff926c 	.word	0x1fff926c

0000a8c8 <SchM_Exit_Pwm_PWM_EXCLUSIVE_AREA_18>:
    a8c8:	b500      	push	{lr}
    a8ca:	b083      	sub	sp, #12
    a8cc:	f7f6 f8ee 	bl	aac <Sys_GetCoreID>
    a8d0:	4603      	mov	r3, r0
    a8d2:	9301      	str	r3, [sp, #4]
    a8d4:	4a0d      	ldr	r2, [pc, #52]	; (a90c <SchM_Exit_Pwm_PWM_EXCLUSIVE_AREA_18+0x44>)
    a8d6:	9b01      	ldr	r3, [sp, #4]
    a8d8:	f852 3023 	ldr.w	r3, [r2, r3, lsl #2]
    a8dc:	1e5a      	subs	r2, r3, #1
    a8de:	490b      	ldr	r1, [pc, #44]	; (a90c <SchM_Exit_Pwm_PWM_EXCLUSIVE_AREA_18+0x44>)
    a8e0:	9b01      	ldr	r3, [sp, #4]
    a8e2:	f841 2023 	str.w	r2, [r1, r3, lsl #2]
    a8e6:	4a0a      	ldr	r2, [pc, #40]	; (a910 <SchM_Exit_Pwm_PWM_EXCLUSIVE_AREA_18+0x48>)
    a8e8:	9b01      	ldr	r3, [sp, #4]
    a8ea:	f852 3023 	ldr.w	r3, [r2, r3, lsl #2]
    a8ee:	f003 0301 	and.w	r3, r3, #1
    a8f2:	2b00      	cmp	r3, #0
    a8f4:	d106      	bne.n	a904 <SchM_Exit_Pwm_PWM_EXCLUSIVE_AREA_18+0x3c>
    a8f6:	4a05      	ldr	r2, [pc, #20]	; (a90c <SchM_Exit_Pwm_PWM_EXCLUSIVE_AREA_18+0x44>)
    a8f8:	9b01      	ldr	r3, [sp, #4]
    a8fa:	f852 3023 	ldr.w	r3, [r2, r3, lsl #2]
    a8fe:	2b00      	cmp	r3, #0
    a900:	d100      	bne.n	a904 <SchM_Exit_Pwm_PWM_EXCLUSIVE_AREA_18+0x3c>
    a902:	b662      	cpsie	i
    a904:	bf00      	nop
    a906:	b003      	add	sp, #12
    a908:	f85d fb04 	ldr.w	pc, [sp], #4
    a90c:	1fff9270 	.word	0x1fff9270
    a910:	1fff926c 	.word	0x1fff926c

0000a914 <SchM_Enter_Pwm_PWM_EXCLUSIVE_AREA_19>:
    a914:	b500      	push	{lr}
    a916:	b083      	sub	sp, #12
    a918:	f7f6 f8c8 	bl	aac <Sys_GetCoreID>
    a91c:	4603      	mov	r3, r0
    a91e:	9301      	str	r3, [sp, #4]
    a920:	4a10      	ldr	r2, [pc, #64]	; (a964 <SchM_Enter_Pwm_PWM_EXCLUSIVE_AREA_19+0x50>)
    a922:	9b01      	ldr	r3, [sp, #4]
    a924:	f852 3023 	ldr.w	r3, [r2, r3, lsl #2]
    a928:	2b00      	cmp	r3, #0
    a92a:	d10d      	bne.n	a948 <SchM_Enter_Pwm_PWM_EXCLUSIVE_AREA_19+0x34>
    a92c:	f7f5 ffee 	bl	90c <Pwm_schm_read_msr>
    a930:	9000      	str	r0, [sp, #0]
    a932:	9b00      	ldr	r3, [sp, #0]
    a934:	f003 0301 	and.w	r3, r3, #1
    a938:	2b00      	cmp	r3, #0
    a93a:	d100      	bne.n	a93e <SchM_Enter_Pwm_PWM_EXCLUSIVE_AREA_19+0x2a>
    a93c:	b672      	cpsid	i
    a93e:	490a      	ldr	r1, [pc, #40]	; (a968 <SchM_Enter_Pwm_PWM_EXCLUSIVE_AREA_19+0x54>)
    a940:	9b01      	ldr	r3, [sp, #4]
    a942:	9a00      	ldr	r2, [sp, #0]
    a944:	f841 2023 	str.w	r2, [r1, r3, lsl #2]
    a948:	4a06      	ldr	r2, [pc, #24]	; (a964 <SchM_Enter_Pwm_PWM_EXCLUSIVE_AREA_19+0x50>)
    a94a:	9b01      	ldr	r3, [sp, #4]
    a94c:	f852 3023 	ldr.w	r3, [r2, r3, lsl #2]
    a950:	1c5a      	adds	r2, r3, #1
    a952:	4904      	ldr	r1, [pc, #16]	; (a964 <SchM_Enter_Pwm_PWM_EXCLUSIVE_AREA_19+0x50>)
    a954:	9b01      	ldr	r3, [sp, #4]
    a956:	f841 2023 	str.w	r2, [r1, r3, lsl #2]
    a95a:	bf00      	nop
    a95c:	b003      	add	sp, #12
    a95e:	f85d fb04 	ldr.w	pc, [sp], #4
    a962:	bf00      	nop
    a964:	1fff9278 	.word	0x1fff9278
    a968:	1fff9274 	.word	0x1fff9274

0000a96c <SchM_Exit_Pwm_PWM_EXCLUSIVE_AREA_19>:
    a96c:	b500      	push	{lr}
    a96e:	b083      	sub	sp, #12
    a970:	f7f6 f89c 	bl	aac <Sys_GetCoreID>
    a974:	4603      	mov	r3, r0
    a976:	9301      	str	r3, [sp, #4]
    a978:	4a0d      	ldr	r2, [pc, #52]	; (a9b0 <SchM_Exit_Pwm_PWM_EXCLUSIVE_AREA_19+0x44>)
    a97a:	9b01      	ldr	r3, [sp, #4]
    a97c:	f852 3023 	ldr.w	r3, [r2, r3, lsl #2]
    a980:	1e5a      	subs	r2, r3, #1
    a982:	490b      	ldr	r1, [pc, #44]	; (a9b0 <SchM_Exit_Pwm_PWM_EXCLUSIVE_AREA_19+0x44>)
    a984:	9b01      	ldr	r3, [sp, #4]
    a986:	f841 2023 	str.w	r2, [r1, r3, lsl #2]
    a98a:	4a0a      	ldr	r2, [pc, #40]	; (a9b4 <SchM_Exit_Pwm_PWM_EXCLUSIVE_AREA_19+0x48>)
    a98c:	9b01      	ldr	r3, [sp, #4]
    a98e:	f852 3023 	ldr.w	r3, [r2, r3, lsl #2]
    a992:	f003 0301 	and.w	r3, r3, #1
    a996:	2b00      	cmp	r3, #0
    a998:	d106      	bne.n	a9a8 <SchM_Exit_Pwm_PWM_EXCLUSIVE_AREA_19+0x3c>
    a99a:	4a05      	ldr	r2, [pc, #20]	; (a9b0 <SchM_Exit_Pwm_PWM_EXCLUSIVE_AREA_19+0x44>)
    a99c:	9b01      	ldr	r3, [sp, #4]
    a99e:	f852 3023 	ldr.w	r3, [r2, r3, lsl #2]
    a9a2:	2b00      	cmp	r3, #0
    a9a4:	d100      	bne.n	a9a8 <SchM_Exit_Pwm_PWM_EXCLUSIVE_AREA_19+0x3c>
    a9a6:	b662      	cpsie	i
    a9a8:	bf00      	nop
    a9aa:	b003      	add	sp, #12
    a9ac:	f85d fb04 	ldr.w	pc, [sp], #4
    a9b0:	1fff9278 	.word	0x1fff9278
    a9b4:	1fff9274 	.word	0x1fff9274

0000a9b8 <SchM_Enter_Pwm_PWM_EXCLUSIVE_AREA_20>:
    a9b8:	b500      	push	{lr}
    a9ba:	b083      	sub	sp, #12
    a9bc:	f7f6 f876 	bl	aac <Sys_GetCoreID>
    a9c0:	4603      	mov	r3, r0
    a9c2:	9301      	str	r3, [sp, #4]
    a9c4:	4a10      	ldr	r2, [pc, #64]	; (aa08 <SchM_Enter_Pwm_PWM_EXCLUSIVE_AREA_20+0x50>)
    a9c6:	9b01      	ldr	r3, [sp, #4]
    a9c8:	f852 3023 	ldr.w	r3, [r2, r3, lsl #2]
    a9cc:	2b00      	cmp	r3, #0
    a9ce:	d10d      	bne.n	a9ec <SchM_Enter_Pwm_PWM_EXCLUSIVE_AREA_20+0x34>
    a9d0:	f7f5 ff9c 	bl	90c <Pwm_schm_read_msr>
    a9d4:	9000      	str	r0, [sp, #0]
    a9d6:	9b00      	ldr	r3, [sp, #0]
    a9d8:	f003 0301 	and.w	r3, r3, #1
    a9dc:	2b00      	cmp	r3, #0
    a9de:	d100      	bne.n	a9e2 <SchM_Enter_Pwm_PWM_EXCLUSIVE_AREA_20+0x2a>
    a9e0:	b672      	cpsid	i
    a9e2:	490a      	ldr	r1, [pc, #40]	; (aa0c <SchM_Enter_Pwm_PWM_EXCLUSIVE_AREA_20+0x54>)
    a9e4:	9b01      	ldr	r3, [sp, #4]
    a9e6:	9a00      	ldr	r2, [sp, #0]
    a9e8:	f841 2023 	str.w	r2, [r1, r3, lsl #2]
    a9ec:	4a06      	ldr	r2, [pc, #24]	; (aa08 <SchM_Enter_Pwm_PWM_EXCLUSIVE_AREA_20+0x50>)
    a9ee:	9b01      	ldr	r3, [sp, #4]
    a9f0:	f852 3023 	ldr.w	r3, [r2, r3, lsl #2]
    a9f4:	1c5a      	adds	r2, r3, #1
    a9f6:	4904      	ldr	r1, [pc, #16]	; (aa08 <SchM_Enter_Pwm_PWM_EXCLUSIVE_AREA_20+0x50>)
    a9f8:	9b01      	ldr	r3, [sp, #4]
    a9fa:	f841 2023 	str.w	r2, [r1, r3, lsl #2]
    a9fe:	bf00      	nop
    aa00:	b003      	add	sp, #12
    aa02:	f85d fb04 	ldr.w	pc, [sp], #4
    aa06:	bf00      	nop
    aa08:	1fff9280 	.word	0x1fff9280
    aa0c:	1fff927c 	.word	0x1fff927c

0000aa10 <SchM_Exit_Pwm_PWM_EXCLUSIVE_AREA_20>:
    aa10:	b500      	push	{lr}
    aa12:	b083      	sub	sp, #12
    aa14:	f7f6 f84a 	bl	aac <Sys_GetCoreID>
    aa18:	4603      	mov	r3, r0
    aa1a:	9301      	str	r3, [sp, #4]
    aa1c:	4a0d      	ldr	r2, [pc, #52]	; (aa54 <SchM_Exit_Pwm_PWM_EXCLUSIVE_AREA_20+0x44>)
    aa1e:	9b01      	ldr	r3, [sp, #4]
    aa20:	f852 3023 	ldr.w	r3, [r2, r3, lsl #2]
    aa24:	1e5a      	subs	r2, r3, #1
    aa26:	490b      	ldr	r1, [pc, #44]	; (aa54 <SchM_Exit_Pwm_PWM_EXCLUSIVE_AREA_20+0x44>)
    aa28:	9b01      	ldr	r3, [sp, #4]
    aa2a:	f841 2023 	str.w	r2, [r1, r3, lsl #2]
    aa2e:	4a0a      	ldr	r2, [pc, #40]	; (aa58 <SchM_Exit_Pwm_PWM_EXCLUSIVE_AREA_20+0x48>)
    aa30:	9b01      	ldr	r3, [sp, #4]
    aa32:	f852 3023 	ldr.w	r3, [r2, r3, lsl #2]
    aa36:	f003 0301 	and.w	r3, r3, #1
    aa3a:	2b00      	cmp	r3, #0
    aa3c:	d106      	bne.n	aa4c <SchM_Exit_Pwm_PWM_EXCLUSIVE_AREA_20+0x3c>
    aa3e:	4a05      	ldr	r2, [pc, #20]	; (aa54 <SchM_Exit_Pwm_PWM_EXCLUSIVE_AREA_20+0x44>)
    aa40:	9b01      	ldr	r3, [sp, #4]
    aa42:	f852 3023 	ldr.w	r3, [r2, r3, lsl #2]
    aa46:	2b00      	cmp	r3, #0
    aa48:	d100      	bne.n	aa4c <SchM_Exit_Pwm_PWM_EXCLUSIVE_AREA_20+0x3c>
    aa4a:	b662      	cpsie	i
    aa4c:	bf00      	nop
    aa4e:	b003      	add	sp, #12
    aa50:	f85d fb04 	ldr.w	pc, [sp], #4
    aa54:	1fff9280 	.word	0x1fff9280
    aa58:	1fff927c 	.word	0x1fff927c

0000aa5c <SchM_Enter_Pwm_PWM_EXCLUSIVE_AREA_21>:
    aa5c:	b500      	push	{lr}
    aa5e:	b083      	sub	sp, #12
    aa60:	f7f6 f824 	bl	aac <Sys_GetCoreID>
    aa64:	4603      	mov	r3, r0
    aa66:	9301      	str	r3, [sp, #4]
    aa68:	4a10      	ldr	r2, [pc, #64]	; (aaac <SchM_Enter_Pwm_PWM_EXCLUSIVE_AREA_21+0x50>)
    aa6a:	9b01      	ldr	r3, [sp, #4]
    aa6c:	f852 3023 	ldr.w	r3, [r2, r3, lsl #2]
    aa70:	2b00      	cmp	r3, #0
    aa72:	d10d      	bne.n	aa90 <SchM_Enter_Pwm_PWM_EXCLUSIVE_AREA_21+0x34>
    aa74:	f7f5 ff4a 	bl	90c <Pwm_schm_read_msr>
    aa78:	9000      	str	r0, [sp, #0]
    aa7a:	9b00      	ldr	r3, [sp, #0]
    aa7c:	f003 0301 	and.w	r3, r3, #1
    aa80:	2b00      	cmp	r3, #0
    aa82:	d100      	bne.n	aa86 <SchM_Enter_Pwm_PWM_EXCLUSIVE_AREA_21+0x2a>
    aa84:	b672      	cpsid	i
    aa86:	490a      	ldr	r1, [pc, #40]	; (aab0 <SchM_Enter_Pwm_PWM_EXCLUSIVE_AREA_21+0x54>)
    aa88:	9b01      	ldr	r3, [sp, #4]
    aa8a:	9a00      	ldr	r2, [sp, #0]
    aa8c:	f841 2023 	str.w	r2, [r1, r3, lsl #2]
    aa90:	4a06      	ldr	r2, [pc, #24]	; (aaac <SchM_Enter_Pwm_PWM_EXCLUSIVE_AREA_21+0x50>)
    aa92:	9b01      	ldr	r3, [sp, #4]
    aa94:	f852 3023 	ldr.w	r3, [r2, r3, lsl #2]
    aa98:	1c5a      	adds	r2, r3, #1
    aa9a:	4904      	ldr	r1, [pc, #16]	; (aaac <SchM_Enter_Pwm_PWM_EXCLUSIVE_AREA_21+0x50>)
    aa9c:	9b01      	ldr	r3, [sp, #4]
    aa9e:	f841 2023 	str.w	r2, [r1, r3, lsl #2]
    aaa2:	bf00      	nop
    aaa4:	b003      	add	sp, #12
    aaa6:	f85d fb04 	ldr.w	pc, [sp], #4
    aaaa:	bf00      	nop
    aaac:	1fff9288 	.word	0x1fff9288
    aab0:	1fff9284 	.word	0x1fff9284

0000aab4 <SchM_Exit_Pwm_PWM_EXCLUSIVE_AREA_21>:
    aab4:	b500      	push	{lr}
    aab6:	b083      	sub	sp, #12
    aab8:	f7f5 fff8 	bl	aac <Sys_GetCoreID>
    aabc:	4603      	mov	r3, r0
    aabe:	9301      	str	r3, [sp, #4]
    aac0:	4a0d      	ldr	r2, [pc, #52]	; (aaf8 <SchM_Exit_Pwm_PWM_EXCLUSIVE_AREA_21+0x44>)
    aac2:	9b01      	ldr	r3, [sp, #4]
    aac4:	f852 3023 	ldr.w	r3, [r2, r3, lsl #2]
    aac8:	1e5a      	subs	r2, r3, #1
    aaca:	490b      	ldr	r1, [pc, #44]	; (aaf8 <SchM_Exit_Pwm_PWM_EXCLUSIVE_AREA_21+0x44>)
    aacc:	9b01      	ldr	r3, [sp, #4]
    aace:	f841 2023 	str.w	r2, [r1, r3, lsl #2]
    aad2:	4a0a      	ldr	r2, [pc, #40]	; (aafc <SchM_Exit_Pwm_PWM_EXCLUSIVE_AREA_21+0x48>)
    aad4:	9b01      	ldr	r3, [sp, #4]
    aad6:	f852 3023 	ldr.w	r3, [r2, r3, lsl #2]
    aada:	f003 0301 	and.w	r3, r3, #1
    aade:	2b00      	cmp	r3, #0
    aae0:	d106      	bne.n	aaf0 <SchM_Exit_Pwm_PWM_EXCLUSIVE_AREA_21+0x3c>
    aae2:	4a05      	ldr	r2, [pc, #20]	; (aaf8 <SchM_Exit_Pwm_PWM_EXCLUSIVE_AREA_21+0x44>)
    aae4:	9b01      	ldr	r3, [sp, #4]
    aae6:	f852 3023 	ldr.w	r3, [r2, r3, lsl #2]
    aaea:	2b00      	cmp	r3, #0
    aaec:	d100      	bne.n	aaf0 <SchM_Exit_Pwm_PWM_EXCLUSIVE_AREA_21+0x3c>
    aaee:	b662      	cpsie	i
    aaf0:	bf00      	nop
    aaf2:	b003      	add	sp, #12
    aaf4:	f85d fb04 	ldr.w	pc, [sp], #4
    aaf8:	1fff9288 	.word	0x1fff9288
    aafc:	1fff9284 	.word	0x1fff9284

0000ab00 <SchM_Enter_Pwm_PWM_EXCLUSIVE_AREA_22>:
    ab00:	b500      	push	{lr}
    ab02:	b083      	sub	sp, #12
    ab04:	f7f5 ffd2 	bl	aac <Sys_GetCoreID>
    ab08:	4603      	mov	r3, r0
    ab0a:	9301      	str	r3, [sp, #4]
    ab0c:	4a10      	ldr	r2, [pc, #64]	; (ab50 <SchM_Enter_Pwm_PWM_EXCLUSIVE_AREA_22+0x50>)
    ab0e:	9b01      	ldr	r3, [sp, #4]
    ab10:	f852 3023 	ldr.w	r3, [r2, r3, lsl #2]
    ab14:	2b00      	cmp	r3, #0
    ab16:	d10d      	bne.n	ab34 <SchM_Enter_Pwm_PWM_EXCLUSIVE_AREA_22+0x34>
    ab18:	f7f5 fef8 	bl	90c <Pwm_schm_read_msr>
    ab1c:	9000      	str	r0, [sp, #0]
    ab1e:	9b00      	ldr	r3, [sp, #0]
    ab20:	f003 0301 	and.w	r3, r3, #1
    ab24:	2b00      	cmp	r3, #0
    ab26:	d100      	bne.n	ab2a <SchM_Enter_Pwm_PWM_EXCLUSIVE_AREA_22+0x2a>
    ab28:	b672      	cpsid	i
    ab2a:	490a      	ldr	r1, [pc, #40]	; (ab54 <SchM_Enter_Pwm_PWM_EXCLUSIVE_AREA_22+0x54>)
    ab2c:	9b01      	ldr	r3, [sp, #4]
    ab2e:	9a00      	ldr	r2, [sp, #0]
    ab30:	f841 2023 	str.w	r2, [r1, r3, lsl #2]
    ab34:	4a06      	ldr	r2, [pc, #24]	; (ab50 <SchM_Enter_Pwm_PWM_EXCLUSIVE_AREA_22+0x50>)
    ab36:	9b01      	ldr	r3, [sp, #4]
    ab38:	f852 3023 	ldr.w	r3, [r2, r3, lsl #2]
    ab3c:	1c5a      	adds	r2, r3, #1
    ab3e:	4904      	ldr	r1, [pc, #16]	; (ab50 <SchM_Enter_Pwm_PWM_EXCLUSIVE_AREA_22+0x50>)
    ab40:	9b01      	ldr	r3, [sp, #4]
    ab42:	f841 2023 	str.w	r2, [r1, r3, lsl #2]
    ab46:	bf00      	nop
    ab48:	b003      	add	sp, #12
    ab4a:	f85d fb04 	ldr.w	pc, [sp], #4
    ab4e:	bf00      	nop
    ab50:	1fff9290 	.word	0x1fff9290
    ab54:	1fff928c 	.word	0x1fff928c

0000ab58 <SchM_Exit_Pwm_PWM_EXCLUSIVE_AREA_22>:
    ab58:	b500      	push	{lr}
    ab5a:	b083      	sub	sp, #12
    ab5c:	f7f5 ffa6 	bl	aac <Sys_GetCoreID>
    ab60:	4603      	mov	r3, r0
    ab62:	9301      	str	r3, [sp, #4]
    ab64:	4a0d      	ldr	r2, [pc, #52]	; (ab9c <SchM_Exit_Pwm_PWM_EXCLUSIVE_AREA_22+0x44>)
    ab66:	9b01      	ldr	r3, [sp, #4]
    ab68:	f852 3023 	ldr.w	r3, [r2, r3, lsl #2]
    ab6c:	1e5a      	subs	r2, r3, #1
    ab6e:	490b      	ldr	r1, [pc, #44]	; (ab9c <SchM_Exit_Pwm_PWM_EXCLUSIVE_AREA_22+0x44>)
    ab70:	9b01      	ldr	r3, [sp, #4]
    ab72:	f841 2023 	str.w	r2, [r1, r3, lsl #2]
    ab76:	4a0a      	ldr	r2, [pc, #40]	; (aba0 <SchM_Exit_Pwm_PWM_EXCLUSIVE_AREA_22+0x48>)
    ab78:	9b01      	ldr	r3, [sp, #4]
    ab7a:	f852 3023 	ldr.w	r3, [r2, r3, lsl #2]
    ab7e:	f003 0301 	and.w	r3, r3, #1
    ab82:	2b00      	cmp	r3, #0
    ab84:	d106      	bne.n	ab94 <SchM_Exit_Pwm_PWM_EXCLUSIVE_AREA_22+0x3c>
    ab86:	4a05      	ldr	r2, [pc, #20]	; (ab9c <SchM_Exit_Pwm_PWM_EXCLUSIVE_AREA_22+0x44>)
    ab88:	9b01      	ldr	r3, [sp, #4]
    ab8a:	f852 3023 	ldr.w	r3, [r2, r3, lsl #2]
    ab8e:	2b00      	cmp	r3, #0
    ab90:	d100      	bne.n	ab94 <SchM_Exit_Pwm_PWM_EXCLUSIVE_AREA_22+0x3c>
    ab92:	b662      	cpsie	i
    ab94:	bf00      	nop
    ab96:	b003      	add	sp, #12
    ab98:	f85d fb04 	ldr.w	pc, [sp], #4
    ab9c:	1fff9290 	.word	0x1fff9290
    aba0:	1fff928c 	.word	0x1fff928c

0000aba4 <SchM_Enter_Pwm_PWM_EXCLUSIVE_AREA_23>:
    aba4:	b500      	push	{lr}
    aba6:	b083      	sub	sp, #12
    aba8:	f7f5 ff80 	bl	aac <Sys_GetCoreID>
    abac:	4603      	mov	r3, r0
    abae:	9301      	str	r3, [sp, #4]
    abb0:	4a10      	ldr	r2, [pc, #64]	; (abf4 <SchM_Enter_Pwm_PWM_EXCLUSIVE_AREA_23+0x50>)
    abb2:	9b01      	ldr	r3, [sp, #4]
    abb4:	f852 3023 	ldr.w	r3, [r2, r3, lsl #2]
    abb8:	2b00      	cmp	r3, #0
    abba:	d10d      	bne.n	abd8 <SchM_Enter_Pwm_PWM_EXCLUSIVE_AREA_23+0x34>
    abbc:	f7f5 fea6 	bl	90c <Pwm_schm_read_msr>
    abc0:	9000      	str	r0, [sp, #0]
    abc2:	9b00      	ldr	r3, [sp, #0]
    abc4:	f003 0301 	and.w	r3, r3, #1
    abc8:	2b00      	cmp	r3, #0
    abca:	d100      	bne.n	abce <SchM_Enter_Pwm_PWM_EXCLUSIVE_AREA_23+0x2a>
    abcc:	b672      	cpsid	i
    abce:	490a      	ldr	r1, [pc, #40]	; (abf8 <SchM_Enter_Pwm_PWM_EXCLUSIVE_AREA_23+0x54>)
    abd0:	9b01      	ldr	r3, [sp, #4]
    abd2:	9a00      	ldr	r2, [sp, #0]
    abd4:	f841 2023 	str.w	r2, [r1, r3, lsl #2]
    abd8:	4a06      	ldr	r2, [pc, #24]	; (abf4 <SchM_Enter_Pwm_PWM_EXCLUSIVE_AREA_23+0x50>)
    abda:	9b01      	ldr	r3, [sp, #4]
    abdc:	f852 3023 	ldr.w	r3, [r2, r3, lsl #2]
    abe0:	1c5a      	adds	r2, r3, #1
    abe2:	4904      	ldr	r1, [pc, #16]	; (abf4 <SchM_Enter_Pwm_PWM_EXCLUSIVE_AREA_23+0x50>)
    abe4:	9b01      	ldr	r3, [sp, #4]
    abe6:	f841 2023 	str.w	r2, [r1, r3, lsl #2]
    abea:	bf00      	nop
    abec:	b003      	add	sp, #12
    abee:	f85d fb04 	ldr.w	pc, [sp], #4
    abf2:	bf00      	nop
    abf4:	1fff9298 	.word	0x1fff9298
    abf8:	1fff9294 	.word	0x1fff9294

0000abfc <SchM_Exit_Pwm_PWM_EXCLUSIVE_AREA_23>:
    abfc:	b500      	push	{lr}
    abfe:	b083      	sub	sp, #12
    ac00:	f7f5 ff54 	bl	aac <Sys_GetCoreID>
    ac04:	4603      	mov	r3, r0
    ac06:	9301      	str	r3, [sp, #4]
    ac08:	4a0d      	ldr	r2, [pc, #52]	; (ac40 <SchM_Exit_Pwm_PWM_EXCLUSIVE_AREA_23+0x44>)
    ac0a:	9b01      	ldr	r3, [sp, #4]
    ac0c:	f852 3023 	ldr.w	r3, [r2, r3, lsl #2]
    ac10:	1e5a      	subs	r2, r3, #1
    ac12:	490b      	ldr	r1, [pc, #44]	; (ac40 <SchM_Exit_Pwm_PWM_EXCLUSIVE_AREA_23+0x44>)
    ac14:	9b01      	ldr	r3, [sp, #4]
    ac16:	f841 2023 	str.w	r2, [r1, r3, lsl #2]
    ac1a:	4a0a      	ldr	r2, [pc, #40]	; (ac44 <SchM_Exit_Pwm_PWM_EXCLUSIVE_AREA_23+0x48>)
    ac1c:	9b01      	ldr	r3, [sp, #4]
    ac1e:	f852 3023 	ldr.w	r3, [r2, r3, lsl #2]
    ac22:	f003 0301 	and.w	r3, r3, #1
    ac26:	2b00      	cmp	r3, #0
    ac28:	d106      	bne.n	ac38 <SchM_Exit_Pwm_PWM_EXCLUSIVE_AREA_23+0x3c>
    ac2a:	4a05      	ldr	r2, [pc, #20]	; (ac40 <SchM_Exit_Pwm_PWM_EXCLUSIVE_AREA_23+0x44>)
    ac2c:	9b01      	ldr	r3, [sp, #4]
    ac2e:	f852 3023 	ldr.w	r3, [r2, r3, lsl #2]
    ac32:	2b00      	cmp	r3, #0
    ac34:	d100      	bne.n	ac38 <SchM_Exit_Pwm_PWM_EXCLUSIVE_AREA_23+0x3c>
    ac36:	b662      	cpsie	i
    ac38:	bf00      	nop
    ac3a:	b003      	add	sp, #12
    ac3c:	f85d fb04 	ldr.w	pc, [sp], #4
    ac40:	1fff9298 	.word	0x1fff9298
    ac44:	1fff9294 	.word	0x1fff9294

0000ac48 <SchM_Enter_Pwm_PWM_EXCLUSIVE_AREA_24>:
    ac48:	b500      	push	{lr}
    ac4a:	b083      	sub	sp, #12
    ac4c:	f7f5 ff2e 	bl	aac <Sys_GetCoreID>
    ac50:	4603      	mov	r3, r0
    ac52:	9301      	str	r3, [sp, #4]
    ac54:	4a10      	ldr	r2, [pc, #64]	; (ac98 <SchM_Enter_Pwm_PWM_EXCLUSIVE_AREA_24+0x50>)
    ac56:	9b01      	ldr	r3, [sp, #4]
    ac58:	f852 3023 	ldr.w	r3, [r2, r3, lsl #2]
    ac5c:	2b00      	cmp	r3, #0
    ac5e:	d10d      	bne.n	ac7c <SchM_Enter_Pwm_PWM_EXCLUSIVE_AREA_24+0x34>
    ac60:	f7f5 fe54 	bl	90c <Pwm_schm_read_msr>
    ac64:	9000      	str	r0, [sp, #0]
    ac66:	9b00      	ldr	r3, [sp, #0]
    ac68:	f003 0301 	and.w	r3, r3, #1
    ac6c:	2b00      	cmp	r3, #0
    ac6e:	d100      	bne.n	ac72 <SchM_Enter_Pwm_PWM_EXCLUSIVE_AREA_24+0x2a>
    ac70:	b672      	cpsid	i
    ac72:	490a      	ldr	r1, [pc, #40]	; (ac9c <SchM_Enter_Pwm_PWM_EXCLUSIVE_AREA_24+0x54>)
    ac74:	9b01      	ldr	r3, [sp, #4]
    ac76:	9a00      	ldr	r2, [sp, #0]
    ac78:	f841 2023 	str.w	r2, [r1, r3, lsl #2]
    ac7c:	4a06      	ldr	r2, [pc, #24]	; (ac98 <SchM_Enter_Pwm_PWM_EXCLUSIVE_AREA_24+0x50>)
    ac7e:	9b01      	ldr	r3, [sp, #4]
    ac80:	f852 3023 	ldr.w	r3, [r2, r3, lsl #2]
    ac84:	1c5a      	adds	r2, r3, #1
    ac86:	4904      	ldr	r1, [pc, #16]	; (ac98 <SchM_Enter_Pwm_PWM_EXCLUSIVE_AREA_24+0x50>)
    ac88:	9b01      	ldr	r3, [sp, #4]
    ac8a:	f841 2023 	str.w	r2, [r1, r3, lsl #2]
    ac8e:	bf00      	nop
    ac90:	b003      	add	sp, #12
    ac92:	f85d fb04 	ldr.w	pc, [sp], #4
    ac96:	bf00      	nop
    ac98:	1fff92a0 	.word	0x1fff92a0
    ac9c:	1fff929c 	.word	0x1fff929c

0000aca0 <SchM_Exit_Pwm_PWM_EXCLUSIVE_AREA_24>:
    aca0:	b500      	push	{lr}
    aca2:	b083      	sub	sp, #12
    aca4:	f7f5 ff02 	bl	aac <Sys_GetCoreID>
    aca8:	4603      	mov	r3, r0
    acaa:	9301      	str	r3, [sp, #4]
    acac:	4a0d      	ldr	r2, [pc, #52]	; (ace4 <SchM_Exit_Pwm_PWM_EXCLUSIVE_AREA_24+0x44>)
    acae:	9b01      	ldr	r3, [sp, #4]
    acb0:	f852 3023 	ldr.w	r3, [r2, r3, lsl #2]
    acb4:	1e5a      	subs	r2, r3, #1
    acb6:	490b      	ldr	r1, [pc, #44]	; (ace4 <SchM_Exit_Pwm_PWM_EXCLUSIVE_AREA_24+0x44>)
    acb8:	9b01      	ldr	r3, [sp, #4]
    acba:	f841 2023 	str.w	r2, [r1, r3, lsl #2]
    acbe:	4a0a      	ldr	r2, [pc, #40]	; (ace8 <SchM_Exit_Pwm_PWM_EXCLUSIVE_AREA_24+0x48>)
    acc0:	9b01      	ldr	r3, [sp, #4]
    acc2:	f852 3023 	ldr.w	r3, [r2, r3, lsl #2]
    acc6:	f003 0301 	and.w	r3, r3, #1
    acca:	2b00      	cmp	r3, #0
    accc:	d106      	bne.n	acdc <SchM_Exit_Pwm_PWM_EXCLUSIVE_AREA_24+0x3c>
    acce:	4a05      	ldr	r2, [pc, #20]	; (ace4 <SchM_Exit_Pwm_PWM_EXCLUSIVE_AREA_24+0x44>)
    acd0:	9b01      	ldr	r3, [sp, #4]
    acd2:	f852 3023 	ldr.w	r3, [r2, r3, lsl #2]
    acd6:	2b00      	cmp	r3, #0
    acd8:	d100      	bne.n	acdc <SchM_Exit_Pwm_PWM_EXCLUSIVE_AREA_24+0x3c>
    acda:	b662      	cpsie	i
    acdc:	bf00      	nop
    acde:	b003      	add	sp, #12
    ace0:	f85d fb04 	ldr.w	pc, [sp], #4
    ace4:	1fff92a0 	.word	0x1fff92a0
    ace8:	1fff929c 	.word	0x1fff929c

0000acec <SchM_Enter_Pwm_PWM_EXCLUSIVE_AREA_25>:
    acec:	b500      	push	{lr}
    acee:	b083      	sub	sp, #12
    acf0:	f7f5 fedc 	bl	aac <Sys_GetCoreID>
    acf4:	4603      	mov	r3, r0
    acf6:	9301      	str	r3, [sp, #4]
    acf8:	4a10      	ldr	r2, [pc, #64]	; (ad3c <SchM_Enter_Pwm_PWM_EXCLUSIVE_AREA_25+0x50>)
    acfa:	9b01      	ldr	r3, [sp, #4]
    acfc:	f852 3023 	ldr.w	r3, [r2, r3, lsl #2]
    ad00:	2b00      	cmp	r3, #0
    ad02:	d10d      	bne.n	ad20 <SchM_Enter_Pwm_PWM_EXCLUSIVE_AREA_25+0x34>
    ad04:	f7f5 fe02 	bl	90c <Pwm_schm_read_msr>
    ad08:	9000      	str	r0, [sp, #0]
    ad0a:	9b00      	ldr	r3, [sp, #0]
    ad0c:	f003 0301 	and.w	r3, r3, #1
    ad10:	2b00      	cmp	r3, #0
    ad12:	d100      	bne.n	ad16 <SchM_Enter_Pwm_PWM_EXCLUSIVE_AREA_25+0x2a>
    ad14:	b672      	cpsid	i
    ad16:	490a      	ldr	r1, [pc, #40]	; (ad40 <SchM_Enter_Pwm_PWM_EXCLUSIVE_AREA_25+0x54>)
    ad18:	9b01      	ldr	r3, [sp, #4]
    ad1a:	9a00      	ldr	r2, [sp, #0]
    ad1c:	f841 2023 	str.w	r2, [r1, r3, lsl #2]
    ad20:	4a06      	ldr	r2, [pc, #24]	; (ad3c <SchM_Enter_Pwm_PWM_EXCLUSIVE_AREA_25+0x50>)
    ad22:	9b01      	ldr	r3, [sp, #4]
    ad24:	f852 3023 	ldr.w	r3, [r2, r3, lsl #2]
    ad28:	1c5a      	adds	r2, r3, #1
    ad2a:	4904      	ldr	r1, [pc, #16]	; (ad3c <SchM_Enter_Pwm_PWM_EXCLUSIVE_AREA_25+0x50>)
    ad2c:	9b01      	ldr	r3, [sp, #4]
    ad2e:	f841 2023 	str.w	r2, [r1, r3, lsl #2]
    ad32:	bf00      	nop
    ad34:	b003      	add	sp, #12
    ad36:	f85d fb04 	ldr.w	pc, [sp], #4
    ad3a:	bf00      	nop
    ad3c:	1fff92a8 	.word	0x1fff92a8
    ad40:	1fff92a4 	.word	0x1fff92a4

0000ad44 <SchM_Exit_Pwm_PWM_EXCLUSIVE_AREA_25>:
    ad44:	b500      	push	{lr}
    ad46:	b083      	sub	sp, #12
    ad48:	f7f5 feb0 	bl	aac <Sys_GetCoreID>
    ad4c:	4603      	mov	r3, r0
    ad4e:	9301      	str	r3, [sp, #4]
    ad50:	4a0d      	ldr	r2, [pc, #52]	; (ad88 <SchM_Exit_Pwm_PWM_EXCLUSIVE_AREA_25+0x44>)
    ad52:	9b01      	ldr	r3, [sp, #4]
    ad54:	f852 3023 	ldr.w	r3, [r2, r3, lsl #2]
    ad58:	1e5a      	subs	r2, r3, #1
    ad5a:	490b      	ldr	r1, [pc, #44]	; (ad88 <SchM_Exit_Pwm_PWM_EXCLUSIVE_AREA_25+0x44>)
    ad5c:	9b01      	ldr	r3, [sp, #4]
    ad5e:	f841 2023 	str.w	r2, [r1, r3, lsl #2]
    ad62:	4a0a      	ldr	r2, [pc, #40]	; (ad8c <SchM_Exit_Pwm_PWM_EXCLUSIVE_AREA_25+0x48>)
    ad64:	9b01      	ldr	r3, [sp, #4]
    ad66:	f852 3023 	ldr.w	r3, [r2, r3, lsl #2]
    ad6a:	f003 0301 	and.w	r3, r3, #1
    ad6e:	2b00      	cmp	r3, #0
    ad70:	d106      	bne.n	ad80 <SchM_Exit_Pwm_PWM_EXCLUSIVE_AREA_25+0x3c>
    ad72:	4a05      	ldr	r2, [pc, #20]	; (ad88 <SchM_Exit_Pwm_PWM_EXCLUSIVE_AREA_25+0x44>)
    ad74:	9b01      	ldr	r3, [sp, #4]
    ad76:	f852 3023 	ldr.w	r3, [r2, r3, lsl #2]
    ad7a:	2b00      	cmp	r3, #0
    ad7c:	d100      	bne.n	ad80 <SchM_Exit_Pwm_PWM_EXCLUSIVE_AREA_25+0x3c>
    ad7e:	b662      	cpsie	i
    ad80:	bf00      	nop
    ad82:	b003      	add	sp, #12
    ad84:	f85d fb04 	ldr.w	pc, [sp], #4
    ad88:	1fff92a8 	.word	0x1fff92a8
    ad8c:	1fff92a4 	.word	0x1fff92a4

0000ad90 <SchM_Enter_Pwm_PWM_EXCLUSIVE_AREA_26>:
    ad90:	b500      	push	{lr}
    ad92:	b083      	sub	sp, #12
    ad94:	f7f5 fe8a 	bl	aac <Sys_GetCoreID>
    ad98:	4603      	mov	r3, r0
    ad9a:	9301      	str	r3, [sp, #4]
    ad9c:	4a10      	ldr	r2, [pc, #64]	; (ade0 <SchM_Enter_Pwm_PWM_EXCLUSIVE_AREA_26+0x50>)
    ad9e:	9b01      	ldr	r3, [sp, #4]
    ada0:	f852 3023 	ldr.w	r3, [r2, r3, lsl #2]
    ada4:	2b00      	cmp	r3, #0
    ada6:	d10d      	bne.n	adc4 <SchM_Enter_Pwm_PWM_EXCLUSIVE_AREA_26+0x34>
    ada8:	f7f5 fdb0 	bl	90c <Pwm_schm_read_msr>
    adac:	9000      	str	r0, [sp, #0]
    adae:	9b00      	ldr	r3, [sp, #0]
    adb0:	f003 0301 	and.w	r3, r3, #1
    adb4:	2b00      	cmp	r3, #0
    adb6:	d100      	bne.n	adba <SchM_Enter_Pwm_PWM_EXCLUSIVE_AREA_26+0x2a>
    adb8:	b672      	cpsid	i
    adba:	490a      	ldr	r1, [pc, #40]	; (ade4 <SchM_Enter_Pwm_PWM_EXCLUSIVE_AREA_26+0x54>)
    adbc:	9b01      	ldr	r3, [sp, #4]
    adbe:	9a00      	ldr	r2, [sp, #0]
    adc0:	f841 2023 	str.w	r2, [r1, r3, lsl #2]
    adc4:	4a06      	ldr	r2, [pc, #24]	; (ade0 <SchM_Enter_Pwm_PWM_EXCLUSIVE_AREA_26+0x50>)
    adc6:	9b01      	ldr	r3, [sp, #4]
    adc8:	f852 3023 	ldr.w	r3, [r2, r3, lsl #2]
    adcc:	1c5a      	adds	r2, r3, #1
    adce:	4904      	ldr	r1, [pc, #16]	; (ade0 <SchM_Enter_Pwm_PWM_EXCLUSIVE_AREA_26+0x50>)
    add0:	9b01      	ldr	r3, [sp, #4]
    add2:	f841 2023 	str.w	r2, [r1, r3, lsl #2]
    add6:	bf00      	nop
    add8:	b003      	add	sp, #12
    adda:	f85d fb04 	ldr.w	pc, [sp], #4
    adde:	bf00      	nop
    ade0:	1fff92b0 	.word	0x1fff92b0
    ade4:	1fff92ac 	.word	0x1fff92ac

0000ade8 <SchM_Exit_Pwm_PWM_EXCLUSIVE_AREA_26>:
    ade8:	b500      	push	{lr}
    adea:	b083      	sub	sp, #12
    adec:	f7f5 fe5e 	bl	aac <Sys_GetCoreID>
    adf0:	4603      	mov	r3, r0
    adf2:	9301      	str	r3, [sp, #4]
    adf4:	4a0d      	ldr	r2, [pc, #52]	; (ae2c <SchM_Exit_Pwm_PWM_EXCLUSIVE_AREA_26+0x44>)
    adf6:	9b01      	ldr	r3, [sp, #4]
    adf8:	f852 3023 	ldr.w	r3, [r2, r3, lsl #2]
    adfc:	1e5a      	subs	r2, r3, #1
    adfe:	490b      	ldr	r1, [pc, #44]	; (ae2c <SchM_Exit_Pwm_PWM_EXCLUSIVE_AREA_26+0x44>)
    ae00:	9b01      	ldr	r3, [sp, #4]
    ae02:	f841 2023 	str.w	r2, [r1, r3, lsl #2]
    ae06:	4a0a      	ldr	r2, [pc, #40]	; (ae30 <SchM_Exit_Pwm_PWM_EXCLUSIVE_AREA_26+0x48>)
    ae08:	9b01      	ldr	r3, [sp, #4]
    ae0a:	f852 3023 	ldr.w	r3, [r2, r3, lsl #2]
    ae0e:	f003 0301 	and.w	r3, r3, #1
    ae12:	2b00      	cmp	r3, #0
    ae14:	d106      	bne.n	ae24 <SchM_Exit_Pwm_PWM_EXCLUSIVE_AREA_26+0x3c>
    ae16:	4a05      	ldr	r2, [pc, #20]	; (ae2c <SchM_Exit_Pwm_PWM_EXCLUSIVE_AREA_26+0x44>)
    ae18:	9b01      	ldr	r3, [sp, #4]
    ae1a:	f852 3023 	ldr.w	r3, [r2, r3, lsl #2]
    ae1e:	2b00      	cmp	r3, #0
    ae20:	d100      	bne.n	ae24 <SchM_Exit_Pwm_PWM_EXCLUSIVE_AREA_26+0x3c>
    ae22:	b662      	cpsie	i
    ae24:	bf00      	nop
    ae26:	b003      	add	sp, #12
    ae28:	f85d fb04 	ldr.w	pc, [sp], #4
    ae2c:	1fff92b0 	.word	0x1fff92b0
    ae30:	1fff92ac 	.word	0x1fff92ac

0000ae34 <SchM_Enter_Pwm_PWM_EXCLUSIVE_AREA_27>:
    ae34:	b500      	push	{lr}
    ae36:	b083      	sub	sp, #12
    ae38:	f7f5 fe38 	bl	aac <Sys_GetCoreID>
    ae3c:	4603      	mov	r3, r0
    ae3e:	9301      	str	r3, [sp, #4]
    ae40:	4a10      	ldr	r2, [pc, #64]	; (ae84 <SchM_Enter_Pwm_PWM_EXCLUSIVE_AREA_27+0x50>)
    ae42:	9b01      	ldr	r3, [sp, #4]
    ae44:	f852 3023 	ldr.w	r3, [r2, r3, lsl #2]
    ae48:	2b00      	cmp	r3, #0
    ae4a:	d10d      	bne.n	ae68 <SchM_Enter_Pwm_PWM_EXCLUSIVE_AREA_27+0x34>
    ae4c:	f7f5 fd5e 	bl	90c <Pwm_schm_read_msr>
    ae50:	9000      	str	r0, [sp, #0]
    ae52:	9b00      	ldr	r3, [sp, #0]
    ae54:	f003 0301 	and.w	r3, r3, #1
    ae58:	2b00      	cmp	r3, #0
    ae5a:	d100      	bne.n	ae5e <SchM_Enter_Pwm_PWM_EXCLUSIVE_AREA_27+0x2a>
    ae5c:	b672      	cpsid	i
    ae5e:	490a      	ldr	r1, [pc, #40]	; (ae88 <SchM_Enter_Pwm_PWM_EXCLUSIVE_AREA_27+0x54>)
    ae60:	9b01      	ldr	r3, [sp, #4]
    ae62:	9a00      	ldr	r2, [sp, #0]
    ae64:	f841 2023 	str.w	r2, [r1, r3, lsl #2]
    ae68:	4a06      	ldr	r2, [pc, #24]	; (ae84 <SchM_Enter_Pwm_PWM_EXCLUSIVE_AREA_27+0x50>)
    ae6a:	9b01      	ldr	r3, [sp, #4]
    ae6c:	f852 3023 	ldr.w	r3, [r2, r3, lsl #2]
    ae70:	1c5a      	adds	r2, r3, #1
    ae72:	4904      	ldr	r1, [pc, #16]	; (ae84 <SchM_Enter_Pwm_PWM_EXCLUSIVE_AREA_27+0x50>)
    ae74:	9b01      	ldr	r3, [sp, #4]
    ae76:	f841 2023 	str.w	r2, [r1, r3, lsl #2]
    ae7a:	bf00      	nop
    ae7c:	b003      	add	sp, #12
    ae7e:	f85d fb04 	ldr.w	pc, [sp], #4
    ae82:	bf00      	nop
    ae84:	1fff92b8 	.word	0x1fff92b8
    ae88:	1fff92b4 	.word	0x1fff92b4

0000ae8c <SchM_Exit_Pwm_PWM_EXCLUSIVE_AREA_27>:
    ae8c:	b500      	push	{lr}
    ae8e:	b083      	sub	sp, #12
    ae90:	f7f5 fe0c 	bl	aac <Sys_GetCoreID>
    ae94:	4603      	mov	r3, r0
    ae96:	9301      	str	r3, [sp, #4]
    ae98:	4a0d      	ldr	r2, [pc, #52]	; (aed0 <SchM_Exit_Pwm_PWM_EXCLUSIVE_AREA_27+0x44>)
    ae9a:	9b01      	ldr	r3, [sp, #4]
    ae9c:	f852 3023 	ldr.w	r3, [r2, r3, lsl #2]
    aea0:	1e5a      	subs	r2, r3, #1
    aea2:	490b      	ldr	r1, [pc, #44]	; (aed0 <SchM_Exit_Pwm_PWM_EXCLUSIVE_AREA_27+0x44>)
    aea4:	9b01      	ldr	r3, [sp, #4]
    aea6:	f841 2023 	str.w	r2, [r1, r3, lsl #2]
    aeaa:	4a0a      	ldr	r2, [pc, #40]	; (aed4 <SchM_Exit_Pwm_PWM_EXCLUSIVE_AREA_27+0x48>)
    aeac:	9b01      	ldr	r3, [sp, #4]
    aeae:	f852 3023 	ldr.w	r3, [r2, r3, lsl #2]
    aeb2:	f003 0301 	and.w	r3, r3, #1
    aeb6:	2b00      	cmp	r3, #0
    aeb8:	d106      	bne.n	aec8 <SchM_Exit_Pwm_PWM_EXCLUSIVE_AREA_27+0x3c>
    aeba:	4a05      	ldr	r2, [pc, #20]	; (aed0 <SchM_Exit_Pwm_PWM_EXCLUSIVE_AREA_27+0x44>)
    aebc:	9b01      	ldr	r3, [sp, #4]
    aebe:	f852 3023 	ldr.w	r3, [r2, r3, lsl #2]
    aec2:	2b00      	cmp	r3, #0
    aec4:	d100      	bne.n	aec8 <SchM_Exit_Pwm_PWM_EXCLUSIVE_AREA_27+0x3c>
    aec6:	b662      	cpsie	i
    aec8:	bf00      	nop
    aeca:	b003      	add	sp, #12
    aecc:	f85d fb04 	ldr.w	pc, [sp], #4
    aed0:	1fff92b8 	.word	0x1fff92b8
    aed4:	1fff92b4 	.word	0x1fff92b4

0000aed8 <SchM_Enter_Pwm_PWM_EXCLUSIVE_AREA_28>:
    aed8:	b500      	push	{lr}
    aeda:	b083      	sub	sp, #12
    aedc:	f7f5 fde6 	bl	aac <Sys_GetCoreID>
    aee0:	4603      	mov	r3, r0
    aee2:	9301      	str	r3, [sp, #4]
    aee4:	4a10      	ldr	r2, [pc, #64]	; (af28 <SchM_Enter_Pwm_PWM_EXCLUSIVE_AREA_28+0x50>)
    aee6:	9b01      	ldr	r3, [sp, #4]
    aee8:	f852 3023 	ldr.w	r3, [r2, r3, lsl #2]
    aeec:	2b00      	cmp	r3, #0
    aeee:	d10d      	bne.n	af0c <SchM_Enter_Pwm_PWM_EXCLUSIVE_AREA_28+0x34>
    aef0:	f7f5 fd0c 	bl	90c <Pwm_schm_read_msr>
    aef4:	9000      	str	r0, [sp, #0]
    aef6:	9b00      	ldr	r3, [sp, #0]
    aef8:	f003 0301 	and.w	r3, r3, #1
    aefc:	2b00      	cmp	r3, #0
    aefe:	d100      	bne.n	af02 <SchM_Enter_Pwm_PWM_EXCLUSIVE_AREA_28+0x2a>
    af00:	b672      	cpsid	i
    af02:	490a      	ldr	r1, [pc, #40]	; (af2c <SchM_Enter_Pwm_PWM_EXCLUSIVE_AREA_28+0x54>)
    af04:	9b01      	ldr	r3, [sp, #4]
    af06:	9a00      	ldr	r2, [sp, #0]
    af08:	f841 2023 	str.w	r2, [r1, r3, lsl #2]
    af0c:	4a06      	ldr	r2, [pc, #24]	; (af28 <SchM_Enter_Pwm_PWM_EXCLUSIVE_AREA_28+0x50>)
    af0e:	9b01      	ldr	r3, [sp, #4]
    af10:	f852 3023 	ldr.w	r3, [r2, r3, lsl #2]
    af14:	1c5a      	adds	r2, r3, #1
    af16:	4904      	ldr	r1, [pc, #16]	; (af28 <SchM_Enter_Pwm_PWM_EXCLUSIVE_AREA_28+0x50>)
    af18:	9b01      	ldr	r3, [sp, #4]
    af1a:	f841 2023 	str.w	r2, [r1, r3, lsl #2]
    af1e:	bf00      	nop
    af20:	b003      	add	sp, #12
    af22:	f85d fb04 	ldr.w	pc, [sp], #4
    af26:	bf00      	nop
    af28:	1fff92c0 	.word	0x1fff92c0
    af2c:	1fff92bc 	.word	0x1fff92bc

0000af30 <SchM_Exit_Pwm_PWM_EXCLUSIVE_AREA_28>:
    af30:	b500      	push	{lr}
    af32:	b083      	sub	sp, #12
    af34:	f7f5 fdba 	bl	aac <Sys_GetCoreID>
    af38:	4603      	mov	r3, r0
    af3a:	9301      	str	r3, [sp, #4]
    af3c:	4a0d      	ldr	r2, [pc, #52]	; (af74 <SchM_Exit_Pwm_PWM_EXCLUSIVE_AREA_28+0x44>)
    af3e:	9b01      	ldr	r3, [sp, #4]
    af40:	f852 3023 	ldr.w	r3, [r2, r3, lsl #2]
    af44:	1e5a      	subs	r2, r3, #1
    af46:	490b      	ldr	r1, [pc, #44]	; (af74 <SchM_Exit_Pwm_PWM_EXCLUSIVE_AREA_28+0x44>)
    af48:	9b01      	ldr	r3, [sp, #4]
    af4a:	f841 2023 	str.w	r2, [r1, r3, lsl #2]
    af4e:	4a0a      	ldr	r2, [pc, #40]	; (af78 <SchM_Exit_Pwm_PWM_EXCLUSIVE_AREA_28+0x48>)
    af50:	9b01      	ldr	r3, [sp, #4]
    af52:	f852 3023 	ldr.w	r3, [r2, r3, lsl #2]
    af56:	f003 0301 	and.w	r3, r3, #1
    af5a:	2b00      	cmp	r3, #0
    af5c:	d106      	bne.n	af6c <SchM_Exit_Pwm_PWM_EXCLUSIVE_AREA_28+0x3c>
    af5e:	4a05      	ldr	r2, [pc, #20]	; (af74 <SchM_Exit_Pwm_PWM_EXCLUSIVE_AREA_28+0x44>)
    af60:	9b01      	ldr	r3, [sp, #4]
    af62:	f852 3023 	ldr.w	r3, [r2, r3, lsl #2]
    af66:	2b00      	cmp	r3, #0
    af68:	d100      	bne.n	af6c <SchM_Exit_Pwm_PWM_EXCLUSIVE_AREA_28+0x3c>
    af6a:	b662      	cpsie	i
    af6c:	bf00      	nop
    af6e:	b003      	add	sp, #12
    af70:	f85d fb04 	ldr.w	pc, [sp], #4
    af74:	1fff92c0 	.word	0x1fff92c0
    af78:	1fff92bc 	.word	0x1fff92bc

0000af7c <SchM_Enter_Pwm_PWM_EXCLUSIVE_AREA_29>:
    af7c:	b500      	push	{lr}
    af7e:	b083      	sub	sp, #12
    af80:	f7f5 fd94 	bl	aac <Sys_GetCoreID>
    af84:	4603      	mov	r3, r0
    af86:	9301      	str	r3, [sp, #4]
    af88:	4a10      	ldr	r2, [pc, #64]	; (afcc <SchM_Enter_Pwm_PWM_EXCLUSIVE_AREA_29+0x50>)
    af8a:	9b01      	ldr	r3, [sp, #4]
    af8c:	f852 3023 	ldr.w	r3, [r2, r3, lsl #2]
    af90:	2b00      	cmp	r3, #0
    af92:	d10d      	bne.n	afb0 <SchM_Enter_Pwm_PWM_EXCLUSIVE_AREA_29+0x34>
    af94:	f7f5 fcba 	bl	90c <Pwm_schm_read_msr>
    af98:	9000      	str	r0, [sp, #0]
    af9a:	9b00      	ldr	r3, [sp, #0]
    af9c:	f003 0301 	and.w	r3, r3, #1
    afa0:	2b00      	cmp	r3, #0
    afa2:	d100      	bne.n	afa6 <SchM_Enter_Pwm_PWM_EXCLUSIVE_AREA_29+0x2a>
    afa4:	b672      	cpsid	i
    afa6:	490a      	ldr	r1, [pc, #40]	; (afd0 <SchM_Enter_Pwm_PWM_EXCLUSIVE_AREA_29+0x54>)
    afa8:	9b01      	ldr	r3, [sp, #4]
    afaa:	9a00      	ldr	r2, [sp, #0]
    afac:	f841 2023 	str.w	r2, [r1, r3, lsl #2]
    afb0:	4a06      	ldr	r2, [pc, #24]	; (afcc <SchM_Enter_Pwm_PWM_EXCLUSIVE_AREA_29+0x50>)
    afb2:	9b01      	ldr	r3, [sp, #4]
    afb4:	f852 3023 	ldr.w	r3, [r2, r3, lsl #2]
    afb8:	1c5a      	adds	r2, r3, #1
    afba:	4904      	ldr	r1, [pc, #16]	; (afcc <SchM_Enter_Pwm_PWM_EXCLUSIVE_AREA_29+0x50>)
    afbc:	9b01      	ldr	r3, [sp, #4]
    afbe:	f841 2023 	str.w	r2, [r1, r3, lsl #2]
    afc2:	bf00      	nop
    afc4:	b003      	add	sp, #12
    afc6:	f85d fb04 	ldr.w	pc, [sp], #4
    afca:	bf00      	nop
    afcc:	1fff92c8 	.word	0x1fff92c8
    afd0:	1fff92c4 	.word	0x1fff92c4

0000afd4 <SchM_Exit_Pwm_PWM_EXCLUSIVE_AREA_29>:
    afd4:	b500      	push	{lr}
    afd6:	b083      	sub	sp, #12
    afd8:	f7f5 fd68 	bl	aac <Sys_GetCoreID>
    afdc:	4603      	mov	r3, r0
    afde:	9301      	str	r3, [sp, #4]
    afe0:	4a0d      	ldr	r2, [pc, #52]	; (b018 <SchM_Exit_Pwm_PWM_EXCLUSIVE_AREA_29+0x44>)
    afe2:	9b01      	ldr	r3, [sp, #4]
    afe4:	f852 3023 	ldr.w	r3, [r2, r3, lsl #2]
    afe8:	1e5a      	subs	r2, r3, #1
    afea:	490b      	ldr	r1, [pc, #44]	; (b018 <SchM_Exit_Pwm_PWM_EXCLUSIVE_AREA_29+0x44>)
    afec:	9b01      	ldr	r3, [sp, #4]
    afee:	f841 2023 	str.w	r2, [r1, r3, lsl #2]
    aff2:	4a0a      	ldr	r2, [pc, #40]	; (b01c <SchM_Exit_Pwm_PWM_EXCLUSIVE_AREA_29+0x48>)
    aff4:	9b01      	ldr	r3, [sp, #4]
    aff6:	f852 3023 	ldr.w	r3, [r2, r3, lsl #2]
    affa:	f003 0301 	and.w	r3, r3, #1
    affe:	2b00      	cmp	r3, #0
    b000:	d106      	bne.n	b010 <SchM_Exit_Pwm_PWM_EXCLUSIVE_AREA_29+0x3c>
    b002:	4a05      	ldr	r2, [pc, #20]	; (b018 <SchM_Exit_Pwm_PWM_EXCLUSIVE_AREA_29+0x44>)
    b004:	9b01      	ldr	r3, [sp, #4]
    b006:	f852 3023 	ldr.w	r3, [r2, r3, lsl #2]
    b00a:	2b00      	cmp	r3, #0
    b00c:	d100      	bne.n	b010 <SchM_Exit_Pwm_PWM_EXCLUSIVE_AREA_29+0x3c>
    b00e:	b662      	cpsie	i
    b010:	bf00      	nop
    b012:	b003      	add	sp, #12
    b014:	f85d fb04 	ldr.w	pc, [sp], #4
    b018:	1fff92c8 	.word	0x1fff92c8
    b01c:	1fff92c4 	.word	0x1fff92c4

0000b020 <SchM_Enter_Pwm_PWM_EXCLUSIVE_AREA_30>:
    b020:	b500      	push	{lr}
    b022:	b083      	sub	sp, #12
    b024:	f7f5 fd42 	bl	aac <Sys_GetCoreID>
    b028:	4603      	mov	r3, r0
    b02a:	9301      	str	r3, [sp, #4]
    b02c:	4a10      	ldr	r2, [pc, #64]	; (b070 <SchM_Enter_Pwm_PWM_EXCLUSIVE_AREA_30+0x50>)
    b02e:	9b01      	ldr	r3, [sp, #4]
    b030:	f852 3023 	ldr.w	r3, [r2, r3, lsl #2]
    b034:	2b00      	cmp	r3, #0
    b036:	d10d      	bne.n	b054 <SchM_Enter_Pwm_PWM_EXCLUSIVE_AREA_30+0x34>
    b038:	f7f5 fc68 	bl	90c <Pwm_schm_read_msr>
    b03c:	9000      	str	r0, [sp, #0]
    b03e:	9b00      	ldr	r3, [sp, #0]
    b040:	f003 0301 	and.w	r3, r3, #1
    b044:	2b00      	cmp	r3, #0
    b046:	d100      	bne.n	b04a <SchM_Enter_Pwm_PWM_EXCLUSIVE_AREA_30+0x2a>
    b048:	b672      	cpsid	i
    b04a:	490a      	ldr	r1, [pc, #40]	; (b074 <SchM_Enter_Pwm_PWM_EXCLUSIVE_AREA_30+0x54>)
    b04c:	9b01      	ldr	r3, [sp, #4]
    b04e:	9a00      	ldr	r2, [sp, #0]
    b050:	f841 2023 	str.w	r2, [r1, r3, lsl #2]
    b054:	4a06      	ldr	r2, [pc, #24]	; (b070 <SchM_Enter_Pwm_PWM_EXCLUSIVE_AREA_30+0x50>)
    b056:	9b01      	ldr	r3, [sp, #4]
    b058:	f852 3023 	ldr.w	r3, [r2, r3, lsl #2]
    b05c:	1c5a      	adds	r2, r3, #1
    b05e:	4904      	ldr	r1, [pc, #16]	; (b070 <SchM_Enter_Pwm_PWM_EXCLUSIVE_AREA_30+0x50>)
    b060:	9b01      	ldr	r3, [sp, #4]
    b062:	f841 2023 	str.w	r2, [r1, r3, lsl #2]
    b066:	bf00      	nop
    b068:	b003      	add	sp, #12
    b06a:	f85d fb04 	ldr.w	pc, [sp], #4
    b06e:	bf00      	nop
    b070:	1fff92d0 	.word	0x1fff92d0
    b074:	1fff92cc 	.word	0x1fff92cc

0000b078 <SchM_Exit_Pwm_PWM_EXCLUSIVE_AREA_30>:
    b078:	b500      	push	{lr}
    b07a:	b083      	sub	sp, #12
    b07c:	f7f5 fd16 	bl	aac <Sys_GetCoreID>
    b080:	4603      	mov	r3, r0
    b082:	9301      	str	r3, [sp, #4]
    b084:	4a0d      	ldr	r2, [pc, #52]	; (b0bc <SchM_Exit_Pwm_PWM_EXCLUSIVE_AREA_30+0x44>)
    b086:	9b01      	ldr	r3, [sp, #4]
    b088:	f852 3023 	ldr.w	r3, [r2, r3, lsl #2]
    b08c:	1e5a      	subs	r2, r3, #1
    b08e:	490b      	ldr	r1, [pc, #44]	; (b0bc <SchM_Exit_Pwm_PWM_EXCLUSIVE_AREA_30+0x44>)
    b090:	9b01      	ldr	r3, [sp, #4]
    b092:	f841 2023 	str.w	r2, [r1, r3, lsl #2]
    b096:	4a0a      	ldr	r2, [pc, #40]	; (b0c0 <SchM_Exit_Pwm_PWM_EXCLUSIVE_AREA_30+0x48>)
    b098:	9b01      	ldr	r3, [sp, #4]
    b09a:	f852 3023 	ldr.w	r3, [r2, r3, lsl #2]
    b09e:	f003 0301 	and.w	r3, r3, #1
    b0a2:	2b00      	cmp	r3, #0
    b0a4:	d106      	bne.n	b0b4 <SchM_Exit_Pwm_PWM_EXCLUSIVE_AREA_30+0x3c>
    b0a6:	4a05      	ldr	r2, [pc, #20]	; (b0bc <SchM_Exit_Pwm_PWM_EXCLUSIVE_AREA_30+0x44>)
    b0a8:	9b01      	ldr	r3, [sp, #4]
    b0aa:	f852 3023 	ldr.w	r3, [r2, r3, lsl #2]
    b0ae:	2b00      	cmp	r3, #0
    b0b0:	d100      	bne.n	b0b4 <SchM_Exit_Pwm_PWM_EXCLUSIVE_AREA_30+0x3c>
    b0b2:	b662      	cpsie	i
    b0b4:	bf00      	nop
    b0b6:	b003      	add	sp, #12
    b0b8:	f85d fb04 	ldr.w	pc, [sp], #4
    b0bc:	1fff92d0 	.word	0x1fff92d0
    b0c0:	1fff92cc 	.word	0x1fff92cc

0000b0c4 <SchM_Enter_Pwm_PWM_EXCLUSIVE_AREA_31>:
    b0c4:	b500      	push	{lr}
    b0c6:	b083      	sub	sp, #12
    b0c8:	f7f5 fcf0 	bl	aac <Sys_GetCoreID>
    b0cc:	4603      	mov	r3, r0
    b0ce:	9301      	str	r3, [sp, #4]
    b0d0:	4a10      	ldr	r2, [pc, #64]	; (b114 <SchM_Enter_Pwm_PWM_EXCLUSIVE_AREA_31+0x50>)
    b0d2:	9b01      	ldr	r3, [sp, #4]
    b0d4:	f852 3023 	ldr.w	r3, [r2, r3, lsl #2]
    b0d8:	2b00      	cmp	r3, #0
    b0da:	d10d      	bne.n	b0f8 <SchM_Enter_Pwm_PWM_EXCLUSIVE_AREA_31+0x34>
    b0dc:	f7f5 fc16 	bl	90c <Pwm_schm_read_msr>
    b0e0:	9000      	str	r0, [sp, #0]
    b0e2:	9b00      	ldr	r3, [sp, #0]
    b0e4:	f003 0301 	and.w	r3, r3, #1
    b0e8:	2b00      	cmp	r3, #0
    b0ea:	d100      	bne.n	b0ee <SchM_Enter_Pwm_PWM_EXCLUSIVE_AREA_31+0x2a>
    b0ec:	b672      	cpsid	i
    b0ee:	490a      	ldr	r1, [pc, #40]	; (b118 <SchM_Enter_Pwm_PWM_EXCLUSIVE_AREA_31+0x54>)
    b0f0:	9b01      	ldr	r3, [sp, #4]
    b0f2:	9a00      	ldr	r2, [sp, #0]
    b0f4:	f841 2023 	str.w	r2, [r1, r3, lsl #2]
    b0f8:	4a06      	ldr	r2, [pc, #24]	; (b114 <SchM_Enter_Pwm_PWM_EXCLUSIVE_AREA_31+0x50>)
    b0fa:	9b01      	ldr	r3, [sp, #4]
    b0fc:	f852 3023 	ldr.w	r3, [r2, r3, lsl #2]
    b100:	1c5a      	adds	r2, r3, #1
    b102:	4904      	ldr	r1, [pc, #16]	; (b114 <SchM_Enter_Pwm_PWM_EXCLUSIVE_AREA_31+0x50>)
    b104:	9b01      	ldr	r3, [sp, #4]
    b106:	f841 2023 	str.w	r2, [r1, r3, lsl #2]
    b10a:	bf00      	nop
    b10c:	b003      	add	sp, #12
    b10e:	f85d fb04 	ldr.w	pc, [sp], #4
    b112:	bf00      	nop
    b114:	1fff92d8 	.word	0x1fff92d8
    b118:	1fff92d4 	.word	0x1fff92d4

0000b11c <SchM_Exit_Pwm_PWM_EXCLUSIVE_AREA_31>:
    b11c:	b500      	push	{lr}
    b11e:	b083      	sub	sp, #12
    b120:	f7f5 fcc4 	bl	aac <Sys_GetCoreID>
    b124:	4603      	mov	r3, r0
    b126:	9301      	str	r3, [sp, #4]
    b128:	4a0d      	ldr	r2, [pc, #52]	; (b160 <SchM_Exit_Pwm_PWM_EXCLUSIVE_AREA_31+0x44>)
    b12a:	9b01      	ldr	r3, [sp, #4]
    b12c:	f852 3023 	ldr.w	r3, [r2, r3, lsl #2]
    b130:	1e5a      	subs	r2, r3, #1
    b132:	490b      	ldr	r1, [pc, #44]	; (b160 <SchM_Exit_Pwm_PWM_EXCLUSIVE_AREA_31+0x44>)
    b134:	9b01      	ldr	r3, [sp, #4]
    b136:	f841 2023 	str.w	r2, [r1, r3, lsl #2]
    b13a:	4a0a      	ldr	r2, [pc, #40]	; (b164 <SchM_Exit_Pwm_PWM_EXCLUSIVE_AREA_31+0x48>)
    b13c:	9b01      	ldr	r3, [sp, #4]
    b13e:	f852 3023 	ldr.w	r3, [r2, r3, lsl #2]
    b142:	f003 0301 	and.w	r3, r3, #1
    b146:	2b00      	cmp	r3, #0
    b148:	d106      	bne.n	b158 <SchM_Exit_Pwm_PWM_EXCLUSIVE_AREA_31+0x3c>
    b14a:	4a05      	ldr	r2, [pc, #20]	; (b160 <SchM_Exit_Pwm_PWM_EXCLUSIVE_AREA_31+0x44>)
    b14c:	9b01      	ldr	r3, [sp, #4]
    b14e:	f852 3023 	ldr.w	r3, [r2, r3, lsl #2]
    b152:	2b00      	cmp	r3, #0
    b154:	d100      	bne.n	b158 <SchM_Exit_Pwm_PWM_EXCLUSIVE_AREA_31+0x3c>
    b156:	b662      	cpsie	i
    b158:	bf00      	nop
    b15a:	b003      	add	sp, #12
    b15c:	f85d fb04 	ldr.w	pc, [sp], #4
    b160:	1fff92d8 	.word	0x1fff92d8
    b164:	1fff92d4 	.word	0x1fff92d4

0000b168 <SchM_Enter_Pwm_PWM_EXCLUSIVE_AREA_32>:
    b168:	b500      	push	{lr}
    b16a:	b083      	sub	sp, #12
    b16c:	f7f5 fc9e 	bl	aac <Sys_GetCoreID>
    b170:	4603      	mov	r3, r0
    b172:	9301      	str	r3, [sp, #4]
    b174:	4a10      	ldr	r2, [pc, #64]	; (b1b8 <SchM_Enter_Pwm_PWM_EXCLUSIVE_AREA_32+0x50>)
    b176:	9b01      	ldr	r3, [sp, #4]
    b178:	f852 3023 	ldr.w	r3, [r2, r3, lsl #2]
    b17c:	2b00      	cmp	r3, #0
    b17e:	d10d      	bne.n	b19c <SchM_Enter_Pwm_PWM_EXCLUSIVE_AREA_32+0x34>
    b180:	f7f5 fbc4 	bl	90c <Pwm_schm_read_msr>
    b184:	9000      	str	r0, [sp, #0]
    b186:	9b00      	ldr	r3, [sp, #0]
    b188:	f003 0301 	and.w	r3, r3, #1
    b18c:	2b00      	cmp	r3, #0
    b18e:	d100      	bne.n	b192 <SchM_Enter_Pwm_PWM_EXCLUSIVE_AREA_32+0x2a>
    b190:	b672      	cpsid	i
    b192:	490a      	ldr	r1, [pc, #40]	; (b1bc <SchM_Enter_Pwm_PWM_EXCLUSIVE_AREA_32+0x54>)
    b194:	9b01      	ldr	r3, [sp, #4]
    b196:	9a00      	ldr	r2, [sp, #0]
    b198:	f841 2023 	str.w	r2, [r1, r3, lsl #2]
    b19c:	4a06      	ldr	r2, [pc, #24]	; (b1b8 <SchM_Enter_Pwm_PWM_EXCLUSIVE_AREA_32+0x50>)
    b19e:	9b01      	ldr	r3, [sp, #4]
    b1a0:	f852 3023 	ldr.w	r3, [r2, r3, lsl #2]
    b1a4:	1c5a      	adds	r2, r3, #1
    b1a6:	4904      	ldr	r1, [pc, #16]	; (b1b8 <SchM_Enter_Pwm_PWM_EXCLUSIVE_AREA_32+0x50>)
    b1a8:	9b01      	ldr	r3, [sp, #4]
    b1aa:	f841 2023 	str.w	r2, [r1, r3, lsl #2]
    b1ae:	bf00      	nop
    b1b0:	b003      	add	sp, #12
    b1b2:	f85d fb04 	ldr.w	pc, [sp], #4
    b1b6:	bf00      	nop
    b1b8:	1fff92e0 	.word	0x1fff92e0
    b1bc:	1fff92dc 	.word	0x1fff92dc

0000b1c0 <SchM_Exit_Pwm_PWM_EXCLUSIVE_AREA_32>:
    b1c0:	b500      	push	{lr}
    b1c2:	b083      	sub	sp, #12
    b1c4:	f7f5 fc72 	bl	aac <Sys_GetCoreID>
    b1c8:	4603      	mov	r3, r0
    b1ca:	9301      	str	r3, [sp, #4]
    b1cc:	4a0d      	ldr	r2, [pc, #52]	; (b204 <SchM_Exit_Pwm_PWM_EXCLUSIVE_AREA_32+0x44>)
    b1ce:	9b01      	ldr	r3, [sp, #4]
    b1d0:	f852 3023 	ldr.w	r3, [r2, r3, lsl #2]
    b1d4:	1e5a      	subs	r2, r3, #1
    b1d6:	490b      	ldr	r1, [pc, #44]	; (b204 <SchM_Exit_Pwm_PWM_EXCLUSIVE_AREA_32+0x44>)
    b1d8:	9b01      	ldr	r3, [sp, #4]
    b1da:	f841 2023 	str.w	r2, [r1, r3, lsl #2]
    b1de:	4a0a      	ldr	r2, [pc, #40]	; (b208 <SchM_Exit_Pwm_PWM_EXCLUSIVE_AREA_32+0x48>)
    b1e0:	9b01      	ldr	r3, [sp, #4]
    b1e2:	f852 3023 	ldr.w	r3, [r2, r3, lsl #2]
    b1e6:	f003 0301 	and.w	r3, r3, #1
    b1ea:	2b00      	cmp	r3, #0
    b1ec:	d106      	bne.n	b1fc <SchM_Exit_Pwm_PWM_EXCLUSIVE_AREA_32+0x3c>
    b1ee:	4a05      	ldr	r2, [pc, #20]	; (b204 <SchM_Exit_Pwm_PWM_EXCLUSIVE_AREA_32+0x44>)
    b1f0:	9b01      	ldr	r3, [sp, #4]
    b1f2:	f852 3023 	ldr.w	r3, [r2, r3, lsl #2]
    b1f6:	2b00      	cmp	r3, #0
    b1f8:	d100      	bne.n	b1fc <SchM_Exit_Pwm_PWM_EXCLUSIVE_AREA_32+0x3c>
    b1fa:	b662      	cpsie	i
    b1fc:	bf00      	nop
    b1fe:	b003      	add	sp, #12
    b200:	f85d fb04 	ldr.w	pc, [sp], #4
    b204:	1fff92e0 	.word	0x1fff92e0
    b208:	1fff92dc 	.word	0x1fff92dc

0000b20c <SchM_Enter_Pwm_PWM_EXCLUSIVE_AREA_33>:
    b20c:	b500      	push	{lr}
    b20e:	b083      	sub	sp, #12
    b210:	f7f5 fc4c 	bl	aac <Sys_GetCoreID>
    b214:	4603      	mov	r3, r0
    b216:	9301      	str	r3, [sp, #4]
    b218:	4a10      	ldr	r2, [pc, #64]	; (b25c <SchM_Enter_Pwm_PWM_EXCLUSIVE_AREA_33+0x50>)
    b21a:	9b01      	ldr	r3, [sp, #4]
    b21c:	f852 3023 	ldr.w	r3, [r2, r3, lsl #2]
    b220:	2b00      	cmp	r3, #0
    b222:	d10d      	bne.n	b240 <SchM_Enter_Pwm_PWM_EXCLUSIVE_AREA_33+0x34>
    b224:	f7f5 fb72 	bl	90c <Pwm_schm_read_msr>
    b228:	9000      	str	r0, [sp, #0]
    b22a:	9b00      	ldr	r3, [sp, #0]
    b22c:	f003 0301 	and.w	r3, r3, #1
    b230:	2b00      	cmp	r3, #0
    b232:	d100      	bne.n	b236 <SchM_Enter_Pwm_PWM_EXCLUSIVE_AREA_33+0x2a>
    b234:	b672      	cpsid	i
    b236:	490a      	ldr	r1, [pc, #40]	; (b260 <SchM_Enter_Pwm_PWM_EXCLUSIVE_AREA_33+0x54>)
    b238:	9b01      	ldr	r3, [sp, #4]
    b23a:	9a00      	ldr	r2, [sp, #0]
    b23c:	f841 2023 	str.w	r2, [r1, r3, lsl #2]
    b240:	4a06      	ldr	r2, [pc, #24]	; (b25c <SchM_Enter_Pwm_PWM_EXCLUSIVE_AREA_33+0x50>)
    b242:	9b01      	ldr	r3, [sp, #4]
    b244:	f852 3023 	ldr.w	r3, [r2, r3, lsl #2]
    b248:	1c5a      	adds	r2, r3, #1
    b24a:	4904      	ldr	r1, [pc, #16]	; (b25c <SchM_Enter_Pwm_PWM_EXCLUSIVE_AREA_33+0x50>)
    b24c:	9b01      	ldr	r3, [sp, #4]
    b24e:	f841 2023 	str.w	r2, [r1, r3, lsl #2]
    b252:	bf00      	nop
    b254:	b003      	add	sp, #12
    b256:	f85d fb04 	ldr.w	pc, [sp], #4
    b25a:	bf00      	nop
    b25c:	1fff92e8 	.word	0x1fff92e8
    b260:	1fff92e4 	.word	0x1fff92e4

0000b264 <SchM_Exit_Pwm_PWM_EXCLUSIVE_AREA_33>:
    b264:	b500      	push	{lr}
    b266:	b083      	sub	sp, #12
    b268:	f7f5 fc20 	bl	aac <Sys_GetCoreID>
    b26c:	4603      	mov	r3, r0
    b26e:	9301      	str	r3, [sp, #4]
    b270:	4a0d      	ldr	r2, [pc, #52]	; (b2a8 <SchM_Exit_Pwm_PWM_EXCLUSIVE_AREA_33+0x44>)
    b272:	9b01      	ldr	r3, [sp, #4]
    b274:	f852 3023 	ldr.w	r3, [r2, r3, lsl #2]
    b278:	1e5a      	subs	r2, r3, #1
    b27a:	490b      	ldr	r1, [pc, #44]	; (b2a8 <SchM_Exit_Pwm_PWM_EXCLUSIVE_AREA_33+0x44>)
    b27c:	9b01      	ldr	r3, [sp, #4]
    b27e:	f841 2023 	str.w	r2, [r1, r3, lsl #2]
    b282:	4a0a      	ldr	r2, [pc, #40]	; (b2ac <SchM_Exit_Pwm_PWM_EXCLUSIVE_AREA_33+0x48>)
    b284:	9b01      	ldr	r3, [sp, #4]
    b286:	f852 3023 	ldr.w	r3, [r2, r3, lsl #2]
    b28a:	f003 0301 	and.w	r3, r3, #1
    b28e:	2b00      	cmp	r3, #0
    b290:	d106      	bne.n	b2a0 <SchM_Exit_Pwm_PWM_EXCLUSIVE_AREA_33+0x3c>
    b292:	4a05      	ldr	r2, [pc, #20]	; (b2a8 <SchM_Exit_Pwm_PWM_EXCLUSIVE_AREA_33+0x44>)
    b294:	9b01      	ldr	r3, [sp, #4]
    b296:	f852 3023 	ldr.w	r3, [r2, r3, lsl #2]
    b29a:	2b00      	cmp	r3, #0
    b29c:	d100      	bne.n	b2a0 <SchM_Exit_Pwm_PWM_EXCLUSIVE_AREA_33+0x3c>
    b29e:	b662      	cpsie	i
    b2a0:	bf00      	nop
    b2a2:	b003      	add	sp, #12
    b2a4:	f85d fb04 	ldr.w	pc, [sp], #4
    b2a8:	1fff92e8 	.word	0x1fff92e8
    b2ac:	1fff92e4 	.word	0x1fff92e4

0000b2b0 <SchM_Enter_Pwm_PWM_EXCLUSIVE_AREA_34>:
    b2b0:	b500      	push	{lr}
    b2b2:	b083      	sub	sp, #12
    b2b4:	f7f5 fbfa 	bl	aac <Sys_GetCoreID>
    b2b8:	4603      	mov	r3, r0
    b2ba:	9301      	str	r3, [sp, #4]
    b2bc:	4a10      	ldr	r2, [pc, #64]	; (b300 <SchM_Enter_Pwm_PWM_EXCLUSIVE_AREA_34+0x50>)
    b2be:	9b01      	ldr	r3, [sp, #4]
    b2c0:	f852 3023 	ldr.w	r3, [r2, r3, lsl #2]
    b2c4:	2b00      	cmp	r3, #0
    b2c6:	d10d      	bne.n	b2e4 <SchM_Enter_Pwm_PWM_EXCLUSIVE_AREA_34+0x34>
    b2c8:	f7f5 fb20 	bl	90c <Pwm_schm_read_msr>
    b2cc:	9000      	str	r0, [sp, #0]
    b2ce:	9b00      	ldr	r3, [sp, #0]
    b2d0:	f003 0301 	and.w	r3, r3, #1
    b2d4:	2b00      	cmp	r3, #0
    b2d6:	d100      	bne.n	b2da <SchM_Enter_Pwm_PWM_EXCLUSIVE_AREA_34+0x2a>
    b2d8:	b672      	cpsid	i
    b2da:	490a      	ldr	r1, [pc, #40]	; (b304 <SchM_Enter_Pwm_PWM_EXCLUSIVE_AREA_34+0x54>)
    b2dc:	9b01      	ldr	r3, [sp, #4]
    b2de:	9a00      	ldr	r2, [sp, #0]
    b2e0:	f841 2023 	str.w	r2, [r1, r3, lsl #2]
    b2e4:	4a06      	ldr	r2, [pc, #24]	; (b300 <SchM_Enter_Pwm_PWM_EXCLUSIVE_AREA_34+0x50>)
    b2e6:	9b01      	ldr	r3, [sp, #4]
    b2e8:	f852 3023 	ldr.w	r3, [r2, r3, lsl #2]
    b2ec:	1c5a      	adds	r2, r3, #1
    b2ee:	4904      	ldr	r1, [pc, #16]	; (b300 <SchM_Enter_Pwm_PWM_EXCLUSIVE_AREA_34+0x50>)
    b2f0:	9b01      	ldr	r3, [sp, #4]
    b2f2:	f841 2023 	str.w	r2, [r1, r3, lsl #2]
    b2f6:	bf00      	nop
    b2f8:	b003      	add	sp, #12
    b2fa:	f85d fb04 	ldr.w	pc, [sp], #4
    b2fe:	bf00      	nop
    b300:	1fff92f0 	.word	0x1fff92f0
    b304:	1fff92ec 	.word	0x1fff92ec

0000b308 <SchM_Exit_Pwm_PWM_EXCLUSIVE_AREA_34>:
    b308:	b500      	push	{lr}
    b30a:	b083      	sub	sp, #12
    b30c:	f7f5 fbce 	bl	aac <Sys_GetCoreID>
    b310:	4603      	mov	r3, r0
    b312:	9301      	str	r3, [sp, #4]
    b314:	4a0d      	ldr	r2, [pc, #52]	; (b34c <SchM_Exit_Pwm_PWM_EXCLUSIVE_AREA_34+0x44>)
    b316:	9b01      	ldr	r3, [sp, #4]
    b318:	f852 3023 	ldr.w	r3, [r2, r3, lsl #2]
    b31c:	1e5a      	subs	r2, r3, #1
    b31e:	490b      	ldr	r1, [pc, #44]	; (b34c <SchM_Exit_Pwm_PWM_EXCLUSIVE_AREA_34+0x44>)
    b320:	9b01      	ldr	r3, [sp, #4]
    b322:	f841 2023 	str.w	r2, [r1, r3, lsl #2]
    b326:	4a0a      	ldr	r2, [pc, #40]	; (b350 <SchM_Exit_Pwm_PWM_EXCLUSIVE_AREA_34+0x48>)
    b328:	9b01      	ldr	r3, [sp, #4]
    b32a:	f852 3023 	ldr.w	r3, [r2, r3, lsl #2]
    b32e:	f003 0301 	and.w	r3, r3, #1
    b332:	2b00      	cmp	r3, #0
    b334:	d106      	bne.n	b344 <SchM_Exit_Pwm_PWM_EXCLUSIVE_AREA_34+0x3c>
    b336:	4a05      	ldr	r2, [pc, #20]	; (b34c <SchM_Exit_Pwm_PWM_EXCLUSIVE_AREA_34+0x44>)
    b338:	9b01      	ldr	r3, [sp, #4]
    b33a:	f852 3023 	ldr.w	r3, [r2, r3, lsl #2]
    b33e:	2b00      	cmp	r3, #0
    b340:	d100      	bne.n	b344 <SchM_Exit_Pwm_PWM_EXCLUSIVE_AREA_34+0x3c>
    b342:	b662      	cpsie	i
    b344:	bf00      	nop
    b346:	b003      	add	sp, #12
    b348:	f85d fb04 	ldr.w	pc, [sp], #4
    b34c:	1fff92f0 	.word	0x1fff92f0
    b350:	1fff92ec 	.word	0x1fff92ec

0000b354 <Clock_Ip_au8DividerCallbackIndex>:
    b354:	0e0d0c00 06030201 0a070409 000b0805     ................

0000b364 <Clock_Ip_au8DividerTriggerCallbackIndex>:
	...

0000b374 <Clock_Ip_au8XoscCallbackIndex>:
    b374:	00000100 00000000 00000000 00000000     ................

0000b384 <Clock_Ip_au8IrcoscCallbackIndex>:
    b384:	03020100 00000004 00000000 00000000     ................

0000b394 <Clock_Ip_au8GateCallbackIndex>:
    b394:	06010200 01040301 00000500 00000000     ................

0000b3a4 <Clock_Ip_au8FractionalDividerCallbackIndex>:
	...

0000b3b4 <Clock_Ip_au8PllCallbackIndex>:
    b3b4:	00000100 00000000 00000000 00000000     ................

0000b3c4 <Clock_Ip_au8SelectorCallbackIndex>:
    b3c4:	0a090800 03020109 07060504 00000000     ................

0000b3d4 <Clock_Ip_au8PcfsCallbackIndex>:
	...

0000b3e4 <Clock_Ip_au8CmuCallbackIndex>:
	...

0000b3f4 <Clock_Ip_au8ClockFeatures>:
	...
    b404:	01000000 00000000 00000000 00000002     ................
    b414:	00000000 00000300 00000000 00040000     ................
    b424:	00000000 05000000 00000000 00000000     ................
    b434:	00000006 00000000 00000100 00000000     ................
    b444:	00010000 00000000 04000000 00000000     ................
    b454:	00000000 00000005 00000001 00000401     ................
    b464:	00000200 00050100 00030000 04020000     ................
    b474:	04000000 02000000 00000005 00000005     ................
    b484:	00000403 00000600 00050300 00070000     ................
    b494:	05000000 00000000 00000000 00000006     ................
	...
    b4d4:	00050000 00000000 06000000 00000100     ................
    b4e4:	00000000 00030007 00000000 00000000     ................
    b4f4:	00000000 00060000 00000000 07000000     ................
    b504:	00000100 00000000 00030008 00000000     ................
	...
    b51c:	00090000 00000000 0a000000 00000100     ................
    b52c:	00000000 0003000b 00000000 00000000     ................
    b53c:	00000000 000c0000 00000000 0d000000     ................
    b54c:	00000100 00000000 0003000e 00000000     ................
    b55c:	00000800 00000000 00090000 00000000     ................
    b56c:	0a000000 00000000 00000000 0000000b     ................
    b57c:	00000000 00000b01 00000000 000b0200     ................
    b58c:	00000000 0b030000 00000000 00000000     ................
	...
    b5a4:	00000400 003b003b 00040000 27002700     ....;.;......'.'
    b5b4:	01000000 00000000 00000000 00000007     ................
    b5c4:	00007300 00000700 00320000 00090000     .s........2.....
    b5d4:	02000000 07000000 00000000 00000021     ............!...
    b5e4:	00000009 00000400 00000900 00030000     ................
    b5f4:	00070000 61000000 07000000 00000000     .......a........
    b604:	00000024 00000007 00002500 00000700     $........%......
    b614:	002b0000 00040000 5a005a00 07000000     ..+......Z.Z....
    b624:	00000000 00000020 38000004 00003800     .... ......8.8..
    b634:	00000400 00390039 00040000 3a003a00     ....9.9......:.:
    b644:	04000000 00260000 00000026 66000004     ......&.&......f
    b654:	00006600 00000400 00370037 00040000     .f......7.7.....
    b664:	2c002c00 04000000 002d0000 0000002d     .,.,......-.-...
    b674:	2e000004 00002e00 00000200 00404040     ............@@@.
    b684:	00040000 6a006a00 04000000 006b0000     .....j.j......k.
    b694:	0000006b 6c000004 00006c00 00000900     k......l.l......
    b6a4:	00010000 00090000 00000000 07000000     ................
    b6b4:	00000000 00000036 00000007 00003100     ....6........1..
    b6c4:	00000700 00490000 00070000 4a000000     ......I........J
    b6d4:	07000000 00000000 0000004b 00000007     ........K.......
    b6e4:	00004c00 00000700 004d0000 00070000     .L........M.....
    b6f4:	3d000000 03000000 00000000 00000000     ...=............

0000b704 <Clock_Ip_au16SelectorEntryHardwareValue>:
    b704:	01010a03 01010001 04040002 02000603     ................
    b714:	00010810 02020100 00000000 00000007     ................
    b724:	00000009 00000000 00000c0e 00000000     ................
	...

0000b75c <Clock_Ip_au8SelectorEntryScsHardwareValue>:
    b75c:	00020000 00000300 00000601 00000000     ................
	...

0000b78c <Clock_Ip_au8SelectorEntryPcsHardwareValue>:
    b78c:	00000700 00000000 02020000 01010303     ................
    b79c:	03020606 00000000 00000000 00000000     ................
	...

0000b7bc <Clock_Ip_au8SelectorEntrySIMHardwareValue>:
    b7bc:	00000001 00000000 02020000 01010303     ................
    b7cc:	03020606 00000000 00000000 00000000     ................
	...

0000b7ec <Clock_Ip_au8DividerValueHardwareValue>:
    b7ec:	00020100 00000003 00000004 00000000     ................
    b7fc:	00000005 00000000 00000000 00000000     ................
    b80c:	00000006 00000000 00000000 00000000     ................
	...
    b82c:	00000007                                ....

0000b830 <Clock_Ip_apxScgPeriphAsyncDivs>:
    b830:	40064204 40064304 40064104 40064604     .B.@.C.@.A.@.F.@

0000b840 <Clock_Ip_aeSourceTypeClockName>:
    b840:	00000000 00000001 00000001 00000001     ................
    b850:	00000001 00000001 00000001 00000001     ................
    b860:	00000002 00000003 00000001 00000001     ................
    b870:	00000001 00000001 00000002 00000002     ................
    b880:	00000003 00000003 00000001 00000001     ................
    b890:	00000004 00000004 00000004 00000004     ................
	...

0000b8fc <Clock_Ip_aeHwPllName>:
    b8fc:	00000009                                ....

0000b900 <Clock_Ip_aeHwDfsName>:
    b900:	00000057                                W...

0000b904 <Clock_Ip_axDividerCallbacks>:
    b904:	00001bc1 00001bcb 00001be5 00001bff     ................
    b914:	00001c19 00001c33 00001c4d 00001c67     ....3...M...g...
    b924:	00001c81 00001c9b 00001cb5 00001ccf     ................
    b934:	00001ce9 00001d03 00001d1d              ............

0000b940 <Clock_Ip_axDividerTriggerCallbacks>:
    b940:	00002091 00002091                       . ... ..

0000b948 <Clock_Ip_axExtOscCallbacks>:
    b948:	0000209d 0000209d 0000209d 000020a7     . ... ... ... ..
    b958:	0000209d 000020b1 000020cb 000020e5     . ... ... ... ..
    b968:	00002169 0000217d                       i!..}!..

0000b970 <Clock_Ip_axFracDivCallbacks>:
    b970:	0000233d 0000233d 00002347              =#..=#..G#..

0000b97c <Clock_Ip_axGateCallbacks>:
    b97c:	00002361 0000236b 0000246b 00002485     a#..k#..k$...$..
    b98c:	0000241b 00002435 000023cb 000023e5     .$..5$...#...#..
    b99c:	0000237b 00002395 000024bb 000024d5     {#...#...$...$..
    b9ac:	0000250b 00002525                       .%..%%..

0000b9b4 <Clock_Ip_axIntOscCallbacks>:
    b9b4:	000026d1 000026d1 000026db 000026e5     .&...&...&...&..
    b9c4:	000026ff 00002719 0000272d 00002747     .&...'..-'..G'..
    b9d4:	00002761 00002775 0000278f 000027a9     a'..u'...'...'..
    b9e4:	00002851 0000286b 00002885              Q(..k(...(..

0000b9f0 <Clock_Ip_axCmuCallbacks>:
    b9f0:	00002e21 00002e2b 00002e37 00002e21     !...+...7...!...

0000ba00 <Clock_Ip_axPllCallbacks>:
    ba00:	00002e41 00002e41 00002e4b 00002e41     A...A...K...A...
    ba10:	00002e57 00002e61 00002e7b 00002e95     W...a...{.......
    ba20:	00002f39 00002f25                       9/..%/..

0000ba28 <Clock_Ip_axPcfsCallbacks>:
    ba28:	00003095                                .0..

0000ba2c <Clock_Ip_axSelectorCallbacks>:
    ba2c:	000030a1 000030a1 000030ab 000030c5     .0...0...0...0..
    ba3c:	000030a1 000030df 000030f9 00003113     .0...0...0...1..
    ba4c:	0000312d 00003147 00003161 0000317b     -1..G1..a1..{1..
    ba5c:	00003195 000031af 000031c9 000031e3     .1...1...1...1..
    ba6c:	000031fd 00003217 00003231 0000324b     .1...2..12..K2..
    ba7c:	00003265 0000327f                       e2...2..

0000ba84 <ClockSource>:
    ba84:	00000000 00000008 00000002 00000005     ................
	...
    ba9c:	00000009                                ....

0000baa0 <ResetReasonArray>:
    baa0:	00000000 00000001 00000002 00000003     ................
    bab0:	00000004 00000005 00000006 00000007     ................
    bac0:	00000008 00000009 0000000a 0000000b     ................
    bad0:	0000000c 0000000d 0000000e              ............

0000badc <Port_au32PortCiPortBaseAddr>:
    badc:	40049000 4004a000 4004b000 4004c000     ...@...@...@...@
    baec:	4004d000                                ...@

0000baf0 <Port_au32PortCiGpioBaseAddr>:
    baf0:	400ff000 400ff040 400ff080 400ff0c0     ...@@..@...@...@
    bb00:	400ff100                                ...@

0000bb04 <Ftm_Pwm_Ip_aFtmBase>:
    bb04:	40038000 40039000 4003a000 40026000     ...@...@...@.`.@

0000bb14 <Mcu_aClockConfigPB>:
	...
    bb1c:	1c000101 04000010 01000029 00000005     ........).......
    bb2c:	00000001 00000000 00000057 00000000     ........W.......
    bb3c:	00000000 00000008 007a1200 00000001     ..........z.....
    bb4c:	00000001 00000000 00000057 00000000     ........W.......
    bb5c:	00000057 00000000 00000000 00000000     W...............
	...
    bb7c:	00000019 00000005 0000001a 00000002     ................
    bb8c:	0000001b 00000005 0000002a 00000005     ........*.......
    bb9c:	00000028 0000000e 00000029 00000001     (.......).......
    bbac:	00000056 0000001c 00000032 0000002a     V.......2...*...
    bbbc:	0000002b 00000014 0000002c 00000014     +.......,.......
    bbcc:	0000002d 00000014 0000002e 00000014     -...............
    bbdc:	0000003f 00000000 00000040 00000000     ?.......@.......
    bbec:	00000041 00000000 00000042 00000000     A.......B.......
    bbfc:	00000031 00000000 00000045 00000000     1.......E.......
    bc0c:	00000046 00000000 00000047 00000000     F.......G.......
    bc1c:	00000044 00000000 00000030 00000000     D.......0.......
    bc2c:	0000003d 00000000 00000043 00000000     =.......C.......
    bc3c:	00000049 00000000 0000004a 00000000     I.......J.......
    bc4c:	0000004b 00000000 00000048 00000000     K.......H.......
    bc5c:	0000000c 00000001 00000000 0000000d     ................
    bc6c:	00000002 00000000 0000000e 00000001     ................
    bc7c:	00000000 0000000f 00000001 00000000     ................
    bc8c:	0000001d 00000001 00000000 0000001e     ................
    bc9c:	00000008 00000000 0000001f 00000001     ................
    bcac:	00000000 00000021 00000001 00000000     ....!...........
    bcbc:	00000022 00000002 00000000 00000023     "...........#...
    bccc:	00000001 00000000 00000025 00000003     ........%.......
    bcdc:	00000000 00000026 00000004 00000000     ....&...........
    bcec:	00000027 00000002 00000000 00000032     '...........2...
    bcfc:	00000001 00000000 00000048 00000001     ........H.......
    bd0c:	00000001 00000056 00000001 00000001     ....V...........
    bd1c:	00000057 00000000 00000000 00000057     W...........W...
	...
    bd34:	00000057 00000000 00000000 00000057     W...........W...
	...
    bd4c:	00000057 00000000 00000057 00000057     W.......W...W...
	...
    bd68:	00000014 00007d00 00000015 00007d00     .....}.......}..
    bd78:	00000016 00007d00 00000017 00008000     .....}..........
    bd88:	00000012 00000001 00000013 00000001     ................
    bd98:	00000030 00000000 00000031 00000000     0.......1.......
    bda8:	00000032 00000000 00000033 00000000     2.......3.......
    bdb8:	00000034 00000000 00000035 00000001     4.......5.......
    bdc8:	00000036 00000000 00000037 00000001     6.......7.......
    bdd8:	00000038 00000001 00000039 00000000     8.......9.......
    bde8:	0000003a 00000000 0000003b 00000000     :.......;.......
    bdf8:	0000003c 00000000 0000003d 00000000     <.......=.......
    be08:	0000003e 00000000 0000003f 00000001     >.......?.......
    be18:	00000040 00000000 00000041 00000000     @.......A.......
    be28:	00000042 00000000 00000043 00000000     B.......C.......
    be38:	00000044 00000000 00000045 00000000     D.......E.......
    be48:	00000046 00000000 00000047 00000000     F.......G.......
    be58:	00000048 00000000 00000049 00000000     H.......I.......
    be68:	0000004a 00000000 0000004b 00000000     J.......K.......
    be78:	0000004c 00000001 0000004d 00000001     L.......M.......
    be88:	0000004e 00000000 0000004f 00000000     N.......O.......
    be98:	00000050 00000001 00000051 00000001     P.......Q.......
    bea8:	00000052 00000001 00000053 00000001     R.......S.......
    beb8:	00000054 00000001 00000055 00000000     T.......U.......
    bec8:	00000056 00000001 00000057 00000000     V.......W.......
    bed8:	00000000 00000057 00000000 00000057     ....W.......W...
	...

0000bf0c <Ftm_Pwm_Ip_SyncCfg0>:
	...
    bf28:	00000003 00000003                       ........

0000bf30 <Ftm_Pwm_Ip_InstCfg0>:
    bf30:	00000001 00000007 00000000 00000000     ................
	...
    bf64:	0000927c 00000001 00000000 00000000     |...............
    bf74:	00000000 0000bf0c                       ........

0000bf7c <Ftm_Pwm_Ip_I0_Ch2>:
    bf7c:	00000002 0000000a 00000000 00000000     ................
    bf8c:	00000000 00000001 493e0000 00000000     ..........>I....
	...

0000bfa4 <Ftm_Pwm_Ip_I0_ChArray>:
    bfa4:	0000bf7c                                |...

0000bfa8 <Ftm_Pwm_Ip_UserCfg0>:
    bfa8:	0000bf30 0000bfa4 00000001 00000000     0...............
    bfb8:	00000000                                ....

0000bfbc <Mcu_Config>:
    bfbc:	0000005a 00000000 00000001 00000001     Z...............
    bfcc:	0000c110 0000bb14 0000c11c              ............

0000bfd8 <OsIf_xPredefinedConfig>:
    bfd8:	00000000 02dc6c00                       .....l..

0000bfe0 <OsIf_apxPredefinedConfig>:
    bfe0:	0000bfd8                                ....

0000bfe4 <g_pin_mux_InitConfigArr>:
    bfe4:	4004c000 00000000 00000000 00000002     ...@............
    bff4:	00000002 00000002 00000000 00000000     ................
	...

0000c00c <au8Port_PartitionList>:
    c00c:	00000001                                ....

0000c010 <au32Port_PinToPartitionMap>:
    c010:	00000001                                ....

0000c014 <Port_au16NoUnUsedPadsArrayDefault>:
    c014:	00010000 00030002 00070006 00090008     ................
    c024:	000c000b 000e000d 0010000f 00200011     .............. .
    c034:	00220021 00240023 00260025 00280027     !.".#.$.%.&.'.(.
    c044:	002a0029 002c002b 002e002d 0030002f     ).*.+.,.-.../.0.
    c054:	00400031 00420041 00460043 00480047     1.@.A.B.C.F.G.H.
    c064:	004a0049 004c004b 004e004d 0050004f     I.J.K.L.M.N.O.P.
    c074:	00610051 00630062 00650064 00670066     Q.a.b.c.d.e.f.g.
    c084:	00690068 006b006a 006d006c 006f006e     h.i.j.k.l.m.n.o.
    c094:	00710070 00810080 00830082 00850084     p.q.............
    c0a4:	00870086 00890088 008b008a 008d008c     ................
    c0b4:	008f008e 00000090                       ........

0000c0bc <Port_UnUsedPin>:
    c0bc:	00000100 00000001 00000000              ............

0000c0c8 <Port_aPinConfigDefault>:
    c0c8:	00000060 00000200 00000000 00000002     `...............
    c0d8:	00010000                                ....

0000c0dc <Port_Config>:
    c0dc:	00530001 0000c014 0000c0bc 0000c0c8     ..S.............
	...
    c0f4:	0000c010 0000c00c 0000bfe4              ............

0000c100 <Power_Ip_RCM_ConfigPB>:
	...

0000c108 <Power_Ip_PMC_ConfigPB>:
    c108:	00000000                                ....

0000c10c <Power_Ip_SMC_ConfigPB>:
    c10c:	00000000                                ....

0000c110 <Power_Ip_aModeConfigPB>:
	...

0000c11c <Power_Ip_HwIPsConfigPB>:
    c11c:	0000c100 0000c108 0000c10c              ............

0000c128 <Pwm_Channels_PB>:
    c128:	00000000 00000001 00000001 0000bf7c     ............|...
    c138:	40000000 00000001                       ...@....

0000c140 <Pwm_Instances_PB>:
    c140:	00000000 00000001 0000bfa8              ............

0000c14c <Pwm_Config>:
    c14c:	00000001 0000c128 00000001 0000c140     ....(.......@...

0000c15c <__INIT_TABLE>:
    c15c:	00000002 	.word	0x00000002
    c160:	1fff8b10 	.word	0x1fff8b10
    c164:	0000c184 	.word	0x0000c184
    c168:	0000c1ac 	.word	0x0000c1ac
    c16c:	1fff8800 	.word	0x1fff8800
    c170:	00000000 	.word	0x00000000
    c174:	00000310 	.word	0x00000310

0000c178 <__ZERO_TABLE>:
    c178:	00000001 	.word	0x00000001
    c17c:	1fff8b40 	.word	0x1fff8b40
    c180:	1fff9300 	.word	0x1fff9300
